ARM GAS  C:\Users\Vit\AppData\Local\Temp\ccZjam4s.s 			page 1


   1              		.cpu cortex-m0
   2              		.fpu softvfp
   3              		.eabi_attribute 20, 1
   4              		.eabi_attribute 21, 1
   5              		.eabi_attribute 23, 3
   6              		.eabi_attribute 24, 1
   7              		.eabi_attribute 25, 1
   8              		.eabi_attribute 26, 1
   9              		.eabi_attribute 30, 4
  10              		.eabi_attribute 34, 0
  11              		.eabi_attribute 18, 4
  12              		.code	16
  13              		.file	"cyfitter_cfg.c"
  14              		.text
  15              	.Ltext0:
  16              		.cfi_sections	.debug_frame
  17              		.section	.text.SetAnalogRoutingPumps,"ax",%progbits
  18              		.align	1
  19              		.global	SetAnalogRoutingPumps
  20              		.code	16
  21              		.thumb_func
  22              		.type	SetAnalogRoutingPumps, %function
  23              	SetAnalogRoutingPumps:
  24              	.LFB6:
  25              		.file 1 ".\\Generated_Source\\PSoC4\\cyfitter_cfg.c"
   1:.\Generated_Source\PSoC4/cyfitter_cfg.c **** /*******************************************************************************
   2:.\Generated_Source\PSoC4/cyfitter_cfg.c **** * File Name: cyfitter_cfg.c
   3:.\Generated_Source\PSoC4/cyfitter_cfg.c **** * 
   4:.\Generated_Source\PSoC4/cyfitter_cfg.c **** * PSoC Creator  3.3 CP1
   5:.\Generated_Source\PSoC4/cyfitter_cfg.c **** *
   6:.\Generated_Source\PSoC4/cyfitter_cfg.c **** * Description:
   7:.\Generated_Source\PSoC4/cyfitter_cfg.c **** * This file contains device initialization code.
   8:.\Generated_Source\PSoC4/cyfitter_cfg.c **** * Except for the user defined sections in CyClockStartupError(), this file should not be modified.
   9:.\Generated_Source\PSoC4/cyfitter_cfg.c **** * This file is automatically generated by PSoC Creator.
  10:.\Generated_Source\PSoC4/cyfitter_cfg.c **** *
  11:.\Generated_Source\PSoC4/cyfitter_cfg.c **** ********************************************************************************
  12:.\Generated_Source\PSoC4/cyfitter_cfg.c **** * Copyright (c) 2007-2015 Cypress Semiconductor.  All rights reserved.
  13:.\Generated_Source\PSoC4/cyfitter_cfg.c **** * You may use this file only in accordance with the license, terms, conditions, 
  14:.\Generated_Source\PSoC4/cyfitter_cfg.c **** * disclaimers, and limitations in the end user license agreement accompanying 
  15:.\Generated_Source\PSoC4/cyfitter_cfg.c **** * the software package with which this file was provided.
  16:.\Generated_Source\PSoC4/cyfitter_cfg.c **** ********************************************************************************/
  17:.\Generated_Source\PSoC4/cyfitter_cfg.c **** 
  18:.\Generated_Source\PSoC4/cyfitter_cfg.c **** #include <string.h>
  19:.\Generated_Source\PSoC4/cyfitter_cfg.c **** #include "cytypes.h"
  20:.\Generated_Source\PSoC4/cyfitter_cfg.c **** #include "cydevice_trm.h"
  21:.\Generated_Source\PSoC4/cyfitter_cfg.c **** #include "cyfitter.h"
  22:.\Generated_Source\PSoC4/cyfitter_cfg.c **** #include "CyLib.h"
  23:.\Generated_Source\PSoC4/cyfitter_cfg.c **** #include "CyLFClk.h"
  24:.\Generated_Source\PSoC4/cyfitter_cfg.c **** #include "cyfitter_cfg.h"
  25:.\Generated_Source\PSoC4/cyfitter_cfg.c **** 
  26:.\Generated_Source\PSoC4/cyfitter_cfg.c **** 
  27:.\Generated_Source\PSoC4/cyfitter_cfg.c **** #if defined(__GNUC__) || defined(__ARMCC_VERSION)
  28:.\Generated_Source\PSoC4/cyfitter_cfg.c ****     #define CYPACKED 
  29:.\Generated_Source\PSoC4/cyfitter_cfg.c ****     #define CYPACKED_ATTR __attribute__ ((packed))
  30:.\Generated_Source\PSoC4/cyfitter_cfg.c ****     #define CYALIGNED __attribute__ ((aligned))
  31:.\Generated_Source\PSoC4/cyfitter_cfg.c ****     #define CY_CFG_UNUSED __attribute__ ((unused))
  32:.\Generated_Source\PSoC4/cyfitter_cfg.c ****     #define CY_CFG_SECTION __attribute__ ((section(".psocinit")))
ARM GAS  C:\Users\Vit\AppData\Local\Temp\ccZjam4s.s 			page 2


  33:.\Generated_Source\PSoC4/cyfitter_cfg.c ****     
  34:.\Generated_Source\PSoC4/cyfitter_cfg.c ****     #if defined(__ARMCC_VERSION)
  35:.\Generated_Source\PSoC4/cyfitter_cfg.c ****         #define CY_CFG_MEMORY_BARRIER() __memory_changed()
  36:.\Generated_Source\PSoC4/cyfitter_cfg.c ****     #else
  37:.\Generated_Source\PSoC4/cyfitter_cfg.c ****         #define CY_CFG_MEMORY_BARRIER() __sync_synchronize()
  38:.\Generated_Source\PSoC4/cyfitter_cfg.c ****     #endif
  39:.\Generated_Source\PSoC4/cyfitter_cfg.c ****     
  40:.\Generated_Source\PSoC4/cyfitter_cfg.c **** #elif defined(__ICCARM__)
  41:.\Generated_Source\PSoC4/cyfitter_cfg.c ****     #include <intrinsics.h>
  42:.\Generated_Source\PSoC4/cyfitter_cfg.c **** 
  43:.\Generated_Source\PSoC4/cyfitter_cfg.c ****     #define CYPACKED __packed
  44:.\Generated_Source\PSoC4/cyfitter_cfg.c ****     #define CYPACKED_ATTR 
  45:.\Generated_Source\PSoC4/cyfitter_cfg.c ****     #define CYALIGNED _Pragma("data_alignment=4")
  46:.\Generated_Source\PSoC4/cyfitter_cfg.c ****     #define CY_CFG_UNUSED _Pragma("diag_suppress=Pe177")
  47:.\Generated_Source\PSoC4/cyfitter_cfg.c ****     #define CY_CFG_SECTION _Pragma("location=\".psocinit\"")
  48:.\Generated_Source\PSoC4/cyfitter_cfg.c ****     
  49:.\Generated_Source\PSoC4/cyfitter_cfg.c ****     #define CY_CFG_MEMORY_BARRIER() __DMB()
  50:.\Generated_Source\PSoC4/cyfitter_cfg.c ****     
  51:.\Generated_Source\PSoC4/cyfitter_cfg.c **** #else
  52:.\Generated_Source\PSoC4/cyfitter_cfg.c ****     #error Unsupported toolchain
  53:.\Generated_Source\PSoC4/cyfitter_cfg.c **** #endif
  54:.\Generated_Source\PSoC4/cyfitter_cfg.c **** 
  55:.\Generated_Source\PSoC4/cyfitter_cfg.c **** 
  56:.\Generated_Source\PSoC4/cyfitter_cfg.c **** CY_CFG_UNUSED
  57:.\Generated_Source\PSoC4/cyfitter_cfg.c **** static void CYMEMZERO(void *s, size_t n);
  58:.\Generated_Source\PSoC4/cyfitter_cfg.c **** CY_CFG_UNUSED
  59:.\Generated_Source\PSoC4/cyfitter_cfg.c **** static void CYMEMZERO(void *s, size_t n)
  60:.\Generated_Source\PSoC4/cyfitter_cfg.c **** {
  61:.\Generated_Source\PSoC4/cyfitter_cfg.c **** 	(void)memset(s, 0, n);
  62:.\Generated_Source\PSoC4/cyfitter_cfg.c **** }
  63:.\Generated_Source\PSoC4/cyfitter_cfg.c **** CY_CFG_UNUSED
  64:.\Generated_Source\PSoC4/cyfitter_cfg.c **** static void CYCONFIGCPY(void *dest, const void *src, size_t n);
  65:.\Generated_Source\PSoC4/cyfitter_cfg.c **** CY_CFG_UNUSED
  66:.\Generated_Source\PSoC4/cyfitter_cfg.c **** static void CYCONFIGCPY(void *dest, const void *src, size_t n)
  67:.\Generated_Source\PSoC4/cyfitter_cfg.c **** {
  68:.\Generated_Source\PSoC4/cyfitter_cfg.c **** 	(void)memcpy(dest, src, n);
  69:.\Generated_Source\PSoC4/cyfitter_cfg.c **** }
  70:.\Generated_Source\PSoC4/cyfitter_cfg.c **** CY_CFG_UNUSED
  71:.\Generated_Source\PSoC4/cyfitter_cfg.c **** static void CYCONFIGCPYCODE(void *dest, const void *src, size_t n);
  72:.\Generated_Source\PSoC4/cyfitter_cfg.c **** CY_CFG_UNUSED
  73:.\Generated_Source\PSoC4/cyfitter_cfg.c **** static void CYCONFIGCPYCODE(void *dest, const void *src, size_t n)
  74:.\Generated_Source\PSoC4/cyfitter_cfg.c **** {
  75:.\Generated_Source\PSoC4/cyfitter_cfg.c **** 	(void)memcpy(dest, src, n);
  76:.\Generated_Source\PSoC4/cyfitter_cfg.c **** }
  77:.\Generated_Source\PSoC4/cyfitter_cfg.c **** 
  78:.\Generated_Source\PSoC4/cyfitter_cfg.c **** 
  79:.\Generated_Source\PSoC4/cyfitter_cfg.c **** 
  80:.\Generated_Source\PSoC4/cyfitter_cfg.c **** /* Clock startup error codes                                                   */
  81:.\Generated_Source\PSoC4/cyfitter_cfg.c **** #define CYCLOCKSTART_NO_ERROR    0u
  82:.\Generated_Source\PSoC4/cyfitter_cfg.c **** #define CYCLOCKSTART_XTAL_ERROR  1u
  83:.\Generated_Source\PSoC4/cyfitter_cfg.c **** #define CYCLOCKSTART_32KHZ_ERROR 2u
  84:.\Generated_Source\PSoC4/cyfitter_cfg.c **** #define CYCLOCKSTART_PLL_ERROR   3u
  85:.\Generated_Source\PSoC4/cyfitter_cfg.c **** 
  86:.\Generated_Source\PSoC4/cyfitter_cfg.c **** #ifdef CY_NEED_CYCLOCKSTARTUPERROR
  87:.\Generated_Source\PSoC4/cyfitter_cfg.c **** /*******************************************************************************
  88:.\Generated_Source\PSoC4/cyfitter_cfg.c **** * Function Name: CyClockStartupError
  89:.\Generated_Source\PSoC4/cyfitter_cfg.c **** ********************************************************************************
ARM GAS  C:\Users\Vit\AppData\Local\Temp\ccZjam4s.s 			page 3


  90:.\Generated_Source\PSoC4/cyfitter_cfg.c **** * Summary:
  91:.\Generated_Source\PSoC4/cyfitter_cfg.c **** *  If an error is encountered during clock configuration (crystal startup error,
  92:.\Generated_Source\PSoC4/cyfitter_cfg.c **** *  PLL lock error, etc.), the system will end up here.  Unless reimplemented by
  93:.\Generated_Source\PSoC4/cyfitter_cfg.c **** *  the customer, this function will stop in an infinite loop.
  94:.\Generated_Source\PSoC4/cyfitter_cfg.c **** *
  95:.\Generated_Source\PSoC4/cyfitter_cfg.c **** * Parameters:
  96:.\Generated_Source\PSoC4/cyfitter_cfg.c **** *   void
  97:.\Generated_Source\PSoC4/cyfitter_cfg.c **** *
  98:.\Generated_Source\PSoC4/cyfitter_cfg.c **** * Return:
  99:.\Generated_Source\PSoC4/cyfitter_cfg.c **** *   void
 100:.\Generated_Source\PSoC4/cyfitter_cfg.c **** *
 101:.\Generated_Source\PSoC4/cyfitter_cfg.c **** *******************************************************************************/
 102:.\Generated_Source\PSoC4/cyfitter_cfg.c **** CY_CFG_UNUSED
 103:.\Generated_Source\PSoC4/cyfitter_cfg.c **** static void CyClockStartupError(uint8 errorCode);
 104:.\Generated_Source\PSoC4/cyfitter_cfg.c **** CY_CFG_UNUSED
 105:.\Generated_Source\PSoC4/cyfitter_cfg.c **** static void CyClockStartupError(uint8 errorCode)
 106:.\Generated_Source\PSoC4/cyfitter_cfg.c **** {
 107:.\Generated_Source\PSoC4/cyfitter_cfg.c ****     /* To remove the compiler warning if errorCode not used.                */
 108:.\Generated_Source\PSoC4/cyfitter_cfg.c ****     errorCode = errorCode;
 109:.\Generated_Source\PSoC4/cyfitter_cfg.c **** 
 110:.\Generated_Source\PSoC4/cyfitter_cfg.c ****     /* `#START CyClockStartupError` */
 111:.\Generated_Source\PSoC4/cyfitter_cfg.c **** 
 112:.\Generated_Source\PSoC4/cyfitter_cfg.c ****     /* If we have a clock startup error (bad MHz crystal, PLL lock, etc.),  */
 113:.\Generated_Source\PSoC4/cyfitter_cfg.c ****     /* we will end up here to allow the customer to implement something to  */
 114:.\Generated_Source\PSoC4/cyfitter_cfg.c ****     /* deal with the clock condition.                                       */
 115:.\Generated_Source\PSoC4/cyfitter_cfg.c **** 
 116:.\Generated_Source\PSoC4/cyfitter_cfg.c ****     /* `#END` */
 117:.\Generated_Source\PSoC4/cyfitter_cfg.c **** 
 118:.\Generated_Source\PSoC4/cyfitter_cfg.c ****     /* If nothing else, stop here since the clocks have not started         */
 119:.\Generated_Source\PSoC4/cyfitter_cfg.c ****     /* correctly.                                                           */
 120:.\Generated_Source\PSoC4/cyfitter_cfg.c ****     while(1) {}
 121:.\Generated_Source\PSoC4/cyfitter_cfg.c **** }
 122:.\Generated_Source\PSoC4/cyfitter_cfg.c **** #endif
 123:.\Generated_Source\PSoC4/cyfitter_cfg.c **** 
 124:.\Generated_Source\PSoC4/cyfitter_cfg.c **** #define CY_CFG_BASE_ADDR_COUNT 8u
 125:.\Generated_Source\PSoC4/cyfitter_cfg.c **** CYPACKED typedef struct
 126:.\Generated_Source\PSoC4/cyfitter_cfg.c **** {
 127:.\Generated_Source\PSoC4/cyfitter_cfg.c **** 	uint8 offset;
 128:.\Generated_Source\PSoC4/cyfitter_cfg.c **** 	uint8 value;
 129:.\Generated_Source\PSoC4/cyfitter_cfg.c **** } CYPACKED_ATTR cy_cfg_addrvalue_t;
 130:.\Generated_Source\PSoC4/cyfitter_cfg.c **** 
 131:.\Generated_Source\PSoC4/cyfitter_cfg.c **** 
 132:.\Generated_Source\PSoC4/cyfitter_cfg.c **** 
 133:.\Generated_Source\PSoC4/cyfitter_cfg.c **** /*******************************************************************************
 134:.\Generated_Source\PSoC4/cyfitter_cfg.c **** * Function Name: cfg_write_bytes32
 135:.\Generated_Source\PSoC4/cyfitter_cfg.c **** ********************************************************************************
 136:.\Generated_Source\PSoC4/cyfitter_cfg.c **** * Summary:
 137:.\Generated_Source\PSoC4/cyfitter_cfg.c **** *  This function is used for setting up the chip configuration areas that
 138:.\Generated_Source\PSoC4/cyfitter_cfg.c **** *  contain relatively sparse data.
 139:.\Generated_Source\PSoC4/cyfitter_cfg.c **** *
 140:.\Generated_Source\PSoC4/cyfitter_cfg.c **** * Parameters:
 141:.\Generated_Source\PSoC4/cyfitter_cfg.c **** *   void
 142:.\Generated_Source\PSoC4/cyfitter_cfg.c **** *
 143:.\Generated_Source\PSoC4/cyfitter_cfg.c **** * Return:
 144:.\Generated_Source\PSoC4/cyfitter_cfg.c **** *   void
 145:.\Generated_Source\PSoC4/cyfitter_cfg.c **** *
 146:.\Generated_Source\PSoC4/cyfitter_cfg.c **** *******************************************************************************/
ARM GAS  C:\Users\Vit\AppData\Local\Temp\ccZjam4s.s 			page 4


 147:.\Generated_Source\PSoC4/cyfitter_cfg.c **** static void cfg_write_bytes32(const uint32 addr_table[], const cy_cfg_addrvalue_t data_table[]);
 148:.\Generated_Source\PSoC4/cyfitter_cfg.c **** static void cfg_write_bytes32(const uint32 addr_table[], const cy_cfg_addrvalue_t data_table[])
 149:.\Generated_Source\PSoC4/cyfitter_cfg.c **** {
 150:.\Generated_Source\PSoC4/cyfitter_cfg.c **** 	/* For 32-bit little-endian architectures */
 151:.\Generated_Source\PSoC4/cyfitter_cfg.c **** 	uint32 i, j = 0u;
 152:.\Generated_Source\PSoC4/cyfitter_cfg.c **** 	for (i = 0u; i < CY_CFG_BASE_ADDR_COUNT; i++)
 153:.\Generated_Source\PSoC4/cyfitter_cfg.c **** 	{
 154:.\Generated_Source\PSoC4/cyfitter_cfg.c **** 		uint32 baseAddr = addr_table[i];
 155:.\Generated_Source\PSoC4/cyfitter_cfg.c **** 		uint8 count = (uint8)baseAddr;
 156:.\Generated_Source\PSoC4/cyfitter_cfg.c **** 		baseAddr &= 0xFFFFFF00u;
 157:.\Generated_Source\PSoC4/cyfitter_cfg.c **** 		while (count != 0u)
 158:.\Generated_Source\PSoC4/cyfitter_cfg.c **** 		{
 159:.\Generated_Source\PSoC4/cyfitter_cfg.c **** 			CY_SET_XTND_REG8((void CYFAR *)(baseAddr + data_table[j].offset), data_table[j].value);
 160:.\Generated_Source\PSoC4/cyfitter_cfg.c **** 			j++;
 161:.\Generated_Source\PSoC4/cyfitter_cfg.c **** 			count--;
 162:.\Generated_Source\PSoC4/cyfitter_cfg.c **** 		}
 163:.\Generated_Source\PSoC4/cyfitter_cfg.c **** 	}
 164:.\Generated_Source\PSoC4/cyfitter_cfg.c **** }
 165:.\Generated_Source\PSoC4/cyfitter_cfg.c **** 
 166:.\Generated_Source\PSoC4/cyfitter_cfg.c **** 
 167:.\Generated_Source\PSoC4/cyfitter_cfg.c **** /*******************************************************************************
 168:.\Generated_Source\PSoC4/cyfitter_cfg.c **** * Function Name: ClockSetup
 169:.\Generated_Source\PSoC4/cyfitter_cfg.c **** ********************************************************************************
 170:.\Generated_Source\PSoC4/cyfitter_cfg.c **** *
 171:.\Generated_Source\PSoC4/cyfitter_cfg.c **** * Summary:
 172:.\Generated_Source\PSoC4/cyfitter_cfg.c **** *   Performs the initialization of all of the clocks in the device based on the
 173:.\Generated_Source\PSoC4/cyfitter_cfg.c **** *   settings in the Clock tab of the DWR.  This includes enabling the requested
 174:.\Generated_Source\PSoC4/cyfitter_cfg.c **** *   clocks and setting the necessary dividers to produce the desired frequency. 
 175:.\Generated_Source\PSoC4/cyfitter_cfg.c **** *
 176:.\Generated_Source\PSoC4/cyfitter_cfg.c **** * Parameters:
 177:.\Generated_Source\PSoC4/cyfitter_cfg.c **** *   void
 178:.\Generated_Source\PSoC4/cyfitter_cfg.c **** *
 179:.\Generated_Source\PSoC4/cyfitter_cfg.c **** * Return:
 180:.\Generated_Source\PSoC4/cyfitter_cfg.c **** *   void
 181:.\Generated_Source\PSoC4/cyfitter_cfg.c **** *
 182:.\Generated_Source\PSoC4/cyfitter_cfg.c **** *******************************************************************************/
 183:.\Generated_Source\PSoC4/cyfitter_cfg.c **** static void ClockSetup(void);
 184:.\Generated_Source\PSoC4/cyfitter_cfg.c **** CY_CFG_SECTION
 185:.\Generated_Source\PSoC4/cyfitter_cfg.c **** static void ClockSetup(void)
 186:.\Generated_Source\PSoC4/cyfitter_cfg.c **** {
 187:.\Generated_Source\PSoC4/cyfitter_cfg.c **** 	/* Enable HALF_EN before trimming for the flash accelerator. */
 188:.\Generated_Source\PSoC4/cyfitter_cfg.c **** 	CY_SET_REG32((void CYXDATA *)(CYREG_CLK_SELECT), (CY_GET_REG32((void *)CYREG_CLK_SELECT) | 0x00040
 189:.\Generated_Source\PSoC4/cyfitter_cfg.c **** 
 190:.\Generated_Source\PSoC4/cyfitter_cfg.c **** 	/* Setup and trim IMO based on desired frequency. */
 191:.\Generated_Source\PSoC4/cyfitter_cfg.c **** 	CySysClkWriteImoFreq(24u);
 192:.\Generated_Source\PSoC4/cyfitter_cfg.c **** 
 193:.\Generated_Source\PSoC4/cyfitter_cfg.c **** 	/* Disable HALF_EN since it is not required at this IMO frequency. */
 194:.\Generated_Source\PSoC4/cyfitter_cfg.c **** 	CY_SET_REG32((void CYXDATA *)(CYREG_CLK_SELECT), (CY_GET_REG32((void *)CYREG_CLK_SELECT) & 0xFFFBF
 195:.\Generated_Source\PSoC4/cyfitter_cfg.c **** 	/* CYDEV_CLK_ILO_CONFIG Starting address: CYDEV_CLK_ILO_CONFIG */
 196:.\Generated_Source\PSoC4/cyfitter_cfg.c **** 	CY_SET_XTND_REG32((void CYFAR *)(CYREG_CLK_ILO_CONFIG), 0x80000006u);
 197:.\Generated_Source\PSoC4/cyfitter_cfg.c **** 
 198:.\Generated_Source\PSoC4/cyfitter_cfg.c **** 
 199:.\Generated_Source\PSoC4/cyfitter_cfg.c **** 	/* CYDEV_CLK_SELECT00 Starting address: CYDEV_CLK_SELECT00 */
 200:.\Generated_Source\PSoC4/cyfitter_cfg.c **** 	CY_SET_XTND_REG32((void CYFAR *)(CYREG_CLK_SELECT03), 0x00000020u);
 201:.\Generated_Source\PSoC4/cyfitter_cfg.c **** 	CY_SET_XTND_REG32((void CYFAR *)(CYREG_CLK_SELECT07), 0x00000030u);
 202:.\Generated_Source\PSoC4/cyfitter_cfg.c **** 	CY_SET_XTND_REG32((void CYFAR *)(CYREG_CLK_SELECT08), 0x00000010u);
 203:.\Generated_Source\PSoC4/cyfitter_cfg.c **** 
ARM GAS  C:\Users\Vit\AppData\Local\Temp\ccZjam4s.s 			page 5


 204:.\Generated_Source\PSoC4/cyfitter_cfg.c **** 	/* CYDEV_CLK_IMO_CONFIG Starting address: CYDEV_CLK_IMO_CONFIG */
 205:.\Generated_Source\PSoC4/cyfitter_cfg.c **** 	CY_SET_XTND_REG32((void CYFAR *)(CYREG_CLK_IMO_CONFIG), 0x82000000u);
 206:.\Generated_Source\PSoC4/cyfitter_cfg.c **** 
 207:.\Generated_Source\PSoC4/cyfitter_cfg.c **** 	/* CYDEV_CLK_SELECT Starting address: CYDEV_CLK_SELECT */
 208:.\Generated_Source\PSoC4/cyfitter_cfg.c **** 	CY_SET_XTND_REG32((void CYFAR *)(CYREG_CLK_SELECT), 0x00040001u);
 209:.\Generated_Source\PSoC4/cyfitter_cfg.c **** 
 210:.\Generated_Source\PSoC4/cyfitter_cfg.c **** 	/* CYDEV_CLK_DIVIDER_A00 Starting address: CYDEV_CLK_DIVIDER_A00 */
 211:.\Generated_Source\PSoC4/cyfitter_cfg.c **** 	CY_SET_XTND_REG32((void CYFAR *)(CYREG_CLK_DIVIDER_A00), 0x80000003u);
 212:.\Generated_Source\PSoC4/cyfitter_cfg.c **** 
 213:.\Generated_Source\PSoC4/cyfitter_cfg.c **** 	/* CYDEV_CLK_DIVIDER_B00 Starting address: CYDEV_CLK_DIVIDER_B00 */
 214:.\Generated_Source\PSoC4/cyfitter_cfg.c **** 	CY_SET_XTND_REG32((void CYFAR *)(CYREG_CLK_DIVIDER_B00), 0x80000007u);
 215:.\Generated_Source\PSoC4/cyfitter_cfg.c **** 
 216:.\Generated_Source\PSoC4/cyfitter_cfg.c **** 	/* CYDEV_CLK_DIVIDER_C00 Starting address: CYDEV_CLK_DIVIDER_C00 */
 217:.\Generated_Source\PSoC4/cyfitter_cfg.c **** 	CY_SET_XTND_REG32((void CYFAR *)(CYREG_CLK_DIVIDER_C00), 0x8000001Fu);
 218:.\Generated_Source\PSoC4/cyfitter_cfg.c **** 
 219:.\Generated_Source\PSoC4/cyfitter_cfg.c **** 	/* CYDEV_CLK_DIVIDER_A01 Starting address: CYDEV_CLK_DIVIDER_A01 */
 220:.\Generated_Source\PSoC4/cyfitter_cfg.c **** 	CY_SET_XTND_REG32((void CYFAR *)(CYREG_CLK_DIVIDER_A01), 0x8000BB7Fu);
 221:.\Generated_Source\PSoC4/cyfitter_cfg.c **** 
 222:.\Generated_Source\PSoC4/cyfitter_cfg.c **** 	(void)CyIntSetVector(9u, &CySysWdtIsr);
 223:.\Generated_Source\PSoC4/cyfitter_cfg.c **** 	CyIntEnable(9u);
 224:.\Generated_Source\PSoC4/cyfitter_cfg.c **** 	CY_SET_XTND_REG32((void CYFAR *)(CYREG_WDT_CONFIG), 0x00000000u);
 225:.\Generated_Source\PSoC4/cyfitter_cfg.c **** }
 226:.\Generated_Source\PSoC4/cyfitter_cfg.c **** 
 227:.\Generated_Source\PSoC4/cyfitter_cfg.c **** 
 228:.\Generated_Source\PSoC4/cyfitter_cfg.c **** /* Analog API Functions */
 229:.\Generated_Source\PSoC4/cyfitter_cfg.c **** 
 230:.\Generated_Source\PSoC4/cyfitter_cfg.c **** 
 231:.\Generated_Source\PSoC4/cyfitter_cfg.c **** /*******************************************************************************
 232:.\Generated_Source\PSoC4/cyfitter_cfg.c **** * Function Name: AnalogSetDefault
 233:.\Generated_Source\PSoC4/cyfitter_cfg.c **** ********************************************************************************
 234:.\Generated_Source\PSoC4/cyfitter_cfg.c **** *
 235:.\Generated_Source\PSoC4/cyfitter_cfg.c **** * Summary:
 236:.\Generated_Source\PSoC4/cyfitter_cfg.c **** *  Sets up the analog portions of the chip to default values based on chip
 237:.\Generated_Source\PSoC4/cyfitter_cfg.c **** *  configuration options from the project.
 238:.\Generated_Source\PSoC4/cyfitter_cfg.c **** *
 239:.\Generated_Source\PSoC4/cyfitter_cfg.c **** * Parameters:
 240:.\Generated_Source\PSoC4/cyfitter_cfg.c **** *  void
 241:.\Generated_Source\PSoC4/cyfitter_cfg.c **** *
 242:.\Generated_Source\PSoC4/cyfitter_cfg.c **** * Return:
 243:.\Generated_Source\PSoC4/cyfitter_cfg.c **** *  void
 244:.\Generated_Source\PSoC4/cyfitter_cfg.c **** *
 245:.\Generated_Source\PSoC4/cyfitter_cfg.c **** *******************************************************************************/
 246:.\Generated_Source\PSoC4/cyfitter_cfg.c **** static void AnalogSetDefault(void);
 247:.\Generated_Source\PSoC4/cyfitter_cfg.c **** static void AnalogSetDefault(void)
 248:.\Generated_Source\PSoC4/cyfitter_cfg.c **** {
 249:.\Generated_Source\PSoC4/cyfitter_cfg.c **** 	CY_SET_XTND_REG32((void CYFAR *)CYREG_SAR_MUX_SWITCH0, 0x00000002u);
 250:.\Generated_Source\PSoC4/cyfitter_cfg.c **** 	SetAnalogRoutingPumps(1);
 251:.\Generated_Source\PSoC4/cyfitter_cfg.c **** }
 252:.\Generated_Source\PSoC4/cyfitter_cfg.c **** 
 253:.\Generated_Source\PSoC4/cyfitter_cfg.c **** 
 254:.\Generated_Source\PSoC4/cyfitter_cfg.c **** /*******************************************************************************
 255:.\Generated_Source\PSoC4/cyfitter_cfg.c **** * Function Name: SetAnalogRoutingPumps
 256:.\Generated_Source\PSoC4/cyfitter_cfg.c **** ********************************************************************************
 257:.\Generated_Source\PSoC4/cyfitter_cfg.c **** *
 258:.\Generated_Source\PSoC4/cyfitter_cfg.c **** * Summary:
 259:.\Generated_Source\PSoC4/cyfitter_cfg.c **** * Enables or disables the analog pumps feeding analog routing switches.
 260:.\Generated_Source\PSoC4/cyfitter_cfg.c **** * Intended to be called at startup, based on the Vdda system configuration;
ARM GAS  C:\Users\Vit\AppData\Local\Temp\ccZjam4s.s 			page 6


 261:.\Generated_Source\PSoC4/cyfitter_cfg.c **** * may be called during operation when the user informs us that the Vdda voltage crossed the pump th
 262:.\Generated_Source\PSoC4/cyfitter_cfg.c **** *
 263:.\Generated_Source\PSoC4/cyfitter_cfg.c **** * Parameters:
 264:.\Generated_Source\PSoC4/cyfitter_cfg.c **** *  enabled - 1 to enable the pumps, 0 to disable the pumps
 265:.\Generated_Source\PSoC4/cyfitter_cfg.c **** *
 266:.\Generated_Source\PSoC4/cyfitter_cfg.c **** * Return:
 267:.\Generated_Source\PSoC4/cyfitter_cfg.c **** *  void
 268:.\Generated_Source\PSoC4/cyfitter_cfg.c **** *
 269:.\Generated_Source\PSoC4/cyfitter_cfg.c **** *******************************************************************************/
 270:.\Generated_Source\PSoC4/cyfitter_cfg.c **** void SetAnalogRoutingPumps(uint8 enabled)
 271:.\Generated_Source\PSoC4/cyfitter_cfg.c **** {
  26              		.loc 1 271 0
  27              		.cfi_startproc
  28              	.LVL0:
 272:.\Generated_Source\PSoC4/cyfitter_cfg.c **** 	uint32 regValue = CY_GET_XTND_REG32((void *)(CYREG_SAR_PUMP_CTRL));
  29              		.loc 1 272 0
  30 0000 054A     		ldr	r2, .L5
  31 0002 1368     		ldr	r3, [r2]
  32              	.LVL1:
 273:.\Generated_Source\PSoC4/cyfitter_cfg.c **** 	if (enabled != 0u)
  33              		.loc 1 273 0
  34 0004 0028     		cmp	r0, #0
  35 0006 03D0     		beq	.L2
 274:.\Generated_Source\PSoC4/cyfitter_cfg.c **** 	{
 275:.\Generated_Source\PSoC4/cyfitter_cfg.c **** 		regValue |= 0x80000000u;
  36              		.loc 1 275 0
  37 0008 8021     		mov	r1, #128
  38 000a 0906     		lsl	r1, r1, #24
  39 000c 0B43     		orr	r3, r1
  40              	.LVL2:
  41 000e 01E0     		b	.L3
  42              	.L2:
 276:.\Generated_Source\PSoC4/cyfitter_cfg.c **** 	}
 277:.\Generated_Source\PSoC4/cyfitter_cfg.c **** 	else
 278:.\Generated_Source\PSoC4/cyfitter_cfg.c **** 	{
 279:.\Generated_Source\PSoC4/cyfitter_cfg.c **** 		regValue &= ~0x80000000u;
  43              		.loc 1 279 0
  44 0010 5B00     		lsl	r3, r3, #1
  45              	.LVL3:
  46 0012 5B08     		lsr	r3, r3, #1
  47              	.LVL4:
  48              	.L3:
 280:.\Generated_Source\PSoC4/cyfitter_cfg.c **** 	}
 281:.\Generated_Source\PSoC4/cyfitter_cfg.c **** 	CY_SET_XTND_REG32((void *)(CYREG_SAR_PUMP_CTRL), regValue);
  49              		.loc 1 281 0
  50 0014 1360     		str	r3, [r2]
 282:.\Generated_Source\PSoC4/cyfitter_cfg.c **** }
  51              		.loc 1 282 0
  52              		@ sp needed
  53 0016 7047     		bx	lr
  54              	.L6:
  55              		.align	2
  56              	.L5:
  57 0018 80031A40 		.word	1075446656
  58              		.cfi_endproc
  59              	.LFE6:
  60              		.size	SetAnalogRoutingPumps, .-SetAnalogRoutingPumps
ARM GAS  C:\Users\Vit\AppData\Local\Temp\ccZjam4s.s 			page 7


  61              		.section	.psocinit,"ax",%progbits
  62              		.align	1
  63              		.global	cyfitter_cfg
  64              		.code	16
  65              		.thumb_func
  66              		.type	cyfitter_cfg, %function
  67              	cyfitter_cfg:
  68              	.LFB7:
 283:.\Generated_Source\PSoC4/cyfitter_cfg.c **** 
 284:.\Generated_Source\PSoC4/cyfitter_cfg.c **** #define CY_AMUX_UNUSED CYREG_CM0_ROM_DWT
 285:.\Generated_Source\PSoC4/cyfitter_cfg.c **** 
 286:.\Generated_Source\PSoC4/cyfitter_cfg.c **** 
 287:.\Generated_Source\PSoC4/cyfitter_cfg.c **** /*******************************************************************************
 288:.\Generated_Source\PSoC4/cyfitter_cfg.c **** * Function Name: cyfitter_cfg
 289:.\Generated_Source\PSoC4/cyfitter_cfg.c **** ********************************************************************************
 290:.\Generated_Source\PSoC4/cyfitter_cfg.c **** * Summary:
 291:.\Generated_Source\PSoC4/cyfitter_cfg.c **** *  This function is called by the start-up code for the selected device. It
 292:.\Generated_Source\PSoC4/cyfitter_cfg.c **** *  performs all of the necessary device configuration based on the design
 293:.\Generated_Source\PSoC4/cyfitter_cfg.c **** *  settings.  This includes settings from the Design Wide Resources (DWR) such
 294:.\Generated_Source\PSoC4/cyfitter_cfg.c **** *  as Clocks and Pins as well as any component configuration that is necessary.
 295:.\Generated_Source\PSoC4/cyfitter_cfg.c **** *
 296:.\Generated_Source\PSoC4/cyfitter_cfg.c **** * Parameters:  
 297:.\Generated_Source\PSoC4/cyfitter_cfg.c **** *   void
 298:.\Generated_Source\PSoC4/cyfitter_cfg.c **** *
 299:.\Generated_Source\PSoC4/cyfitter_cfg.c **** * Return:
 300:.\Generated_Source\PSoC4/cyfitter_cfg.c **** *   void
 301:.\Generated_Source\PSoC4/cyfitter_cfg.c **** *
 302:.\Generated_Source\PSoC4/cyfitter_cfg.c **** *******************************************************************************/
 303:.\Generated_Source\PSoC4/cyfitter_cfg.c **** CY_CFG_SECTION
 304:.\Generated_Source\PSoC4/cyfitter_cfg.c **** void cyfitter_cfg(void)
 305:.\Generated_Source\PSoC4/cyfitter_cfg.c **** {
  69              		.loc 1 305 0
  70              		.cfi_startproc
  71 0000 F8B5     		push	{r3, r4, r5, r6, r7, lr}
  72              		.cfi_def_cfa_offset 24
  73              		.cfi_offset 3, -24
  74              		.cfi_offset 4, -20
  75              		.cfi_offset 5, -16
  76              		.cfi_offset 6, -12
  77              		.cfi_offset 7, -8
  78              		.cfi_offset 14, -4
 306:.\Generated_Source\PSoC4/cyfitter_cfg.c **** 	/* Disable interrupts by default. Let user enable if/when they want. */
 307:.\Generated_Source\PSoC4/cyfitter_cfg.c **** 	CyGlobalIntDisable;
  79              		.loc 1 307 0
  80              	@ 307 ".\Generated_Source\PSoC4\cyfitter_cfg.c" 1
  81 0002 72B6     		CPSID   i
  82              	@ 0 "" 2
 308:.\Generated_Source\PSoC4/cyfitter_cfg.c **** 
 309:.\Generated_Source\PSoC4/cyfitter_cfg.c **** 	/* Enable the clock in the interrupt controller for the routed interrupts */
 310:.\Generated_Source\PSoC4/cyfitter_cfg.c **** 	CY_SET_REG8((void *)CYREG_UDB_UDBIF_INT_CLK_CTL, 0x01u);
  83              		.loc 1 310 0
  84              		.code	16
  85 0004 0122     		mov	r2, #1
  86 0006 574B     		ldr	r3, .L12
  87              	.LBB14:
  88              	.LBB15:
  89              	.LBB16:
ARM GAS  C:\Users\Vit\AppData\Local\Temp\ccZjam4s.s 			page 8


  90              	.LBB17:
  61:.\Generated_Source\PSoC4/cyfitter_cfg.c **** }
  91              		.loc 1 61 0
  92 0008 0021     		mov	r1, #0
  93              	.LBE17:
  94              	.LBE16:
  95              	.LBE15:
  96              	.LBE14:
  97              		.loc 1 310 0
  98 000a 1A70     		strb	r2, [r3]
  99              	.LVL5:
 100              	.LBB24:
 101              	.LBB20:
 102              	.LBB19:
 103              	.LBB18:
  61:.\Generated_Source\PSoC4/cyfitter_cfg.c **** }
 104              		.loc 1 61 0
 105 000c 8022     		mov	r2, #128
 106 000e 5648     		ldr	r0, .L12+4
 107 0010 D200     		lsl	r2, r2, #3
 108 0012 FFF7FEFF 		bl	memset
 109              	.LVL6:
 110 0016 8022     		mov	r2, #128
 111 0018 0024     		mov	r4, #0
 112 001a 5448     		ldr	r0, .L12+8
 113 001c 0021     		mov	r1, #0
 114 001e D200     		lsl	r2, r2, #3
 115 0020 FFF7FEFF 		bl	memset
 116              	.LVL7:
 117 0024 201C     		mov	r0, r4
 118              	.LVL8:
 119              	.L10:
 120              	.LBE18:
 121              	.LBE19:
 122              	.LBE20:
 123              	.LBB21:
 124              	.LBB22:
 125              	.LBB23:
 154:.\Generated_Source\PSoC4/cyfitter_cfg.c **** 		uint8 count = (uint8)baseAddr;
 126              		.loc 1 154 0
 127 0026 524A     		ldr	r2, .L12+12
 156:.\Generated_Source\PSoC4/cyfitter_cfg.c **** 		while (count != 0u)
 128              		.loc 1 156 0
 129 0028 FF25     		mov	r5, #255
 154:.\Generated_Source\PSoC4/cyfitter_cfg.c **** 		uint8 count = (uint8)baseAddr;
 130              		.loc 1 154 0
 131 002a A758     		ldr	r7, [r4, r2]
 132              	.LVL9:
 133 002c 2032     		add	r2, r2, #32
 156:.\Generated_Source\PSoC4/cyfitter_cfg.c **** 		while (count != 0u)
 134              		.loc 1 156 0
 135 002e 3E1C     		mov	r6, r7
 136 0030 111C     		mov	r1, r2
 137 0032 4300     		lsl	r3, r0, #1
 138 0034 AE43     		bic	r6, r5
 139              	.LVL10:
 140 0036 3D40     		and	r5, r7
ARM GAS  C:\Users\Vit\AppData\Local\Temp\ccZjam4s.s 			page 9


 141 0038 0133     		add	r3, r3, #1
 142 003a 4019     		add	r0, r0, r5
 143              	.LVL11:
 144 003c D318     		add	r3, r2, r3
 145 003e 4200     		lsl	r2, r0, #1
 146 0040 0132     		add	r2, r2, #1
 147 0042 8A18     		add	r2, r1, r2
 148              	.LVL12:
 149              	.L8:
 157:.\Generated_Source\PSoC4/cyfitter_cfg.c **** 		{
 150              		.loc 1 157 0
 151 0044 9342     		cmp	r3, r2
 152 0046 06D0     		beq	.L11
 153 0048 591E     		sub	r1, r3, #1
 159:.\Generated_Source\PSoC4/cyfitter_cfg.c **** 			j++;
 154              		.loc 1 159 0
 155 004a 0978     		ldrb	r1, [r1]
 156 004c 1D78     		ldrb	r5, [r3]
 157 004e 8919     		add	r1, r1, r6
 158 0050 0D70     		strb	r5, [r1]
 159 0052 0233     		add	r3, r3, #2
 160 0054 F6E7     		b	.L8
 161              	.L11:
 162              	.LVL13:
 163 0056 0434     		add	r4, r4, #4
 164              	.LBE23:
 152:.\Generated_Source\PSoC4/cyfitter_cfg.c **** 	{
 165              		.loc 1 152 0
 166 0058 202C     		cmp	r4, #32
 167 005a E4D1     		bne	.L10
 168              	.LBE22:
 169              	.LBE21:
 311:.\Generated_Source\PSoC4/cyfitter_cfg.c **** 	{
 312:.\Generated_Source\PSoC4/cyfitter_cfg.c **** 		static const uint32 CYCODE cy_cfg_addr_table[] = {
 313:.\Generated_Source\PSoC4/cyfitter_cfg.c **** 			0x400F3002u, /* Base address: 0x400F3000 Count: 2 */
 314:.\Generated_Source\PSoC4/cyfitter_cfg.c **** 			0x400F3103u, /* Base address: 0x400F3100 Count: 3 */
 315:.\Generated_Source\PSoC4/cyfitter_cfg.c **** 			0x400F3303u, /* Base address: 0x400F3300 Count: 3 */
 316:.\Generated_Source\PSoC4/cyfitter_cfg.c **** 			0x400F4005u, /* Base address: 0x400F4000 Count: 5 */
 317:.\Generated_Source\PSoC4/cyfitter_cfg.c **** 			0x400F410Au, /* Base address: 0x400F4100 Count: 10 */
 318:.\Generated_Source\PSoC4/cyfitter_cfg.c **** 			0x400F4203u, /* Base address: 0x400F4200 Count: 3 */
 319:.\Generated_Source\PSoC4/cyfitter_cfg.c **** 			0x400F430Bu, /* Base address: 0x400F4300 Count: 11 */
 320:.\Generated_Source\PSoC4/cyfitter_cfg.c **** 			0x400F6002u, /* Base address: 0x400F6000 Count: 2 */
 321:.\Generated_Source\PSoC4/cyfitter_cfg.c **** 		};
 322:.\Generated_Source\PSoC4/cyfitter_cfg.c **** 
 323:.\Generated_Source\PSoC4/cyfitter_cfg.c **** 		static const cy_cfg_addrvalue_t CYCODE cy_cfg_data_table[] = {
 324:.\Generated_Source\PSoC4/cyfitter_cfg.c **** 			{0x5Bu, 0x04u},
 325:.\Generated_Source\PSoC4/cyfitter_cfg.c **** 			{0x5Fu, 0x01u},
 326:.\Generated_Source\PSoC4/cyfitter_cfg.c **** 			{0x58u, 0x10u},
 327:.\Generated_Source\PSoC4/cyfitter_cfg.c **** 			{0x5Au, 0x40u},
 328:.\Generated_Source\PSoC4/cyfitter_cfg.c **** 			{0xD6u, 0x0Cu},
 329:.\Generated_Source\PSoC4/cyfitter_cfg.c **** 			{0xB0u, 0x10u},
 330:.\Generated_Source\PSoC4/cyfitter_cfg.c **** 			{0xB6u, 0x40u},
 331:.\Generated_Source\PSoC4/cyfitter_cfg.c **** 			{0xE0u, 0x21u},
 332:.\Generated_Source\PSoC4/cyfitter_cfg.c **** 			{0x20u, 0x08u},
 333:.\Generated_Source\PSoC4/cyfitter_cfg.c **** 			{0x24u, 0x01u},
 334:.\Generated_Source\PSoC4/cyfitter_cfg.c **** 			{0x6Fu, 0x08u},
 335:.\Generated_Source\PSoC4/cyfitter_cfg.c **** 			{0xC8u, 0x30u},
ARM GAS  C:\Users\Vit\AppData\Local\Temp\ccZjam4s.s 			page 10


 336:.\Generated_Source\PSoC4/cyfitter_cfg.c **** 			{0xDAu, 0x80u},
 337:.\Generated_Source\PSoC4/cyfitter_cfg.c **** 			{0x22u, 0x20u},
 338:.\Generated_Source\PSoC4/cyfitter_cfg.c **** 			{0x80u, 0x01u},
 339:.\Generated_Source\PSoC4/cyfitter_cfg.c **** 			{0x86u, 0x20u},
 340:.\Generated_Source\PSoC4/cyfitter_cfg.c **** 			{0x87u, 0x08u},
 341:.\Generated_Source\PSoC4/cyfitter_cfg.c **** 			{0x88u, 0x04u},
 342:.\Generated_Source\PSoC4/cyfitter_cfg.c **** 			{0x90u, 0x01u},
 343:.\Generated_Source\PSoC4/cyfitter_cfg.c **** 			{0xA0u, 0x04u},
 344:.\Generated_Source\PSoC4/cyfitter_cfg.c **** 			{0xA7u, 0x08u},
 345:.\Generated_Source\PSoC4/cyfitter_cfg.c **** 			{0xC8u, 0x10u},
 346:.\Generated_Source\PSoC4/cyfitter_cfg.c **** 			{0xE0u, 0x80u},
 347:.\Generated_Source\PSoC4/cyfitter_cfg.c **** 			{0x09u, 0x04u},
 348:.\Generated_Source\PSoC4/cyfitter_cfg.c **** 			{0x0Du, 0x01u},
 349:.\Generated_Source\PSoC4/cyfitter_cfg.c **** 			{0xC2u, 0x0Cu},
 350:.\Generated_Source\PSoC4/cyfitter_cfg.c **** 			{0x5Bu, 0x04u},
 351:.\Generated_Source\PSoC4/cyfitter_cfg.c **** 			{0x64u, 0x80u},
 352:.\Generated_Source\PSoC4/cyfitter_cfg.c **** 			{0x83u, 0x04u},
 353:.\Generated_Source\PSoC4/cyfitter_cfg.c **** 			{0x88u, 0x80u},
 354:.\Generated_Source\PSoC4/cyfitter_cfg.c **** 			{0xB1u, 0x01u},
 355:.\Generated_Source\PSoC4/cyfitter_cfg.c **** 			{0xB5u, 0x04u},
 356:.\Generated_Source\PSoC4/cyfitter_cfg.c **** 			{0xD6u, 0x02u},
 357:.\Generated_Source\PSoC4/cyfitter_cfg.c **** 			{0xD8u, 0x01u},
 358:.\Generated_Source\PSoC4/cyfitter_cfg.c **** 			{0xE0u, 0x04u},
 359:.\Generated_Source\PSoC4/cyfitter_cfg.c **** 			{0xEAu, 0x04u},
 360:.\Generated_Source\PSoC4/cyfitter_cfg.c **** 			{0xEEu, 0x02u},
 361:.\Generated_Source\PSoC4/cyfitter_cfg.c **** 			{0x02u, 0x01u},
 362:.\Generated_Source\PSoC4/cyfitter_cfg.c **** 			{0x11u, 0x01u},
 363:.\Generated_Source\PSoC4/cyfitter_cfg.c **** 		};
 364:.\Generated_Source\PSoC4/cyfitter_cfg.c **** 
 365:.\Generated_Source\PSoC4/cyfitter_cfg.c **** 
 366:.\Generated_Source\PSoC4/cyfitter_cfg.c **** 
 367:.\Generated_Source\PSoC4/cyfitter_cfg.c **** 		CYPACKED typedef struct {
 368:.\Generated_Source\PSoC4/cyfitter_cfg.c **** 			void CYFAR *address;
 369:.\Generated_Source\PSoC4/cyfitter_cfg.c **** 			uint16 size;
 370:.\Generated_Source\PSoC4/cyfitter_cfg.c **** 		} CYPACKED_ATTR cfg_memset_t;
 371:.\Generated_Source\PSoC4/cyfitter_cfg.c **** 
 372:.\Generated_Source\PSoC4/cyfitter_cfg.c **** 		static const cfg_memset_t CYCODE cfg_memset_list [] = {
 373:.\Generated_Source\PSoC4/cyfitter_cfg.c **** 			/* address, size */
 374:.\Generated_Source\PSoC4/cyfitter_cfg.c **** 			{(void CYFAR *)(CYDEV_UDB_P0_U0_BASE), 1024u},
 375:.\Generated_Source\PSoC4/cyfitter_cfg.c **** 			{(void CYFAR *)(CYDEV_UDB_DSI0_BASE), 1024u},
 376:.\Generated_Source\PSoC4/cyfitter_cfg.c **** 		};
 377:.\Generated_Source\PSoC4/cyfitter_cfg.c **** 
 378:.\Generated_Source\PSoC4/cyfitter_cfg.c **** 		uint8 CYDATA i;
 379:.\Generated_Source\PSoC4/cyfitter_cfg.c **** 
 380:.\Generated_Source\PSoC4/cyfitter_cfg.c **** 		/* Zero out critical memory blocks before beginning configuration */
 381:.\Generated_Source\PSoC4/cyfitter_cfg.c **** 		for (i = 0u; i < (sizeof(cfg_memset_list)/sizeof(cfg_memset_list[0])); i++)
 382:.\Generated_Source\PSoC4/cyfitter_cfg.c **** 		{
 383:.\Generated_Source\PSoC4/cyfitter_cfg.c **** 			const cfg_memset_t CYCODE * CYDATA ms = &cfg_memset_list[i];
 384:.\Generated_Source\PSoC4/cyfitter_cfg.c **** 			CYMEMZERO(ms->address, (size_t)(uint32)(ms->size));
 385:.\Generated_Source\PSoC4/cyfitter_cfg.c **** 		}
 386:.\Generated_Source\PSoC4/cyfitter_cfg.c **** 
 387:.\Generated_Source\PSoC4/cyfitter_cfg.c **** 		cfg_write_bytes32(cy_cfg_addr_table, cy_cfg_data_table);
 388:.\Generated_Source\PSoC4/cyfitter_cfg.c **** 
 389:.\Generated_Source\PSoC4/cyfitter_cfg.c **** 		/* HSIOM Starting address: CYDEV_HSIOM_BASE */
 390:.\Generated_Source\PSoC4/cyfitter_cfg.c **** 		CY_SET_XTND_REG32((void CYFAR *)(CYDEV_HSIOM_BASE), 0x08EE0000u);
 170              		.loc 1 390 0
 171 005c 454A     		ldr	r2, .L12+16
ARM GAS  C:\Users\Vit\AppData\Local\Temp\ccZjam4s.s 			page 11


 172 005e 464B     		ldr	r3, .L12+20
 391:.\Generated_Source\PSoC4/cyfitter_cfg.c **** 		CY_SET_XTND_REG32((void CYFAR *)(CYREG_HSIOM_PORT_SEL3), 0x0033EE00u);
 392:.\Generated_Source\PSoC4/cyfitter_cfg.c **** 
 393:.\Generated_Source\PSoC4/cyfitter_cfg.c **** 		/* UDB_PA_0 Starting address: CYDEV_UDB_PA0_BASE */
 394:.\Generated_Source\PSoC4/cyfitter_cfg.c **** 		CY_SET_XTND_REG32((void CYFAR *)(CYDEV_UDB_PA0_BASE), 0x00990000u);
 395:.\Generated_Source\PSoC4/cyfitter_cfg.c **** 		CY_SET_XTND_REG32((void CYFAR *)(CYREG_UDB_PA0_CFG4), 0x80000000u);
 173              		.loc 1 395 0
 174 0060 8021     		mov	r1, #128
 390:.\Generated_Source\PSoC4/cyfitter_cfg.c **** 		CY_SET_XTND_REG32((void CYFAR *)(CYREG_HSIOM_PORT_SEL3), 0x0033EE00u);
 175              		.loc 1 390 0
 176 0062 1A60     		str	r2, [r3]
 391:.\Generated_Source\PSoC4/cyfitter_cfg.c **** 		CY_SET_XTND_REG32((void CYFAR *)(CYREG_HSIOM_PORT_SEL3), 0x0033EE00u);
 177              		.loc 1 391 0
 178 0064 454A     		ldr	r2, .L12+24
 179 0066 464B     		ldr	r3, .L12+28
 180              		.loc 1 395 0
 181 0068 0906     		lsl	r1, r1, #24
 391:.\Generated_Source\PSoC4/cyfitter_cfg.c **** 		CY_SET_XTND_REG32((void CYFAR *)(CYREG_HSIOM_PORT_SEL3), 0x0033EE00u);
 182              		.loc 1 391 0
 183 006a 1A60     		str	r2, [r3]
 394:.\Generated_Source\PSoC4/cyfitter_cfg.c **** 		CY_SET_XTND_REG32((void CYFAR *)(CYREG_UDB_PA0_CFG4), 0x80000000u);
 184              		.loc 1 394 0
 185 006c 9923     		mov	r3, #153
 186 006e 454A     		ldr	r2, .L12+32
 187 0070 1B04     		lsl	r3, r3, #16
 188 0072 1360     		str	r3, [r2]
 189              		.loc 1 395 0
 190 0074 444A     		ldr	r2, .L12+36
 396:.\Generated_Source\PSoC4/cyfitter_cfg.c **** 
 397:.\Generated_Source\PSoC4/cyfitter_cfg.c **** 		/* UDB_PA_1 Starting address: CYDEV_UDB_PA1_BASE */
 398:.\Generated_Source\PSoC4/cyfitter_cfg.c **** 		CY_SET_XTND_REG32((void CYFAR *)(CYDEV_UDB_PA1_BASE), 0x00990000u);
 399:.\Generated_Source\PSoC4/cyfitter_cfg.c **** 
 400:.\Generated_Source\PSoC4/cyfitter_cfg.c **** 		/* UDB_PA_2 Starting address: CYDEV_UDB_PA2_BASE */
 401:.\Generated_Source\PSoC4/cyfitter_cfg.c **** 		CY_SET_XTND_REG32((void CYFAR *)(CYDEV_UDB_PA2_BASE), 0x00990004u);
 402:.\Generated_Source\PSoC4/cyfitter_cfg.c **** 		CY_SET_XTND_REG32((void CYFAR *)(CYREG_UDB_PA2_CFG4), 0x0A000000u);
 403:.\Generated_Source\PSoC4/cyfitter_cfg.c **** 
 404:.\Generated_Source\PSoC4/cyfitter_cfg.c **** 		/* UDB_PA_3 Starting address: CYDEV_UDB_PA3_BASE */
 405:.\Generated_Source\PSoC4/cyfitter_cfg.c **** 		CY_SET_XTND_REG32((void CYFAR *)(CYDEV_UDB_PA3_BASE), 0x00990000u);
 406:.\Generated_Source\PSoC4/cyfitter_cfg.c **** 		CY_SET_XTND_REG32((void CYFAR *)(CYREG_UDB_PA3_CFG8), 0x03000000u);
 407:.\Generated_Source\PSoC4/cyfitter_cfg.c **** 
 408:.\Generated_Source\PSoC4/cyfitter_cfg.c **** 		/* INT_SELECT Starting address: CYDEV_CPUSS_INTR_SELECT */
 409:.\Generated_Source\PSoC4/cyfitter_cfg.c **** 		CY_SET_XTND_REG32((void CYFAR *)(CYREG_CPUSS_INTR_SELECT), 0x00000001u);
 410:.\Generated_Source\PSoC4/cyfitter_cfg.c **** 
 411:.\Generated_Source\PSoC4/cyfitter_cfg.c **** 		/* Enable digital routing */
 412:.\Generated_Source\PSoC4/cyfitter_cfg.c **** 		CY_SET_XTND_REG8((void *)CYREG_UDB_UDBIF_BANK_CTL, CY_GET_XTND_REG8((void *)CYREG_UDB_UDBIF_BANK_
 191              		.loc 1 412 0
 192 0076 0226     		mov	r6, #2
 193              	.LVL14:
 395:.\Generated_Source\PSoC4/cyfitter_cfg.c **** 
 194              		.loc 1 395 0
 195 0078 1160     		str	r1, [r2]
 398:.\Generated_Source\PSoC4/cyfitter_cfg.c **** 
 196              		.loc 1 398 0
 197 007a 444A     		ldr	r2, .L12+40
 401:.\Generated_Source\PSoC4/cyfitter_cfg.c **** 		CY_SET_XTND_REG32((void CYFAR *)(CYREG_UDB_PA2_CFG4), 0x0A000000u);
 198              		.loc 1 401 0
 199 007c 4449     		ldr	r1, .L12+44
ARM GAS  C:\Users\Vit\AppData\Local\Temp\ccZjam4s.s 			page 12


 398:.\Generated_Source\PSoC4/cyfitter_cfg.c **** 
 200              		.loc 1 398 0
 201 007e 1360     		str	r3, [r2]
 401:.\Generated_Source\PSoC4/cyfitter_cfg.c **** 		CY_SET_XTND_REG32((void CYFAR *)(CYREG_UDB_PA2_CFG4), 0x0A000000u);
 202              		.loc 1 401 0
 203 0080 444A     		ldr	r2, .L12+48
 413:.\Generated_Source\PSoC4/cyfitter_cfg.c **** 
 414:.\Generated_Source\PSoC4/cyfitter_cfg.c **** 		/* Enable UDB array */
 415:.\Generated_Source\PSoC4/cyfitter_cfg.c **** 		CY_SET_XTND_REG8((void *)CYREG_UDB_UDBIF_WAIT_CFG, (uint8)((CY_GET_XTND_REG8((void *)CYREG_UDB_UD
 204              		.loc 1 415 0
 205 0082 3C20     		mov	r0, #60
 206              	.LVL15:
 401:.\Generated_Source\PSoC4/cyfitter_cfg.c **** 		CY_SET_XTND_REG32((void CYFAR *)(CYREG_UDB_PA2_CFG4), 0x0A000000u);
 207              		.loc 1 401 0
 208 0084 1160     		str	r1, [r2]
 402:.\Generated_Source\PSoC4/cyfitter_cfg.c **** 
 209              		.loc 1 402 0
 210 0086 A021     		mov	r1, #160
 211 0088 434A     		ldr	r2, .L12+52
 212 008a 0905     		lsl	r1, r1, #20
 213 008c 1160     		str	r1, [r2]
 405:.\Generated_Source\PSoC4/cyfitter_cfg.c **** 		CY_SET_XTND_REG32((void CYFAR *)(CYREG_UDB_PA3_CFG8), 0x03000000u);
 214              		.loc 1 405 0
 215 008e 434A     		ldr	r2, .L12+56
 216              		.loc 1 415 0
 217 0090 4349     		ldr	r1, .L12+60
 405:.\Generated_Source\PSoC4/cyfitter_cfg.c **** 		CY_SET_XTND_REG32((void CYFAR *)(CYREG_UDB_PA3_CFG8), 0x03000000u);
 218              		.loc 1 405 0
 219 0092 1360     		str	r3, [r2]
 406:.\Generated_Source\PSoC4/cyfitter_cfg.c **** 
 220              		.loc 1 406 0
 221 0094 C022     		mov	r2, #192
 222 0096 434B     		ldr	r3, .L12+64
 223 0098 9204     		lsl	r2, r2, #18
 224 009a 1A60     		str	r2, [r3]
 409:.\Generated_Source\PSoC4/cyfitter_cfg.c **** 
 225              		.loc 1 409 0
 226 009c 0122     		mov	r2, #1
 227 009e 424B     		ldr	r3, .L12+68
 228              	.LBE24:
 416:.\Generated_Source\PSoC4/cyfitter_cfg.c **** 		CY_SET_XTND_REG8((void *)CYREG_UDB_UDBIF_BANK_CTL, (uint8)(CY_GET_XTND_REG8((void *)CYREG_UDB_UDB
 417:.\Generated_Source\PSoC4/cyfitter_cfg.c **** 	}
 418:.\Generated_Source\PSoC4/cyfitter_cfg.c **** 
 419:.\Generated_Source\PSoC4/cyfitter_cfg.c **** 	/* Perform second pass device configuration. These items must be configured in specific order afte
 420:.\Generated_Source\PSoC4/cyfitter_cfg.c **** 	/* IOPINS0_0 Starting address: CYDEV_PRT0_BASE */
 421:.\Generated_Source\PSoC4/cyfitter_cfg.c **** 	CY_SET_XTND_REG32((void CYFAR *)(CYDEV_PRT0_BASE), 0x00000030u);
 229              		.loc 1 421 0
 230 00a0 3027     		mov	r7, #48
 231              	.LVL16:
 232              	.LBB25:
 409:.\Generated_Source\PSoC4/cyfitter_cfg.c **** 
 233              		.loc 1 409 0
 234 00a2 1A60     		str	r2, [r3]
 412:.\Generated_Source\PSoC4/cyfitter_cfg.c **** 
 235              		.loc 1 412 0
 236 00a4 414A     		ldr	r2, .L12+72
 237              	.LBE25:
ARM GAS  C:\Users\Vit\AppData\Local\Temp\ccZjam4s.s 			page 13


 238              	.LBB26:
 239              	.LBB27:
 188:.\Generated_Source\PSoC4/cyfitter_cfg.c **** 
 240              		.loc 1 188 0
 241 00a6 424D     		ldr	r5, .L12+76
 242              	.LBE27:
 243              	.LBE26:
 244              	.LBB31:
 412:.\Generated_Source\PSoC4/cyfitter_cfg.c **** 
 245              		.loc 1 412 0
 246 00a8 1378     		ldrb	r3, [r2]
 247              	.LBE31:
 422:.\Generated_Source\PSoC4/cyfitter_cfg.c **** 	CY_SET_XTND_REG32((void CYFAR *)(CYREG_PRT0_PC), 0x00264000u);
 423:.\Generated_Source\PSoC4/cyfitter_cfg.c **** 
 424:.\Generated_Source\PSoC4/cyfitter_cfg.c **** 	/* IOPINS0_1 Starting address: CYDEV_PRT1_BASE */
 425:.\Generated_Source\PSoC4/cyfitter_cfg.c **** 	CY_SET_XTND_REG32((void CYFAR *)(CYREG_PRT1_PC), 0x00000180u);
 426:.\Generated_Source\PSoC4/cyfitter_cfg.c **** 
 427:.\Generated_Source\PSoC4/cyfitter_cfg.c **** 	/* IOPINS0_2 Starting address: CYDEV_PRT2_BASE */
 428:.\Generated_Source\PSoC4/cyfitter_cfg.c **** 	CY_SET_XTND_REG32((void CYFAR *)(CYDEV_PRT2_BASE), 0x00000032u);
 429:.\Generated_Source\PSoC4/cyfitter_cfg.c **** 	CY_SET_XTND_REG32((void CYFAR *)(CYREG_PRT2_PC), 0x00012C00u);
 430:.\Generated_Source\PSoC4/cyfitter_cfg.c **** 	CY_SET_XTND_REG32((void CYFAR *)(CYREG_PRT2_PC2), 0x00000002u);
 431:.\Generated_Source\PSoC4/cyfitter_cfg.c **** 
 432:.\Generated_Source\PSoC4/cyfitter_cfg.c **** 	/* IOPINS0_3 Starting address: CYDEV_PRT3_BASE */
 433:.\Generated_Source\PSoC4/cyfitter_cfg.c **** 	CY_SET_XTND_REG32((void CYFAR *)(CYDEV_PRT3_BASE), 0x00000030u);
 434:.\Generated_Source\PSoC4/cyfitter_cfg.c **** 	CY_SET_XTND_REG32((void CYFAR *)(CYREG_PRT3_PC), 0x00036D80u);
 435:.\Generated_Source\PSoC4/cyfitter_cfg.c **** 
 436:.\Generated_Source\PSoC4/cyfitter_cfg.c **** 	/* Setup clocks based on selections from Clock DWR */
 437:.\Generated_Source\PSoC4/cyfitter_cfg.c **** 	ClockSetup();
 438:.\Generated_Source\PSoC4/cyfitter_cfg.c **** 
 439:.\Generated_Source\PSoC4/cyfitter_cfg.c **** 	/* Perform basic analog initialization to defaults */
 440:.\Generated_Source\PSoC4/cyfitter_cfg.c **** 	AnalogSetDefault();
 441:.\Generated_Source\PSoC4/cyfitter_cfg.c **** 
 442:.\Generated_Source\PSoC4/cyfitter_cfg.c **** }
 248              		.loc 1 442 0
 249              		@ sp needed
 250              	.LBB32:
 412:.\Generated_Source\PSoC4/cyfitter_cfg.c **** 
 251              		.loc 1 412 0
 252 00aa 3343     		orr	r3, r6
 253 00ac 1370     		strb	r3, [r2]
 415:.\Generated_Source\PSoC4/cyfitter_cfg.c **** 		CY_SET_XTND_REG8((void *)CYREG_UDB_UDBIF_BANK_CTL, (uint8)(CY_GET_XTND_REG8((void *)CYREG_UDB_UDB
 254              		.loc 1 415 0
 255 00ae 0B78     		ldrb	r3, [r1]
 256 00b0 8343     		bic	r3, r0
 257 00b2 2838     		sub	r0, r0, #40
 258 00b4 0343     		orr	r3, r0
 259 00b6 0B70     		strb	r3, [r1]
 416:.\Generated_Source\PSoC4/cyfitter_cfg.c **** 	}
 260              		.loc 1 416 0
 261 00b8 1621     		mov	r1, #22
 262 00ba 1378     		ldrb	r3, [r2]
 263              	.LBE32:
 264              	.LBB33:
 265              	.LBB28:
 191:.\Generated_Source\PSoC4/cyfitter_cfg.c **** 
 266              		.loc 1 191 0
 267 00bc 0430     		add	r0, r0, #4
ARM GAS  C:\Users\Vit\AppData\Local\Temp\ccZjam4s.s 			page 14


 268              	.LBE28:
 269              	.LBE33:
 270              	.LBB34:
 416:.\Generated_Source\PSoC4/cyfitter_cfg.c **** 	}
 271              		.loc 1 416 0
 272 00be 0B43     		orr	r3, r1
 273 00c0 1370     		strb	r3, [r2]
 274              	.LBE34:
 422:.\Generated_Source\PSoC4/cyfitter_cfg.c **** 
 275              		.loc 1 422 0
 276 00c2 9922     		mov	r2, #153
 421:.\Generated_Source\PSoC4/cyfitter_cfg.c **** 	CY_SET_XTND_REG32((void CYFAR *)(CYREG_PRT0_PC), 0x00264000u);
 277              		.loc 1 421 0
 278 00c4 3B4B     		ldr	r3, .L12+80
 422:.\Generated_Source\PSoC4/cyfitter_cfg.c **** 
 279              		.loc 1 422 0
 280 00c6 9203     		lsl	r2, r2, #14
 421:.\Generated_Source\PSoC4/cyfitter_cfg.c **** 	CY_SET_XTND_REG32((void CYFAR *)(CYREG_PRT0_PC), 0x00264000u);
 281              		.loc 1 421 0
 282 00c8 1F60     		str	r7, [r3]
 422:.\Generated_Source\PSoC4/cyfitter_cfg.c **** 
 283              		.loc 1 422 0
 284 00ca 3B4B     		ldr	r3, .L12+84
 285 00cc 1A60     		str	r2, [r3]
 425:.\Generated_Source\PSoC4/cyfitter_cfg.c **** 
 286              		.loc 1 425 0
 287 00ce C022     		mov	r2, #192
 288 00d0 3A4B     		ldr	r3, .L12+88
 289 00d2 5200     		lsl	r2, r2, #1
 290 00d4 1A60     		str	r2, [r3]
 428:.\Generated_Source\PSoC4/cyfitter_cfg.c **** 	CY_SET_XTND_REG32((void CYFAR *)(CYREG_PRT2_PC), 0x00012C00u);
 291              		.loc 1 428 0
 292 00d6 3A4B     		ldr	r3, .L12+92
 293 00d8 4F3A     		sub	r2, r2, #79
 294 00da FF3A     		sub	r2, r2, #255
 295 00dc 1A60     		str	r2, [r3]
 429:.\Generated_Source\PSoC4/cyfitter_cfg.c **** 	CY_SET_XTND_REG32((void CYFAR *)(CYREG_PRT2_PC2), 0x00000002u);
 296              		.loc 1 429 0
 297 00de 9622     		mov	r2, #150
 298 00e0 384B     		ldr	r3, .L12+96
 299 00e2 5202     		lsl	r2, r2, #9
 300 00e4 1A60     		str	r2, [r3]
 430:.\Generated_Source\PSoC4/cyfitter_cfg.c **** 
 301              		.loc 1 430 0
 302 00e6 384B     		ldr	r3, .L12+100
 434:.\Generated_Source\PSoC4/cyfitter_cfg.c **** 
 303              		.loc 1 434 0
 304 00e8 384A     		ldr	r2, .L12+104
 430:.\Generated_Source\PSoC4/cyfitter_cfg.c **** 
 305              		.loc 1 430 0
 306 00ea 1E60     		str	r6, [r3]
 433:.\Generated_Source\PSoC4/cyfitter_cfg.c **** 	CY_SET_XTND_REG32((void CYFAR *)(CYREG_PRT3_PC), 0x00036D80u);
 307              		.loc 1 433 0
 308 00ec 384B     		ldr	r3, .L12+108
 309 00ee 1F60     		str	r7, [r3]
 434:.\Generated_Source\PSoC4/cyfitter_cfg.c **** 
 310              		.loc 1 434 0
ARM GAS  C:\Users\Vit\AppData\Local\Temp\ccZjam4s.s 			page 15


 311 00f0 384B     		ldr	r3, .L12+112
 312 00f2 1A60     		str	r2, [r3]
 313              	.LBB35:
 314              	.LBB29:
 188:.\Generated_Source\PSoC4/cyfitter_cfg.c **** 
 315              		.loc 1 188 0
 316 00f4 8022     		mov	r2, #128
 317 00f6 2B68     		ldr	r3, [r5]
 318 00f8 D202     		lsl	r2, r2, #11
 319 00fa 1343     		orr	r3, r2
 320 00fc 2B60     		str	r3, [r5]
 191:.\Generated_Source\PSoC4/cyfitter_cfg.c **** 
 321              		.loc 1 191 0
 322 00fe FFF7FEFF 		bl	CySysClkWriteImoFreq
 323              	.LVL17:
 194:.\Generated_Source\PSoC4/cyfitter_cfg.c **** 	/* CYDEV_CLK_ILO_CONFIG Starting address: CYDEV_CLK_ILO_CONFIG */
 324              		.loc 1 194 0
 325 0102 2A68     		ldr	r2, [r5]
 326 0104 344B     		ldr	r3, .L12+116
 222:.\Generated_Source\PSoC4/cyfitter_cfg.c **** 	CyIntEnable(9u);
 327              		.loc 1 222 0
 328 0106 3549     		ldr	r1, .L12+120
 194:.\Generated_Source\PSoC4/cyfitter_cfg.c **** 	/* CYDEV_CLK_ILO_CONFIG Starting address: CYDEV_CLK_ILO_CONFIG */
 329              		.loc 1 194 0
 330 0108 1340     		and	r3, r2
 331 010a 2B60     		str	r3, [r5]
 196:.\Generated_Source\PSoC4/cyfitter_cfg.c **** 
 332              		.loc 1 196 0
 333 010c 344A     		ldr	r2, .L12+124
 334 010e 354B     		ldr	r3, .L12+128
 222:.\Generated_Source\PSoC4/cyfitter_cfg.c **** 	CyIntEnable(9u);
 335              		.loc 1 222 0
 336 0110 0920     		mov	r0, #9
 196:.\Generated_Source\PSoC4/cyfitter_cfg.c **** 
 337              		.loc 1 196 0
 338 0112 1A60     		str	r2, [r3]
 202:.\Generated_Source\PSoC4/cyfitter_cfg.c **** 
 339              		.loc 1 202 0
 340 0114 1022     		mov	r2, #16
 200:.\Generated_Source\PSoC4/cyfitter_cfg.c **** 	CY_SET_XTND_REG32((void CYFAR *)(CYREG_CLK_SELECT07), 0x00000030u);
 341              		.loc 1 200 0
 342 0116 344B     		ldr	r3, .L12+132
 343 0118 1C60     		str	r4, [r3]
 201:.\Generated_Source\PSoC4/cyfitter_cfg.c **** 	CY_SET_XTND_REG32((void CYFAR *)(CYREG_CLK_SELECT08), 0x00000010u);
 344              		.loc 1 201 0
 345 011a 344B     		ldr	r3, .L12+136
 346 011c 1F60     		str	r7, [r3]
 202:.\Generated_Source\PSoC4/cyfitter_cfg.c **** 
 347              		.loc 1 202 0
 348 011e 344B     		ldr	r3, .L12+140
 349 0120 1A60     		str	r2, [r3]
 205:.\Generated_Source\PSoC4/cyfitter_cfg.c **** 
 350              		.loc 1 205 0
 351 0122 8222     		mov	r2, #130
 352 0124 334B     		ldr	r3, .L12+144
 353 0126 1206     		lsl	r2, r2, #24
 354 0128 1A60     		str	r2, [r3]
ARM GAS  C:\Users\Vit\AppData\Local\Temp\ccZjam4s.s 			page 16


 208:.\Generated_Source\PSoC4/cyfitter_cfg.c **** 
 355              		.loc 1 208 0
 356 012a 334B     		ldr	r3, .L12+148
 211:.\Generated_Source\PSoC4/cyfitter_cfg.c **** 
 357              		.loc 1 211 0
 358 012c 334A     		ldr	r2, .L12+152
 208:.\Generated_Source\PSoC4/cyfitter_cfg.c **** 
 359              		.loc 1 208 0
 360 012e 2B60     		str	r3, [r5]
 211:.\Generated_Source\PSoC4/cyfitter_cfg.c **** 
 361              		.loc 1 211 0
 362 0130 334B     		ldr	r3, .L12+156
 363 0132 1A60     		str	r2, [r3]
 214:.\Generated_Source\PSoC4/cyfitter_cfg.c **** 
 364              		.loc 1 214 0
 365 0134 334A     		ldr	r2, .L12+160
 366 0136 344B     		ldr	r3, .L12+164
 367 0138 1A60     		str	r2, [r3]
 217:.\Generated_Source\PSoC4/cyfitter_cfg.c **** 
 368              		.loc 1 217 0
 369 013a 344A     		ldr	r2, .L12+168
 370 013c 344B     		ldr	r3, .L12+172
 371 013e 1A60     		str	r2, [r3]
 220:.\Generated_Source\PSoC4/cyfitter_cfg.c **** 
 372              		.loc 1 220 0
 373 0140 344A     		ldr	r2, .L12+176
 374 0142 354B     		ldr	r3, .L12+180
 375 0144 1A60     		str	r2, [r3]
 222:.\Generated_Source\PSoC4/cyfitter_cfg.c **** 	CyIntEnable(9u);
 376              		.loc 1 222 0
 377 0146 FFF7FEFF 		bl	CyIntSetVector
 378              	.LVL18:
 223:.\Generated_Source\PSoC4/cyfitter_cfg.c **** 	CY_SET_XTND_REG32((void CYFAR *)(CYREG_WDT_CONFIG), 0x00000000u);
 379              		.loc 1 223 0
 380 014a 0920     		mov	r0, #9
 381 014c FFF7FEFF 		bl	CyIntEnable
 382              	.LVL19:
 224:.\Generated_Source\PSoC4/cyfitter_cfg.c **** }
 383              		.loc 1 224 0
 384 0150 0022     		mov	r2, #0
 385 0152 324B     		ldr	r3, .L12+184
 386              	.LBE29:
 387              	.LBE35:
 388              	.LBB36:
 389              	.LBB37:
 250:.\Generated_Source\PSoC4/cyfitter_cfg.c **** }
 390              		.loc 1 250 0
 391 0154 0120     		mov	r0, #1
 392              	.LBE37:
 393              	.LBE36:
 394              	.LBB39:
 395              	.LBB30:
 224:.\Generated_Source\PSoC4/cyfitter_cfg.c **** }
 396              		.loc 1 224 0
 397 0156 1A60     		str	r2, [r3]
 398              	.LBE30:
 399              	.LBE39:
ARM GAS  C:\Users\Vit\AppData\Local\Temp\ccZjam4s.s 			page 17


 400              	.LBB40:
 401              	.LBB38:
 249:.\Generated_Source\PSoC4/cyfitter_cfg.c **** 	SetAnalogRoutingPumps(1);
 402              		.loc 1 249 0
 403 0158 314B     		ldr	r3, .L12+188
 404 015a 1E60     		str	r6, [r3]
 250:.\Generated_Source\PSoC4/cyfitter_cfg.c **** }
 405              		.loc 1 250 0
 406 015c FFF7FEFF 		bl	SetAnalogRoutingPumps
 407              	.LVL20:
 408              	.LVL21:
 409              	.LBE38:
 410              	.LBE40:
 411              		.loc 1 442 0
 412 0160 F8BD     		pop	{r3, r4, r5, r6, r7, pc}
 413              	.L13:
 414 0162 C046     		.align	2
 415              	.L12:
 416 0164 1C700F40 		.word	1074753564
 417 0168 00300F40 		.word	1074737152
 418 016c 00400F40 		.word	1074741248
 419 0170 00000000 		.word	.LANCHOR0
 420 0174 0000EE08 		.word	149815296
 421 0178 00000140 		.word	1073807360
 422 017c 00EE3300 		.word	3403264
 423 0180 0C000140 		.word	1073807372
 424 0184 00500F40 		.word	1074745344
 425 0188 04500F40 		.word	1074745348
 426 018c 10500F40 		.word	1074745360
 427 0190 04009900 		.word	10027012
 428 0194 20500F40 		.word	1074745376
 429 0198 24500F40 		.word	1074745380
 430 019c 30500F40 		.word	1074745392
 431 01a0 01700F40 		.word	1074753537
 432 01a4 38500F40 		.word	1074745400
 433 01a8 20000040 		.word	1073741856
 434 01ac 00700F40 		.word	1074753536
 435 01b0 00010B40 		.word	1074462976
 436 01b4 00000440 		.word	1074003968
 437 01b8 08000440 		.word	1074003976
 438 01bc 08010440 		.word	1074004232
 439 01c0 00020440 		.word	1074004480
 440 01c4 08020440 		.word	1074004488
 441 01c8 18020440 		.word	1074004504
 442 01cc 806D0300 		.word	224640
 443 01d0 00030440 		.word	1074004736
 444 01d4 08030440 		.word	1074004744
 445 01d8 FFFFFBFF 		.word	-262145
 446 01dc 00000000 		.word	CySysWdtIsr
 447 01e0 06000080 		.word	-2147483642
 448 01e4 04010B40 		.word	1074462980
 449 01e8 0C020240 		.word	1073873420
 450 01ec 1C020240 		.word	1073873436
 451 01f0 20020240 		.word	1073873440
 452 01f4 08010B40 		.word	1074462984
 453 01f8 01000400 		.word	262145
 454 01fc 03000080 		.word	-2147483645
ARM GAS  C:\Users\Vit\AppData\Local\Temp\ccZjam4s.s 			page 18


 455 0200 00000240 		.word	1073872896
 456 0204 07000080 		.word	-2147483641
 457 0208 40000240 		.word	1073872960
 458 020c 1F000080 		.word	-2147483617
 459 0210 80000240 		.word	1073873024
 460 0214 7FBB0080 		.word	-2147435649
 461 0218 04000240 		.word	1073872900
 462 021c 0C020B40 		.word	1074463244
 463 0220 00031A40 		.word	1075446528
 464              		.cfi_endproc
 465              	.LFE7:
 466              		.size	cyfitter_cfg, .-cyfitter_cfg
 467              		.section	.rodata
 468              		.align	2
 469              		.set	.LANCHOR0,. + 0
 470              		.type	cy_cfg_addr_table.4737, %object
 471              		.size	cy_cfg_addr_table.4737, 32
 472              	cy_cfg_addr_table.4737:
 473 0000 02300F40 		.word	1074737154
 474 0004 03310F40 		.word	1074737411
 475 0008 03330F40 		.word	1074737923
 476 000c 05400F40 		.word	1074741253
 477 0010 0A410F40 		.word	1074741514
 478 0014 03420F40 		.word	1074741763
 479 0018 0B430F40 		.word	1074742027
 480 001c 02600F40 		.word	1074749442
 481              		.type	cy_cfg_data_table.4738, %object
 482              		.size	cy_cfg_data_table.4738, 78
 483              	cy_cfg_data_table.4738:
 484 0020 5B       		.byte	91
 485 0021 04       		.byte	4
 486 0022 5F       		.byte	95
 487 0023 01       		.byte	1
 488 0024 58       		.byte	88
 489 0025 10       		.byte	16
 490 0026 5A       		.byte	90
 491 0027 40       		.byte	64
 492 0028 D6       		.byte	-42
 493 0029 0C       		.byte	12
 494 002a B0       		.byte	-80
 495 002b 10       		.byte	16
 496 002c B6       		.byte	-74
 497 002d 40       		.byte	64
 498 002e E0       		.byte	-32
 499 002f 21       		.byte	33
 500 0030 20       		.byte	32
 501 0031 08       		.byte	8
 502 0032 24       		.byte	36
 503 0033 01       		.byte	1
 504 0034 6F       		.byte	111
 505 0035 08       		.byte	8
 506 0036 C8       		.byte	-56
 507 0037 30       		.byte	48
 508 0038 DA       		.byte	-38
 509 0039 80       		.byte	-128
 510 003a 22       		.byte	34
 511 003b 20       		.byte	32
ARM GAS  C:\Users\Vit\AppData\Local\Temp\ccZjam4s.s 			page 19


 512 003c 80       		.byte	-128
 513 003d 01       		.byte	1
 514 003e 86       		.byte	-122
 515 003f 20       		.byte	32
 516 0040 87       		.byte	-121
 517 0041 08       		.byte	8
 518 0042 88       		.byte	-120
 519 0043 04       		.byte	4
 520 0044 90       		.byte	-112
 521 0045 01       		.byte	1
 522 0046 A0       		.byte	-96
 523 0047 04       		.byte	4
 524 0048 A7       		.byte	-89
 525 0049 08       		.byte	8
 526 004a C8       		.byte	-56
 527 004b 10       		.byte	16
 528 004c E0       		.byte	-32
 529 004d 80       		.byte	-128
 530 004e 09       		.byte	9
 531 004f 04       		.byte	4
 532 0050 0D       		.byte	13
 533 0051 01       		.byte	1
 534 0052 C2       		.byte	-62
 535 0053 0C       		.byte	12
 536 0054 5B       		.byte	91
 537 0055 04       		.byte	4
 538 0056 64       		.byte	100
 539 0057 80       		.byte	-128
 540 0058 83       		.byte	-125
 541 0059 04       		.byte	4
 542 005a 88       		.byte	-120
 543 005b 80       		.byte	-128
 544 005c B1       		.byte	-79
 545 005d 01       		.byte	1
 546 005e B5       		.byte	-75
 547 005f 04       		.byte	4
 548 0060 D6       		.byte	-42
 549 0061 02       		.byte	2
 550 0062 D8       		.byte	-40
 551 0063 01       		.byte	1
 552 0064 E0       		.byte	-32
 553 0065 04       		.byte	4
 554 0066 EA       		.byte	-22
 555 0067 04       		.byte	4
 556 0068 EE       		.byte	-18
 557 0069 02       		.byte	2
 558 006a 02       		.byte	2
 559 006b 01       		.byte	1
 560 006c 11       		.byte	17
 561 006d 01       		.byte	1
 562 006e 0000     		.text
 563              	.Letext0:
 564              		.file 2 "c:\\my programs\\psoc\\psoc creator\\3.3\\psoc creator\\import\\gnu\\arm\\4.9.3\\lib\\gcc
 565              		.file 3 ".\\Generated_Source\\PSoC4\\cytypes.h"
 566              		.file 4 ".\\Generated_Source\\PSoC4\\CyLib.h"