ARM GAS  C:\Users\Vit\AppData\Local\Temp\ccnJL0JJ.s 			page 1


   1              		.cpu cortex-m0
   2              		.fpu softvfp
   3              		.eabi_attribute 20, 1
   4              		.eabi_attribute 21, 1
   5              		.eabi_attribute 23, 3
   6              		.eabi_attribute 24, 1
   7              		.eabi_attribute 25, 1
   8              		.eabi_attribute 26, 1
   9              		.eabi_attribute 30, 4
  10              		.eabi_attribute 34, 0
  11              		.eabi_attribute 18, 4
  12              		.code	16
  13              		.file	"CyLFClk.c"
  14              		.text
  15              	.Ltext0:
  16              		.cfi_sections	.debug_frame
  17              		.section	.text.CySysClkIloStart,"ax",%progbits
  18              		.align	1
  19              		.global	CySysClkIloStart
  20              		.code	16
  21              		.thumb_func
  22              		.type	CySysClkIloStart, %function
  23              	CySysClkIloStart:
  24              	.LFB0:
  25              		.file 1 ".\\Generated_Source\\PSoC4\\CyLFClk.c"
   1:.\Generated_Source\PSoC4/CyLFClk.c **** /*******************************************************************************
   2:.\Generated_Source\PSoC4/CyLFClk.c **** * File Name: .c
   3:.\Generated_Source\PSoC4/CyLFClk.c **** * Version 1.0
   4:.\Generated_Source\PSoC4/CyLFClk.c **** *
   5:.\Generated_Source\PSoC4/CyLFClk.c **** * Description:
   6:.\Generated_Source\PSoC4/CyLFClk.c **** *  This file provides the source code to API for the cy_lfclk Component.
   7:.\Generated_Source\PSoC4/CyLFClk.c **** *
   8:.\Generated_Source\PSoC4/CyLFClk.c **** ********************************************************************************
   9:.\Generated_Source\PSoC4/CyLFClk.c **** * Copyright 2008-2015, Cypress Semiconductor Corporation.  All rights reserved.
  10:.\Generated_Source\PSoC4/CyLFClk.c **** * You may use this file only in accordance with the license, terms, conditions,
  11:.\Generated_Source\PSoC4/CyLFClk.c **** * disclaimers, and limitations in the end user license agreement accompanying
  12:.\Generated_Source\PSoC4/CyLFClk.c **** * the software package with which this file was provided.
  13:.\Generated_Source\PSoC4/CyLFClk.c **** *******************************************************************************/
  14:.\Generated_Source\PSoC4/CyLFClk.c **** 
  15:.\Generated_Source\PSoC4/CyLFClk.c **** 
  16:.\Generated_Source\PSoC4/CyLFClk.c **** #include "CyLFClk.h"
  17:.\Generated_Source\PSoC4/CyLFClk.c **** #include "CyLib.h"
  18:.\Generated_Source\PSoC4/CyLFClk.c **** 
  19:.\Generated_Source\PSoC4/CyLFClk.c **** 
  20:.\Generated_Source\PSoC4/CyLFClk.c **** #if (CY_IP_WCO)
  21:.\Generated_Source\PSoC4/CyLFClk.c ****     static uint32 CySysClkGetLfclkSource(void);
  22:.\Generated_Source\PSoC4/CyLFClk.c **** #endif /* (CY_IP_WCO) */
  23:.\Generated_Source\PSoC4/CyLFClk.c **** 
  24:.\Generated_Source\PSoC4/CyLFClk.c **** #if(CY_IP_SRSSV2)
  25:.\Generated_Source\PSoC4/CyLFClk.c ****     /* CySysClkLfclkPosedgeCatch() / CySysClkLfclkPosedgeRestore() */
  26:.\Generated_Source\PSoC4/CyLFClk.c ****     static uint32 lfclkPosedgeWdtCounter0Enabled = 0u;
  27:.\Generated_Source\PSoC4/CyLFClk.c ****     static uint32 lfclkPosedgeWdtCounter0Mode    = CY_SYS_WDT_MODE_NONE;
  28:.\Generated_Source\PSoC4/CyLFClk.c **** 
  29:.\Generated_Source\PSoC4/CyLFClk.c ****     static volatile uint32 disableServicedIsr = 0uL;
  30:.\Generated_Source\PSoC4/CyLFClk.c ****     static volatile uint32 wdtIsrMask = CY_SYS_WDT_COUNTER0_INT |\
  31:.\Generated_Source\PSoC4/CyLFClk.c ****                                         CY_SYS_WDT_COUNTER1_INT |\
  32:.\Generated_Source\PSoC4/CyLFClk.c ****                                         CY_SYS_WDT_COUNTER2_INT;
ARM GAS  C:\Users\Vit\AppData\Local\Temp\ccnJL0JJ.s 			page 2


  33:.\Generated_Source\PSoC4/CyLFClk.c **** 
  34:.\Generated_Source\PSoC4/CyLFClk.c ****     static const uint32 counterIntMaskTbl[CY_WDT_NUM_OF_WDT] = {CY_SYS_WDT_COUNTER0_INT,
  35:.\Generated_Source\PSoC4/CyLFClk.c ****                                                                 CY_SYS_WDT_COUNTER1_INT,
  36:.\Generated_Source\PSoC4/CyLFClk.c ****                                                                 CY_SYS_WDT_COUNTER2_INT};
  37:.\Generated_Source\PSoC4/CyLFClk.c **** 
  38:.\Generated_Source\PSoC4/CyLFClk.c ****     static void CySysClkLfclkPosedgeCatch(void);
  39:.\Generated_Source\PSoC4/CyLFClk.c ****     static void CySysClkLfclkPosedgeRestore(void);
  40:.\Generated_Source\PSoC4/CyLFClk.c **** 
  41:.\Generated_Source\PSoC4/CyLFClk.c ****     static uint32 CySysWdtLocked(void);
  42:.\Generated_Source\PSoC4/CyLFClk.c ****     static uint32 CySysClkIloEnabled(void);
  43:.\Generated_Source\PSoC4/CyLFClk.c **** #endif /* (CY_IP_SRSSV2) */
  44:.\Generated_Source\PSoC4/CyLFClk.c **** 
  45:.\Generated_Source\PSoC4/CyLFClk.c **** #if(CY_IP_SRSSV2)
  46:.\Generated_Source\PSoC4/CyLFClk.c ****     static cyWdtCallback cySysWdtCallback[CY_WDT_NUM_OF_WDT] = {(void *)0, (void *)0, (void *)0};
  47:.\Generated_Source\PSoC4/CyLFClk.c **** #else
  48:.\Generated_Source\PSoC4/CyLFClk.c ****     static cyWdtCallback cySysWdtCallback = (void *)0;
  49:.\Generated_Source\PSoC4/CyLFClk.c **** #endif /* (CY_IP_SRSSV2) */
  50:.\Generated_Source\PSoC4/CyLFClk.c **** 
  51:.\Generated_Source\PSoC4/CyLFClk.c **** /*******************************************************************************
  52:.\Generated_Source\PSoC4/CyLFClk.c **** * Function Name: CySysClkIloStart
  53:.\Generated_Source\PSoC4/CyLFClk.c **** ********************************************************************************
  54:.\Generated_Source\PSoC4/CyLFClk.c **** *
  55:.\Generated_Source\PSoC4/CyLFClk.c **** * Summary:
  56:.\Generated_Source\PSoC4/CyLFClk.c **** *  Enables ILO. Refer to the device datasheet for the ILO startup time.
  57:.\Generated_Source\PSoC4/CyLFClk.c **** *
  58:.\Generated_Source\PSoC4/CyLFClk.c **** * Parameters:
  59:.\Generated_Source\PSoC4/CyLFClk.c **** *  None
  60:.\Generated_Source\PSoC4/CyLFClk.c **** *
  61:.\Generated_Source\PSoC4/CyLFClk.c **** * Return:
  62:.\Generated_Source\PSoC4/CyLFClk.c **** *  None
  63:.\Generated_Source\PSoC4/CyLFClk.c **** *
  64:.\Generated_Source\PSoC4/CyLFClk.c **** *******************************************************************************/
  65:.\Generated_Source\PSoC4/CyLFClk.c **** void CySysClkIloStart(void)
  66:.\Generated_Source\PSoC4/CyLFClk.c **** {
  26              		.loc 1 66 0
  27              		.cfi_startproc
  67:.\Generated_Source\PSoC4/CyLFClk.c ****     CY_SYS_CLK_ILO_CONFIG_REG |= CY_SYS_CLK_ILO_CONFIG_ENABLE;
  28              		.loc 1 67 0
  29 0000 8021     		mov	r1, #128
  30 0002 034A     		ldr	r2, .L2
  31 0004 0906     		lsl	r1, r1, #24
  32 0006 1368     		ldr	r3, [r2]
  68:.\Generated_Source\PSoC4/CyLFClk.c **** }
  33              		.loc 1 68 0
  34              		@ sp needed
  67:.\Generated_Source\PSoC4/CyLFClk.c ****     CY_SYS_CLK_ILO_CONFIG_REG |= CY_SYS_CLK_ILO_CONFIG_ENABLE;
  35              		.loc 1 67 0
  36 0008 0B43     		orr	r3, r1
  37 000a 1360     		str	r3, [r2]
  38              		.loc 1 68 0
  39 000c 7047     		bx	lr
  40              	.L3:
  41 000e C046     		.align	2
  42              	.L2:
  43 0010 04010B40 		.word	1074462980
  44              		.cfi_endproc
  45              	.LFE0:
ARM GAS  C:\Users\Vit\AppData\Local\Temp\ccnJL0JJ.s 			page 3


  46              		.size	CySysClkIloStart, .-CySysClkIloStart
  47              		.section	.text.CySysWdtLock,"ax",%progbits
  48              		.align	1
  49              		.global	CySysWdtLock
  50              		.code	16
  51              		.thumb_func
  52              		.type	CySysWdtLock, %function
  53              	CySysWdtLock:
  54              	.LFB3:
  69:.\Generated_Source\PSoC4/CyLFClk.c **** 
  70:.\Generated_Source\PSoC4/CyLFClk.c **** 
  71:.\Generated_Source\PSoC4/CyLFClk.c **** /*******************************************************************************
  72:.\Generated_Source\PSoC4/CyLFClk.c **** * Function Name: CySysClkIloStop
  73:.\Generated_Source\PSoC4/CyLFClk.c **** ********************************************************************************
  74:.\Generated_Source\PSoC4/CyLFClk.c **** *
  75:.\Generated_Source\PSoC4/CyLFClk.c **** * Summary:
  76:.\Generated_Source\PSoC4/CyLFClk.c **** *  Disables ILO.
  77:.\Generated_Source\PSoC4/CyLFClk.c **** *
  78:.\Generated_Source\PSoC4/CyLFClk.c **** * Parameters:
  79:.\Generated_Source\PSoC4/CyLFClk.c **** *  None.
  80:.\Generated_Source\PSoC4/CyLFClk.c **** *
  81:.\Generated_Source\PSoC4/CyLFClk.c **** * Return:
  82:.\Generated_Source\PSoC4/CyLFClk.c **** *  None.
  83:.\Generated_Source\PSoC4/CyLFClk.c **** *
  84:.\Generated_Source\PSoC4/CyLFClk.c **** * Side Effects:
  85:.\Generated_Source\PSoC4/CyLFClk.c **** *  This function has no effect if WDT is locked (CySysWdtLock() is
  86:.\Generated_Source\PSoC4/CyLFClk.c **** *  called). Call CySysWdtUnlock() to unlock WDT and stop ILO.
  87:.\Generated_Source\PSoC4/CyLFClk.c **** *
  88:.\Generated_Source\PSoC4/CyLFClk.c **** *  PSoC 4100 / PSoC 4200: Note that ILO is required for WDT's operation.
  89:.\Generated_Source\PSoC4/CyLFClk.c **** *  ILO is required for WDT operation.
  90:.\Generated_Source\PSoC4/CyLFClk.c **** *
  91:.\Generated_Source\PSoC4/CyLFClk.c **** *  PSoC 4100-BL / PSoC 4200-BL and PSoC 4100M / PSoC 4200M:
  92:.\Generated_Source\PSoC4/CyLFClk.c **** *  Stopping ILO affects the peripheral clocked by LFCLK, if
  93:.\Generated_Source\PSoC4/CyLFClk.c **** *  LFCLK is configured to be sourced by ILO.
  94:.\Generated_Source\PSoC4/CyLFClk.c **** *
  95:.\Generated_Source\PSoC4/CyLFClk.c **** *******************************************************************************/
  96:.\Generated_Source\PSoC4/CyLFClk.c **** void CySysClkIloStop(void)
  97:.\Generated_Source\PSoC4/CyLFClk.c **** {
  98:.\Generated_Source\PSoC4/CyLFClk.c ****     #if(CY_IP_SRSSV2)
  99:.\Generated_Source\PSoC4/CyLFClk.c ****         uint8  interruptState;
 100:.\Generated_Source\PSoC4/CyLFClk.c **** 
 101:.\Generated_Source\PSoC4/CyLFClk.c ****         /* Do nothing if WDT is locked or ILO is disabled */
 102:.\Generated_Source\PSoC4/CyLFClk.c ****         if (0u == CySysWdtLocked())
 103:.\Generated_Source\PSoC4/CyLFClk.c ****         {
 104:.\Generated_Source\PSoC4/CyLFClk.c ****             if (0u != CySysClkIloEnabled())
 105:.\Generated_Source\PSoC4/CyLFClk.c ****             {
 106:.\Generated_Source\PSoC4/CyLFClk.c **** 
 107:.\Generated_Source\PSoC4/CyLFClk.c ****             #if (CY_IP_WCO)
 108:.\Generated_Source\PSoC4/CyLFClk.c ****                 if (CY_SYS_CLK_LFCLK_SRC_ILO == CySysClkGetLfclkSource())
 109:.\Generated_Source\PSoC4/CyLFClk.c ****                 {
 110:.\Generated_Source\PSoC4/CyLFClk.c ****             #endif /* (CY_IP_WCO) */
 111:.\Generated_Source\PSoC4/CyLFClk.c **** 
 112:.\Generated_Source\PSoC4/CyLFClk.c ****                 interruptState = CyEnterCriticalSection();
 113:.\Generated_Source\PSoC4/CyLFClk.c ****                 CySysClkLfclkPosedgeCatch();
 114:.\Generated_Source\PSoC4/CyLFClk.c ****                 CY_SYS_CLK_ILO_CONFIG_REG &= ( uint32 ) ( ~( uint32 )CY_SYS_CLK_ILO_CONFIG_ENABLE);
 115:.\Generated_Source\PSoC4/CyLFClk.c ****                 CySysClkLfclkPosedgeRestore();
 116:.\Generated_Source\PSoC4/CyLFClk.c ****                 CyExitCriticalSection(interruptState);
ARM GAS  C:\Users\Vit\AppData\Local\Temp\ccnJL0JJ.s 			page 4


 117:.\Generated_Source\PSoC4/CyLFClk.c **** 
 118:.\Generated_Source\PSoC4/CyLFClk.c ****             #if (CY_IP_WCO)
 119:.\Generated_Source\PSoC4/CyLFClk.c ****                 }
 120:.\Generated_Source\PSoC4/CyLFClk.c ****                 else /* Safe to disable - shortened pulse does not impact peripheral */
 121:.\Generated_Source\PSoC4/CyLFClk.c ****                 {
 122:.\Generated_Source\PSoC4/CyLFClk.c ****                     CY_SYS_CLK_ILO_CONFIG_REG &= ( uint32 ) ( ~( uint32 )CY_SYS_CLK_ILO_CONFIG_ENAB
 123:.\Generated_Source\PSoC4/CyLFClk.c ****                 }
 124:.\Generated_Source\PSoC4/CyLFClk.c ****             #endif /* (CY_IP_WCO) */
 125:.\Generated_Source\PSoC4/CyLFClk.c **** 
 126:.\Generated_Source\PSoC4/CyLFClk.c ****             }
 127:.\Generated_Source\PSoC4/CyLFClk.c ****         }
 128:.\Generated_Source\PSoC4/CyLFClk.c ****     #else
 129:.\Generated_Source\PSoC4/CyLFClk.c ****         CY_SYS_CLK_ILO_CONFIG_REG &= ( uint32 ) ( ~( uint32 )CY_SYS_CLK_ILO_CONFIG_ENABLE);
 130:.\Generated_Source\PSoC4/CyLFClk.c ****     #endif /* (CY_IP_SRSSV2) */
 131:.\Generated_Source\PSoC4/CyLFClk.c **** }
 132:.\Generated_Source\PSoC4/CyLFClk.c **** 
 133:.\Generated_Source\PSoC4/CyLFClk.c **** #if(CY_IP_SRSSV2)
 134:.\Generated_Source\PSoC4/CyLFClk.c ****     /*******************************************************************************
 135:.\Generated_Source\PSoC4/CyLFClk.c ****     * Function Name: CySysClkIloEnabled
 136:.\Generated_Source\PSoC4/CyLFClk.c ****     ********************************************************************************
 137:.\Generated_Source\PSoC4/CyLFClk.c ****     *
 138:.\Generated_Source\PSoC4/CyLFClk.c ****     * Summary:
 139:.\Generated_Source\PSoC4/CyLFClk.c ****     *  Reports the ILO enable state.
 140:.\Generated_Source\PSoC4/CyLFClk.c ****     *
 141:.\Generated_Source\PSoC4/CyLFClk.c ****     * Parameters:
 142:.\Generated_Source\PSoC4/CyLFClk.c ****     *  None.
 143:.\Generated_Source\PSoC4/CyLFClk.c ****     *
 144:.\Generated_Source\PSoC4/CyLFClk.c ****     * Return:
 145:.\Generated_Source\PSoC4/CyLFClk.c ****     *  1 if ILO is enabled, and 0 if ILO is disabled.
 146:.\Generated_Source\PSoC4/CyLFClk.c ****     *
 147:.\Generated_Source\PSoC4/CyLFClk.c ****     *******************************************************************************/
 148:.\Generated_Source\PSoC4/CyLFClk.c ****     static uint32 CySysClkIloEnabled(void)
 149:.\Generated_Source\PSoC4/CyLFClk.c ****     {
 150:.\Generated_Source\PSoC4/CyLFClk.c ****         /* Prohibits writing to WDT registers and ILO/WCO registers when not equal to 0 */
 151:.\Generated_Source\PSoC4/CyLFClk.c ****         return ((0u != (CY_SYS_CLK_ILO_CONFIG_REG & (uint32)(CY_SYS_CLK_ILO_CONFIG_ENABLE))) ?
 152:.\Generated_Source\PSoC4/CyLFClk.c ****             (uint32) 1u :
 153:.\Generated_Source\PSoC4/CyLFClk.c ****             (uint32) 0u);
 154:.\Generated_Source\PSoC4/CyLFClk.c ****     }
 155:.\Generated_Source\PSoC4/CyLFClk.c **** #endif /* (CY_IP_SRSSV2) */
 156:.\Generated_Source\PSoC4/CyLFClk.c **** 
 157:.\Generated_Source\PSoC4/CyLFClk.c **** 
 158:.\Generated_Source\PSoC4/CyLFClk.c **** /*******************************************************************************
 159:.\Generated_Source\PSoC4/CyLFClk.c **** * Function Name: CySysClkGetLfclkSource
 160:.\Generated_Source\PSoC4/CyLFClk.c **** ********************************************************************************
 161:.\Generated_Source\PSoC4/CyLFClk.c **** *
 162:.\Generated_Source\PSoC4/CyLFClk.c **** * Summary:
 163:.\Generated_Source\PSoC4/CyLFClk.c **** *  Gets the clock source for the LFCLK clock.
 164:.\Generated_Source\PSoC4/CyLFClk.c **** *  The function is applicable only for PSoC 4100-BL and PSoC 4200-BL.
 165:.\Generated_Source\PSoC4/CyLFClk.c **** *
 166:.\Generated_Source\PSoC4/CyLFClk.c **** * Parameters:
 167:.\Generated_Source\PSoC4/CyLFClk.c **** *  None.
 168:.\Generated_Source\PSoC4/CyLFClk.c **** *
 169:.\Generated_Source\PSoC4/CyLFClk.c **** * Return:
 170:.\Generated_Source\PSoC4/CyLFClk.c **** *  The LFCLK source:
 171:.\Generated_Source\PSoC4/CyLFClk.c **** *   CY_SYS_CLK_LFCLK_SRC_ILO    Internal Low Frequency (32 kHz) Oscillator (ILO)
 172:.\Generated_Source\PSoC4/CyLFClk.c **** *   CY_SYS_CLK_LFCLK_SRC_WCO    Low Frequency Watch Crystal Oscillator (WCO)
 173:.\Generated_Source\PSoC4/CyLFClk.c **** *
ARM GAS  C:\Users\Vit\AppData\Local\Temp\ccnJL0JJ.s 			page 5


 174:.\Generated_Source\PSoC4/CyLFClk.c **** *******************************************************************************/
 175:.\Generated_Source\PSoC4/CyLFClk.c **** #if (CY_IP_WCO)
 176:.\Generated_Source\PSoC4/CyLFClk.c ****     static uint32 CySysClkGetLfclkSource(void)
 177:.\Generated_Source\PSoC4/CyLFClk.c ****     {
 178:.\Generated_Source\PSoC4/CyLFClk.c ****         uint32 lfclkSource;
 179:.\Generated_Source\PSoC4/CyLFClk.c ****         lfclkSource = CY_SYS_WDT_CONFIG_REG & CY_SYS_CLK_LFCLK_SEL_MASK;
 180:.\Generated_Source\PSoC4/CyLFClk.c ****         return (lfclkSource);
 181:.\Generated_Source\PSoC4/CyLFClk.c ****     }
 182:.\Generated_Source\PSoC4/CyLFClk.c **** #endif /* (CY_IP_WCO) */
 183:.\Generated_Source\PSoC4/CyLFClk.c **** 
 184:.\Generated_Source\PSoC4/CyLFClk.c **** 
 185:.\Generated_Source\PSoC4/CyLFClk.c **** /*******************************************************************************
 186:.\Generated_Source\PSoC4/CyLFClk.c **** * Function Name: CySysClkSetLfclkSource
 187:.\Generated_Source\PSoC4/CyLFClk.c **** ********************************************************************************
 188:.\Generated_Source\PSoC4/CyLFClk.c **** *
 189:.\Generated_Source\PSoC4/CyLFClk.c **** * Summary:
 190:.\Generated_Source\PSoC4/CyLFClk.c **** *  Sets the clock source for the LFCLK clock.
 191:.\Generated_Source\PSoC4/CyLFClk.c **** *
 192:.\Generated_Source\PSoC4/CyLFClk.c **** *  The switch between LFCLK sources must be done between the positive edges of
 193:.\Generated_Source\PSoC4/CyLFClk.c **** *  LFCLK, because the glitch risk is around the LFCLK positive edge. To ensure
 194:.\Generated_Source\PSoC4/CyLFClk.c **** *  that the switch can be done safely, the WDT counter value is read until it
 195:.\Generated_Source\PSoC4/CyLFClk.c **** *  changes.
 196:.\Generated_Source\PSoC4/CyLFClk.c **** *
 197:.\Generated_Source\PSoC4/CyLFClk.c **** *  That means that the positive edge just finished and the switch is performed.
 198:.\Generated_Source\PSoC4/CyLFClk.c **** *  The enabled WDT counter is used for that purpose. If no counters are enabled,
 199:.\Generated_Source\PSoC4/CyLFClk.c **** *  counter 0 is enabled. And after the LFCLK source is switched, counter 0
 200:.\Generated_Source\PSoC4/CyLFClk.c **** *  configuration is restored.
 201:.\Generated_Source\PSoC4/CyLFClk.c **** *
 202:.\Generated_Source\PSoC4/CyLFClk.c **** *  The function is applicable only for PSoC 4100-BL and PSoC 4200-BL.
 203:.\Generated_Source\PSoC4/CyLFClk.c **** *
 204:.\Generated_Source\PSoC4/CyLFClk.c **** * Parameters:
 205:.\Generated_Source\PSoC4/CyLFClk.c **** *  source: One of the available LFCLK sources.
 206:.\Generated_Source\PSoC4/CyLFClk.c **** *   CY_SYS_CLK_LFCLK_SRC_ILO    Internal Low Frequency (32 kHz) Oscillator (ILO)
 207:.\Generated_Source\PSoC4/CyLFClk.c **** *   CY_SYS_CLK_LFCLK_SRC_WCO    Low Frequency Watch Crystal Oscillator (WCO)
 208:.\Generated_Source\PSoC4/CyLFClk.c **** *
 209:.\Generated_Source\PSoC4/CyLFClk.c **** * Return:
 210:.\Generated_Source\PSoC4/CyLFClk.c **** *  None
 211:.\Generated_Source\PSoC4/CyLFClk.c **** *
 212:.\Generated_Source\PSoC4/CyLFClk.c **** * Side Effects:
 213:.\Generated_Source\PSoC4/CyLFClk.c **** *  This function has no effect if WDT is locked (CySysWdtLock() is
 214:.\Generated_Source\PSoC4/CyLFClk.c **** *  called). Call CySysWdtUnlock() to unlock WDT.
 215:.\Generated_Source\PSoC4/CyLFClk.c **** *
 216:.\Generated_Source\PSoC4/CyLFClk.c **** *  Both the current source and the new source must be running and stable before
 217:.\Generated_Source\PSoC4/CyLFClk.c **** *  calling this function.
 218:.\Generated_Source\PSoC4/CyLFClk.c **** *
 219:.\Generated_Source\PSoC4/CyLFClk.c **** *  Changing the LFCLK clock source may change the LFCLK clock frequency and
 220:.\Generated_Source\PSoC4/CyLFClk.c **** *  affect the functionality that uses this clock. For example, watchdog timer
 221:.\Generated_Source\PSoC4/CyLFClk.c **** *  "uses this clock" or "this clock uses" (WDT) is clocked by LFCLK.
 222:.\Generated_Source\PSoC4/CyLFClk.c **** *
 223:.\Generated_Source\PSoC4/CyLFClk.c **** *******************************************************************************/
 224:.\Generated_Source\PSoC4/CyLFClk.c **** #if (CY_IP_WCO)
 225:.\Generated_Source\PSoC4/CyLFClk.c ****     void CySysClkSetLfclkSource(uint32 source)
 226:.\Generated_Source\PSoC4/CyLFClk.c ****     {
 227:.\Generated_Source\PSoC4/CyLFClk.c ****         uint8  interruptState;
 228:.\Generated_Source\PSoC4/CyLFClk.c **** 
 229:.\Generated_Source\PSoC4/CyLFClk.c ****         if (CySysClkGetLfclkSource() != source)
 230:.\Generated_Source\PSoC4/CyLFClk.c ****         {
ARM GAS  C:\Users\Vit\AppData\Local\Temp\ccnJL0JJ.s 			page 6


 231:.\Generated_Source\PSoC4/CyLFClk.c ****             interruptState = CyEnterCriticalSection();
 232:.\Generated_Source\PSoC4/CyLFClk.c **** 
 233:.\Generated_Source\PSoC4/CyLFClk.c ****             CySysClkLfclkPosedgeCatch();
 234:.\Generated_Source\PSoC4/CyLFClk.c **** 
 235:.\Generated_Source\PSoC4/CyLFClk.c ****             CY_SYS_WDT_CONFIG_REG = (CY_SYS_WDT_CONFIG_REG & (uint32)(~CY_SYS_CLK_LFCLK_SEL_MASK)) 
 236:.\Generated_Source\PSoC4/CyLFClk.c ****                                     (source & CY_SYS_CLK_LFCLK_SEL_MASK);
 237:.\Generated_Source\PSoC4/CyLFClk.c **** 
 238:.\Generated_Source\PSoC4/CyLFClk.c ****             CySysClkLfclkPosedgeRestore();
 239:.\Generated_Source\PSoC4/CyLFClk.c **** 
 240:.\Generated_Source\PSoC4/CyLFClk.c ****             CyExitCriticalSection(interruptState);
 241:.\Generated_Source\PSoC4/CyLFClk.c ****         }
 242:.\Generated_Source\PSoC4/CyLFClk.c ****     }
 243:.\Generated_Source\PSoC4/CyLFClk.c **** #endif /* (CY_IP_WCO) */
 244:.\Generated_Source\PSoC4/CyLFClk.c **** 
 245:.\Generated_Source\PSoC4/CyLFClk.c **** 
 246:.\Generated_Source\PSoC4/CyLFClk.c **** #if (CY_IP_WCO)
 247:.\Generated_Source\PSoC4/CyLFClk.c ****     /*******************************************************************************
 248:.\Generated_Source\PSoC4/CyLFClk.c ****     * Function Name: CySysClkWcoStart
 249:.\Generated_Source\PSoC4/CyLFClk.c ****     ********************************************************************************
 250:.\Generated_Source\PSoC4/CyLFClk.c ****     *
 251:.\Generated_Source\PSoC4/CyLFClk.c ****     * Summary:
 252:.\Generated_Source\PSoC4/CyLFClk.c ****     *  Enables Watch Crystal Oscillator (WCO). WCO is used as a source for
 253:.\Generated_Source\PSoC4/CyLFClk.c ****     *  LFCLK.  Similar to ILO, WCO is also available in all modes except Hibernate
 254:.\Generated_Source\PSoC4/CyLFClk.c ****     *  and Stop modes.
 255:.\Generated_Source\PSoC4/CyLFClk.c ****     *
 256:.\Generated_Source\PSoC4/CyLFClk.c ****     *  WCO is always enabled in High Power Mode (HPM). Refer to the device
 257:.\Generated_Source\PSoC4/CyLFClk.c ****     *  datasheet for the  WCO startup time. Once WCO becomes stable it can be
 258:.\Generated_Source\PSoC4/CyLFClk.c ****     *  switched to Low Power Mode (LPM). Note that oscillator can be unstable
 259:.\Generated_Source\PSoC4/CyLFClk.c ****     *  during a switch and hence its output should not be used at that moment.
 260:.\Generated_Source\PSoC4/CyLFClk.c ****     *
 261:.\Generated_Source\PSoC4/CyLFClk.c ****     *  The CySysClkWcoSetPowerMode() function configures the WCO power mode.
 262:.\Generated_Source\PSoC4/CyLFClk.c ****     *
 263:.\Generated_Source\PSoC4/CyLFClk.c ****     * Parameters:
 264:.\Generated_Source\PSoC4/CyLFClk.c ****     *  None.
 265:.\Generated_Source\PSoC4/CyLFClk.c ****     *
 266:.\Generated_Source\PSoC4/CyLFClk.c ****     * Return:
 267:.\Generated_Source\PSoC4/CyLFClk.c ****     *  None.
 268:.\Generated_Source\PSoC4/CyLFClk.c ****     *
 269:.\Generated_Source\PSoC4/CyLFClk.c ****     *******************************************************************************/
 270:.\Generated_Source\PSoC4/CyLFClk.c ****     void CySysClkWcoStart(void)
 271:.\Generated_Source\PSoC4/CyLFClk.c ****     {
 272:.\Generated_Source\PSoC4/CyLFClk.c ****         CySysClkWcoSetHighPowerMode();
 273:.\Generated_Source\PSoC4/CyLFClk.c ****         CY_SYS_CLK_WCO_CONFIG_REG |= CY_SYS_CLK_WCO_CONFIG_LPM_ENABLE;
 274:.\Generated_Source\PSoC4/CyLFClk.c ****     }
 275:.\Generated_Source\PSoC4/CyLFClk.c **** 
 276:.\Generated_Source\PSoC4/CyLFClk.c **** 
 277:.\Generated_Source\PSoC4/CyLFClk.c ****     /*******************************************************************************
 278:.\Generated_Source\PSoC4/CyLFClk.c ****     * Function Name: CySysClkWcoStop
 279:.\Generated_Source\PSoC4/CyLFClk.c ****     ********************************************************************************
 280:.\Generated_Source\PSoC4/CyLFClk.c ****     *
 281:.\Generated_Source\PSoC4/CyLFClk.c ****     * Summary:
 282:.\Generated_Source\PSoC4/CyLFClk.c ****     *  Disables the 32KHz Crystal Oscillator.
 283:.\Generated_Source\PSoC4/CyLFClk.c ****     *
 284:.\Generated_Source\PSoC4/CyLFClk.c ****     * Parameters:
 285:.\Generated_Source\PSoC4/CyLFClk.c ****     *  None.
 286:.\Generated_Source\PSoC4/CyLFClk.c ****     *
 287:.\Generated_Source\PSoC4/CyLFClk.c ****     * Return:
ARM GAS  C:\Users\Vit\AppData\Local\Temp\ccnJL0JJ.s 			page 7


 288:.\Generated_Source\PSoC4/CyLFClk.c ****     *  None.
 289:.\Generated_Source\PSoC4/CyLFClk.c ****     *
 290:.\Generated_Source\PSoC4/CyLFClk.c ****     *******************************************************************************/
 291:.\Generated_Source\PSoC4/CyLFClk.c ****     void  CySysClkWcoStop(void)
 292:.\Generated_Source\PSoC4/CyLFClk.c ****     {
 293:.\Generated_Source\PSoC4/CyLFClk.c ****         uint8  interruptState;
 294:.\Generated_Source\PSoC4/CyLFClk.c **** 
 295:.\Generated_Source\PSoC4/CyLFClk.c ****         if (0u != CySysClkWcoEnabled())
 296:.\Generated_Source\PSoC4/CyLFClk.c ****         {
 297:.\Generated_Source\PSoC4/CyLFClk.c **** 
 298:.\Generated_Source\PSoC4/CyLFClk.c ****             if (CY_SYS_CLK_LFCLK_SRC_WCO == CySysClkGetLfclkSource())
 299:.\Generated_Source\PSoC4/CyLFClk.c ****             {
 300:.\Generated_Source\PSoC4/CyLFClk.c ****                 interruptState = CyEnterCriticalSection();
 301:.\Generated_Source\PSoC4/CyLFClk.c ****                 CySysClkLfclkPosedgeCatch();
 302:.\Generated_Source\PSoC4/CyLFClk.c ****                 CY_SYS_CLK_WCO_CONFIG_REG &= (uint32) ~CY_SYS_CLK_WCO_CONFIG_LPM_ENABLE;
 303:.\Generated_Source\PSoC4/CyLFClk.c ****                 CySysClkLfclkPosedgeRestore();
 304:.\Generated_Source\PSoC4/CyLFClk.c ****                 CyExitCriticalSection(interruptState);
 305:.\Generated_Source\PSoC4/CyLFClk.c ****             }
 306:.\Generated_Source\PSoC4/CyLFClk.c ****             else /* Safe to disable - shortened pulse does not impact peripheral */
 307:.\Generated_Source\PSoC4/CyLFClk.c ****             {
 308:.\Generated_Source\PSoC4/CyLFClk.c ****                 CY_SYS_CLK_WCO_CONFIG_REG &= (uint32) ~CY_SYS_CLK_WCO_CONFIG_LPM_ENABLE;
 309:.\Generated_Source\PSoC4/CyLFClk.c ****             }
 310:.\Generated_Source\PSoC4/CyLFClk.c ****         } /* Otherwise do nothing. WCO configuration cannot be changed. */
 311:.\Generated_Source\PSoC4/CyLFClk.c ****     }
 312:.\Generated_Source\PSoC4/CyLFClk.c **** 
 313:.\Generated_Source\PSoC4/CyLFClk.c **** 
 314:.\Generated_Source\PSoC4/CyLFClk.c ****     /*******************************************************************************
 315:.\Generated_Source\PSoC4/CyLFClk.c ****     * Function Name: CySysClkWcoEnabled
 316:.\Generated_Source\PSoC4/CyLFClk.c ****     ********************************************************************************
 317:.\Generated_Source\PSoC4/CyLFClk.c ****     *
 318:.\Generated_Source\PSoC4/CyLFClk.c ****     * Summary:
 319:.\Generated_Source\PSoC4/CyLFClk.c ****     *  Reports the WCO enable state.
 320:.\Generated_Source\PSoC4/CyLFClk.c ****     *
 321:.\Generated_Source\PSoC4/CyLFClk.c ****     * Parameters:
 322:.\Generated_Source\PSoC4/CyLFClk.c ****     *  None.
 323:.\Generated_Source\PSoC4/CyLFClk.c ****     *
 324:.\Generated_Source\PSoC4/CyLFClk.c ****     * Return:
 325:.\Generated_Source\PSoC4/CyLFClk.c ****     *  1 if WCO is enabled, and 0 if WCO is disabled.
 326:.\Generated_Source\PSoC4/CyLFClk.c ****     *
 327:.\Generated_Source\PSoC4/CyLFClk.c ****     *******************************************************************************/
 328:.\Generated_Source\PSoC4/CyLFClk.c ****     uint32 CySysClkWcoEnabled(void)
 329:.\Generated_Source\PSoC4/CyLFClk.c ****     {
 330:.\Generated_Source\PSoC4/CyLFClk.c ****         return ((0u != (CY_SYS_CLK_WCO_CONFIG_REG & (uint32)(CY_SYS_CLK_WCO_CONFIG_LPM_ENABLE))) ?
 331:.\Generated_Source\PSoC4/CyLFClk.c ****                 (uint32) 1u :
 332:.\Generated_Source\PSoC4/CyLFClk.c ****                 (uint32) 0u);
 333:.\Generated_Source\PSoC4/CyLFClk.c ****     }
 334:.\Generated_Source\PSoC4/CyLFClk.c **** 
 335:.\Generated_Source\PSoC4/CyLFClk.c **** 
 336:.\Generated_Source\PSoC4/CyLFClk.c ****     /*******************************************************************************
 337:.\Generated_Source\PSoC4/CyLFClk.c ****     * Function Name: CySysClkWcoSetPowerMode
 338:.\Generated_Source\PSoC4/CyLFClk.c ****     ********************************************************************************
 339:.\Generated_Source\PSoC4/CyLFClk.c ****     *
 340:.\Generated_Source\PSoC4/CyLFClk.c ****     * Summary:
 341:.\Generated_Source\PSoC4/CyLFClk.c ****     *  Sets the power mode for the 32 KHz WCO.
 342:.\Generated_Source\PSoC4/CyLFClk.c ****     *
 343:.\Generated_Source\PSoC4/CyLFClk.c ****     * Parameters:
 344:.\Generated_Source\PSoC4/CyLFClk.c ****     *  uint32 mode:
ARM GAS  C:\Users\Vit\AppData\Local\Temp\ccnJL0JJ.s 			page 8


 345:.\Generated_Source\PSoC4/CyLFClk.c ****     *   CY_SYS_CLK_WCO_HPM  - The High Power mode
 346:.\Generated_Source\PSoC4/CyLFClk.c ****     *   CY_SYS_CLK_WCO_LPM  - The Low Power mode(not applicable for
 347:.\Generated_Source\PSoC4/CyLFClk.c ****     *                         PSoC 4100M / PSoC 4200M devices)
 348:.\Generated_Source\PSoC4/CyLFClk.c ****     *
 349:.\Generated_Source\PSoC4/CyLFClk.c ****     * Return:
 350:.\Generated_Source\PSoC4/CyLFClk.c ****     *  A previous power mode. The same as the parameters.
 351:.\Generated_Source\PSoC4/CyLFClk.c ****     *
 352:.\Generated_Source\PSoC4/CyLFClk.c ****     * Note:
 353:.\Generated_Source\PSoC4/CyLFClk.c ****     *  The WCO Low power mode is not applicable for the PSoC 4100M/PSoC 4200M
 354:.\Generated_Source\PSoC4/CyLFClk.c ****     *  devices.
 355:.\Generated_Source\PSoC4/CyLFClk.c ****     *
 356:.\Generated_Source\PSoC4/CyLFClk.c ****     *******************************************************************************/
 357:.\Generated_Source\PSoC4/CyLFClk.c ****     uint32 CySysClkWcoSetPowerMode(uint32 mode)
 358:.\Generated_Source\PSoC4/CyLFClk.c ****     {
 359:.\Generated_Source\PSoC4/CyLFClk.c ****         uint32 status;
 360:.\Generated_Source\PSoC4/CyLFClk.c **** 
 361:.\Generated_Source\PSoC4/CyLFClk.c ****         status = CY_SYS_CLK_WCO_CONFIG_REG & CY_SYS_CLK_WCO_CONFIG_LPM_EN;
 362:.\Generated_Source\PSoC4/CyLFClk.c **** 
 363:.\Generated_Source\PSoC4/CyLFClk.c ****         switch(mode)
 364:.\Generated_Source\PSoC4/CyLFClk.c ****         {
 365:.\Generated_Source\PSoC4/CyLFClk.c ****         case CY_SYS_CLK_WCO_HPM:
 366:.\Generated_Source\PSoC4/CyLFClk.c ****                 CySysClkWcoSetHighPowerMode();
 367:.\Generated_Source\PSoC4/CyLFClk.c ****             break;
 368:.\Generated_Source\PSoC4/CyLFClk.c **** 
 369:.\Generated_Source\PSoC4/CyLFClk.c ****         #if(!CY_PSOC4_4100M && !CY_PSOC4_4200M)
 370:.\Generated_Source\PSoC4/CyLFClk.c ****             case CY_SYS_CLK_WCO_LPM:
 371:.\Generated_Source\PSoC4/CyLFClk.c ****                     CySysClkWcoSetLowPowerMode();
 372:.\Generated_Source\PSoC4/CyLFClk.c ****                 break;
 373:.\Generated_Source\PSoC4/CyLFClk.c ****         #endif /* (!CY_PSOC4_4100M && !CY_PSOC4_4200M) */
 374:.\Generated_Source\PSoC4/CyLFClk.c **** 
 375:.\Generated_Source\PSoC4/CyLFClk.c ****         default:
 376:.\Generated_Source\PSoC4/CyLFClk.c ****             CYASSERT(0u != 0u);
 377:.\Generated_Source\PSoC4/CyLFClk.c ****             break;
 378:.\Generated_Source\PSoC4/CyLFClk.c ****         }
 379:.\Generated_Source\PSoC4/CyLFClk.c **** 
 380:.\Generated_Source\PSoC4/CyLFClk.c ****         return (status);
 381:.\Generated_Source\PSoC4/CyLFClk.c ****     }
 382:.\Generated_Source\PSoC4/CyLFClk.c **** 
 383:.\Generated_Source\PSoC4/CyLFClk.c **** #endif  /* (CY_IP_WCO) */
 384:.\Generated_Source\PSoC4/CyLFClk.c **** 
 385:.\Generated_Source\PSoC4/CyLFClk.c **** 
 386:.\Generated_Source\PSoC4/CyLFClk.c **** #if(CY_IP_SRSSV2)
 387:.\Generated_Source\PSoC4/CyLFClk.c **** 
 388:.\Generated_Source\PSoC4/CyLFClk.c **** 
 389:.\Generated_Source\PSoC4/CyLFClk.c ****     /*******************************************************************************
 390:.\Generated_Source\PSoC4/CyLFClk.c ****     * Function Name: CySysWdtLock
 391:.\Generated_Source\PSoC4/CyLFClk.c ****     ********************************************************************************
 392:.\Generated_Source\PSoC4/CyLFClk.c ****     *
 393:.\Generated_Source\PSoC4/CyLFClk.c ****     * Summary:
 394:.\Generated_Source\PSoC4/CyLFClk.c ****     *  Locks out configuration changes to the Watchdog timer registers and ILO
 395:.\Generated_Source\PSoC4/CyLFClk.c ****     *  configuration register.
 396:.\Generated_Source\PSoC4/CyLFClk.c ****     *
 397:.\Generated_Source\PSoC4/CyLFClk.c ****     * Parameters:
 398:.\Generated_Source\PSoC4/CyLFClk.c ****     *  None.
 399:.\Generated_Source\PSoC4/CyLFClk.c ****     *
 400:.\Generated_Source\PSoC4/CyLFClk.c ****     * Return:
 401:.\Generated_Source\PSoC4/CyLFClk.c ****     *  None.
ARM GAS  C:\Users\Vit\AppData\Local\Temp\ccnJL0JJ.s 			page 9


 402:.\Generated_Source\PSoC4/CyLFClk.c ****     *
 403:.\Generated_Source\PSoC4/CyLFClk.c ****     * Side effects:
 404:.\Generated_Source\PSoC4/CyLFClk.c ****     *  After this function is called, ILO clock can't be disabled until
 405:.\Generated_Source\PSoC4/CyLFClk.c ****     *  CySysWdtUnlock() is called.
 406:.\Generated_Source\PSoC4/CyLFClk.c ****     *
 407:.\Generated_Source\PSoC4/CyLFClk.c ****     *******************************************************************************/
 408:.\Generated_Source\PSoC4/CyLFClk.c ****     void CySysWdtLock(void)
 409:.\Generated_Source\PSoC4/CyLFClk.c ****     {
  55              		.loc 1 409 0
  56              		.cfi_startproc
  57 0000 08B5     		push	{r3, lr}
  58              		.cfi_def_cfa_offset 8
  59              		.cfi_offset 3, -8
  60              		.cfi_offset 14, -4
 410:.\Generated_Source\PSoC4/CyLFClk.c ****         uint8 interruptState;
 411:.\Generated_Source\PSoC4/CyLFClk.c ****         interruptState = CyEnterCriticalSection();
  61              		.loc 1 411 0
  62 0002 FFF7FEFF 		bl	CyEnterCriticalSection
  63              	.LVL0:
 412:.\Generated_Source\PSoC4/CyLFClk.c **** 
 413:.\Generated_Source\PSoC4/CyLFClk.c ****         CY_SYS_CLK_SELECT_REG = (CY_SYS_CLK_SELECT_REG & (uint32)(~CY_SYS_WDT_CLK_LOCK_BITS_MASK)) 
  64              		.loc 1 413 0
  65 0006 C021     		mov	r1, #192
  66 0008 034A     		ldr	r2, .L5
  67 000a 0902     		lsl	r1, r1, #8
  68 000c 1368     		ldr	r3, [r2]
 414:.\Generated_Source\PSoC4/CyLFClk.c ****                  CY_SYS_WDT_CLK_LOCK_BITS_MASK;
 415:.\Generated_Source\PSoC4/CyLFClk.c **** 
 416:.\Generated_Source\PSoC4/CyLFClk.c ****         CyExitCriticalSection(interruptState);
 417:.\Generated_Source\PSoC4/CyLFClk.c ****     }
  69              		.loc 1 417 0
  70              		@ sp needed
 413:.\Generated_Source\PSoC4/CyLFClk.c ****                  CY_SYS_WDT_CLK_LOCK_BITS_MASK;
  71              		.loc 1 413 0
  72 000e 0B43     		orr	r3, r1
  73 0010 1360     		str	r3, [r2]
 416:.\Generated_Source\PSoC4/CyLFClk.c ****     }
  74              		.loc 1 416 0
  75 0012 FFF7FEFF 		bl	CyExitCriticalSection
  76              	.LVL1:
  77              		.loc 1 417 0
  78 0016 08BD     		pop	{r3, pc}
  79              	.L6:
  80              		.align	2
  81              	.L5:
  82 0018 00010B40 		.word	1074462976
  83              		.cfi_endproc
  84              	.LFE3:
  85              		.size	CySysWdtLock, .-CySysWdtLock
  86              		.section	.text.CySysWdtUnlock,"ax",%progbits
  87              		.align	1
  88              		.global	CySysWdtUnlock
  89              		.code	16
  90              		.thumb_func
  91              		.type	CySysWdtUnlock, %function
  92              	CySysWdtUnlock:
  93              	.LFB5:
ARM GAS  C:\Users\Vit\AppData\Local\Temp\ccnJL0JJ.s 			page 10


 418:.\Generated_Source\PSoC4/CyLFClk.c **** 
 419:.\Generated_Source\PSoC4/CyLFClk.c **** 
 420:.\Generated_Source\PSoC4/CyLFClk.c ****     /*******************************************************************************
 421:.\Generated_Source\PSoC4/CyLFClk.c ****     * Function Name: CySysWdtLocked
 422:.\Generated_Source\PSoC4/CyLFClk.c ****     ********************************************************************************
 423:.\Generated_Source\PSoC4/CyLFClk.c ****     *
 424:.\Generated_Source\PSoC4/CyLFClk.c ****     * Summary:
 425:.\Generated_Source\PSoC4/CyLFClk.c ****     *  Reports the WDT lock state.
 426:.\Generated_Source\PSoC4/CyLFClk.c ****     *
 427:.\Generated_Source\PSoC4/CyLFClk.c ****     * Parameters:
 428:.\Generated_Source\PSoC4/CyLFClk.c ****     *  None
 429:.\Generated_Source\PSoC4/CyLFClk.c ****     *
 430:.\Generated_Source\PSoC4/CyLFClk.c ****     * Return:
 431:.\Generated_Source\PSoC4/CyLFClk.c ****     *  1 - WDT is locked, and 0 - WDT is unlocked.
 432:.\Generated_Source\PSoC4/CyLFClk.c ****     *
 433:.\Generated_Source\PSoC4/CyLFClk.c ****     *******************************************************************************/
 434:.\Generated_Source\PSoC4/CyLFClk.c ****     static uint32 CySysWdtLocked(void)
 435:.\Generated_Source\PSoC4/CyLFClk.c ****     {
 436:.\Generated_Source\PSoC4/CyLFClk.c ****         /* Prohibits writing to WDT registers and ILO/WCO registers when not equal 0 */
 437:.\Generated_Source\PSoC4/CyLFClk.c ****         return ((0u != (CY_SYS_CLK_SELECT_REG & (uint32)(CY_SYS_WDT_CLK_LOCK_BITS_MASK))) ? (uint32
 438:.\Generated_Source\PSoC4/CyLFClk.c ****     }
 439:.\Generated_Source\PSoC4/CyLFClk.c **** 
 440:.\Generated_Source\PSoC4/CyLFClk.c **** 
 441:.\Generated_Source\PSoC4/CyLFClk.c ****     /*******************************************************************************
 442:.\Generated_Source\PSoC4/CyLFClk.c ****     * Function Name: CySysWdtUnlock
 443:.\Generated_Source\PSoC4/CyLFClk.c ****     ********************************************************************************
 444:.\Generated_Source\PSoC4/CyLFClk.c ****     *
 445:.\Generated_Source\PSoC4/CyLFClk.c ****     * Summary:
 446:.\Generated_Source\PSoC4/CyLFClk.c ****     *  Unlocks the Watchdog Timer configuration register.
 447:.\Generated_Source\PSoC4/CyLFClk.c ****     *
 448:.\Generated_Source\PSoC4/CyLFClk.c ****     * Parameters:
 449:.\Generated_Source\PSoC4/CyLFClk.c ****     *  None.
 450:.\Generated_Source\PSoC4/CyLFClk.c ****     *
 451:.\Generated_Source\PSoC4/CyLFClk.c ****     * Return:
 452:.\Generated_Source\PSoC4/CyLFClk.c ****     *  None.
 453:.\Generated_Source\PSoC4/CyLFClk.c ****     *
 454:.\Generated_Source\PSoC4/CyLFClk.c ****     *******************************************************************************/
 455:.\Generated_Source\PSoC4/CyLFClk.c ****     void CySysWdtUnlock(void)
 456:.\Generated_Source\PSoC4/CyLFClk.c ****     {
  94              		.loc 1 456 0
  95              		.cfi_startproc
  96 0000 10B5     		push	{r4, lr}
  97              		.cfi_def_cfa_offset 8
  98              		.cfi_offset 4, -8
  99              		.cfi_offset 14, -4
 457:.\Generated_Source\PSoC4/CyLFClk.c ****         uint8 interruptState;
 458:.\Generated_Source\PSoC4/CyLFClk.c ****         interruptState = CyEnterCriticalSection();
 459:.\Generated_Source\PSoC4/CyLFClk.c **** 
 460:.\Generated_Source\PSoC4/CyLFClk.c ****         /* Removing WDT lock requires two writes */
 461:.\Generated_Source\PSoC4/CyLFClk.c ****         CY_SYS_CLK_SELECT_REG = ((CY_SYS_CLK_SELECT_REG & (uint32)(~CY_SYS_WDT_CLK_LOCK_BITS_MASK))
 100              		.loc 1 461 0
 101 0002 8024     		mov	r4, #128
 458:.\Generated_Source\PSoC4/CyLFClk.c **** 
 102              		.loc 1 458 0
 103 0004 FFF7FEFF 		bl	CyEnterCriticalSection
 104              	.LVL2:
 105              		.loc 1 461 0
ARM GAS  C:\Users\Vit\AppData\Local\Temp\ccnJL0JJ.s 			page 11


 106 0008 0749     		ldr	r1, .L8
 107 000a 084B     		ldr	r3, .L8+4
 108 000c 0A68     		ldr	r2, [r1]
 109 000e E401     		lsl	r4, r4, #7
 110 0010 1A40     		and	r2, r3
 111 0012 2243     		orr	r2, r4
 112 0014 0A60     		str	r2, [r1]
 462:.\Generated_Source\PSoC4/CyLFClk.c ****                 CY_SYS_WDT_CLK_LOCK_BIT0);
 463:.\Generated_Source\PSoC4/CyLFClk.c **** 
 464:.\Generated_Source\PSoC4/CyLFClk.c ****         CY_SYS_CLK_SELECT_REG = ((CY_SYS_CLK_SELECT_REG & (uint32)(~CY_SYS_WDT_CLK_LOCK_BITS_MASK))
 113              		.loc 1 464 0
 114 0016 0A68     		ldr	r2, [r1]
 465:.\Generated_Source\PSoC4/CyLFClk.c ****                 CY_SYS_WDT_CLK_LOCK_BIT1);
 466:.\Generated_Source\PSoC4/CyLFClk.c **** 
 467:.\Generated_Source\PSoC4/CyLFClk.c ****         CyExitCriticalSection(interruptState);
 468:.\Generated_Source\PSoC4/CyLFClk.c ****     }
 115              		.loc 1 468 0
 116              		@ sp needed
 464:.\Generated_Source\PSoC4/CyLFClk.c ****                 CY_SYS_WDT_CLK_LOCK_BIT1);
 117              		.loc 1 464 0
 118 0018 1340     		and	r3, r2
 119 001a 8022     		mov	r2, #128
 120 001c 1202     		lsl	r2, r2, #8
 121 001e 1343     		orr	r3, r2
 122 0020 0B60     		str	r3, [r1]
 467:.\Generated_Source\PSoC4/CyLFClk.c ****     }
 123              		.loc 1 467 0
 124 0022 FFF7FEFF 		bl	CyExitCriticalSection
 125              	.LVL3:
 126              		.loc 1 468 0
 127 0026 10BD     		pop	{r4, pc}
 128              	.L9:
 129              		.align	2
 130              	.L8:
 131 0028 00010B40 		.word	1074462976
 132 002c FF3FFFFF 		.word	-49153
 133              		.cfi_endproc
 134              	.LFE5:
 135              		.size	CySysWdtUnlock, .-CySysWdtUnlock
 136              		.section	.text.CySysWdtGetEnabledStatus,"ax",%progbits
 137              		.align	1
 138              		.global	CySysWdtGetEnabledStatus
 139              		.code	16
 140              		.thumb_func
 141              		.type	CySysWdtGetEnabledStatus, %function
 142              	CySysWdtGetEnabledStatus:
 143              	.LFB6:
 469:.\Generated_Source\PSoC4/CyLFClk.c **** 
 470:.\Generated_Source\PSoC4/CyLFClk.c **** 
 471:.\Generated_Source\PSoC4/CyLFClk.c ****     /*******************************************************************************
 472:.\Generated_Source\PSoC4/CyLFClk.c ****     * Function Name: CySysWdtGetEnabledStatus
 473:.\Generated_Source\PSoC4/CyLFClk.c ****     ********************************************************************************
 474:.\Generated_Source\PSoC4/CyLFClk.c ****     *
 475:.\Generated_Source\PSoC4/CyLFClk.c ****     * Summary:
 476:.\Generated_Source\PSoC4/CyLFClk.c ****     *  Reads the enabled status of one of the three WDT counters.
 477:.\Generated_Source\PSoC4/CyLFClk.c ****     *
 478:.\Generated_Source\PSoC4/CyLFClk.c ****     * Parameters:
ARM GAS  C:\Users\Vit\AppData\Local\Temp\ccnJL0JJ.s 			page 12


 479:.\Generated_Source\PSoC4/CyLFClk.c ****     *  counterNum: Valid range [0-2].  the number of the WDT counter.
 480:.\Generated_Source\PSoC4/CyLFClk.c ****     *
 481:.\Generated_Source\PSoC4/CyLFClk.c ****     * Return:
 482:.\Generated_Source\PSoC4/CyLFClk.c ****     *  The status of the WDT counter:
 483:.\Generated_Source\PSoC4/CyLFClk.c ****     *   0 - The counter is disabled.
 484:.\Generated_Source\PSoC4/CyLFClk.c ****     *   1 - The counter is enabled.
 485:.\Generated_Source\PSoC4/CyLFClk.c ****     *
 486:.\Generated_Source\PSoC4/CyLFClk.c ****     * Side Effects:
 487:.\Generated_Source\PSoC4/CyLFClk.c ****     *  This function returns an actual WDT counter status from the status register. It may
 488:.\Generated_Source\PSoC4/CyLFClk.c ****     *  take up to 3 LFCLK cycles for the WDT status register to contain actual data
 489:.\Generated_Source\PSoC4/CyLFClk.c ****     *  after the WDT counter is enabled.
 490:.\Generated_Source\PSoC4/CyLFClk.c ****     *
 491:.\Generated_Source\PSoC4/CyLFClk.c ****     *
 492:.\Generated_Source\PSoC4/CyLFClk.c ****     *******************************************************************************/
 493:.\Generated_Source\PSoC4/CyLFClk.c ****     uint32 CySysWdtGetEnabledStatus(uint32 counterNum)
 494:.\Generated_Source\PSoC4/CyLFClk.c ****     {
 144              		.loc 1 494 0
 145              		.cfi_startproc
 146              	.LVL4:
 147 0000 10B5     		push	{r4, lr}
 148              		.cfi_def_cfa_offset 8
 149              		.cfi_offset 4, -8
 150              		.cfi_offset 14, -4
 151              		.loc 1 494 0
 152 0002 041E     		sub	r4, r0, #0
 495:.\Generated_Source\PSoC4/CyLFClk.c ****         CYASSERT(counterNum < CY_SYS_WDT_COUNTERS_MAX);
 153              		.loc 1 495 0
 154 0004 022C     		cmp	r4, #2
 155 0006 02D9     		bls	.L11
 156              		.loc 1 495 0 is_stmt 0 discriminator 1
 157 0008 0020     		mov	r0, #0
 158              	.LVL5:
 159 000a FFF7FEFF 		bl	CyHalt
 160              	.LVL6:
 161              	.L11:
 496:.\Generated_Source\PSoC4/CyLFClk.c ****         return ((CY_SYS_WDT_CONTROL_REG >> ((CY_SYS_WDT_CNT_SHIFT * counterNum) + CY_SYS_WDT_CNT_ST
 162              		.loc 1 496 0 is_stmt 1
 163 000e 044B     		ldr	r3, .L13
 164 0010 E400     		lsl	r4, r4, #3
 165              	.LVL7:
 166 0012 1868     		ldr	r0, [r3]
 167 0014 0134     		add	r4, r4, #1
 168 0016 E040     		lsr	r0, r0, r4
 169 0018 0123     		mov	r3, #1
 497:.\Generated_Source\PSoC4/CyLFClk.c ****     }
 170              		.loc 1 497 0
 171              		@ sp needed
 496:.\Generated_Source\PSoC4/CyLFClk.c ****         return ((CY_SYS_WDT_CONTROL_REG >> ((CY_SYS_WDT_CNT_SHIFT * counterNum) + CY_SYS_WDT_CNT_ST
 172              		.loc 1 496 0
 173 001a 1840     		and	r0, r3
 174              		.loc 1 497 0
 175 001c 10BD     		pop	{r4, pc}
 176              	.L14:
 177 001e C046     		.align	2
 178              	.L13:
 179 0020 10020B40 		.word	1074463248
 180              		.cfi_endproc
ARM GAS  C:\Users\Vit\AppData\Local\Temp\ccnJL0JJ.s 			page 13


 181              	.LFE6:
 182              		.size	CySysWdtGetEnabledStatus, .-CySysWdtGetEnabledStatus
 183              		.section	.text.CySysWdtSetMode,"ax",%progbits
 184              		.align	1
 185              		.global	CySysWdtSetMode
 186              		.code	16
 187              		.thumb_func
 188              		.type	CySysWdtSetMode, %function
 189              	CySysWdtSetMode:
 190              	.LFB7:
 498:.\Generated_Source\PSoC4/CyLFClk.c **** 
 499:.\Generated_Source\PSoC4/CyLFClk.c **** 
 500:.\Generated_Source\PSoC4/CyLFClk.c ****     /*******************************************************************************
 501:.\Generated_Source\PSoC4/CyLFClk.c ****     * Function Name: CySysWdtSetMode
 502:.\Generated_Source\PSoC4/CyLFClk.c ****     ********************************************************************************
 503:.\Generated_Source\PSoC4/CyLFClk.c ****     *
 504:.\Generated_Source\PSoC4/CyLFClk.c ****     * Summary:
 505:.\Generated_Source\PSoC4/CyLFClk.c ****     *   Writes the mode of one of the three WDT counters.
 506:.\Generated_Source\PSoC4/CyLFClk.c ****     *
 507:.\Generated_Source\PSoC4/CyLFClk.c ****     * Parameters:
 508:.\Generated_Source\PSoC4/CyLFClk.c ****     *   counterNum: Valid range [0-2].  The number of the WDT counter.
 509:.\Generated_Source\PSoC4/CyLFClk.c ****     *   mode:       Mode of operation for the counter.
 510:.\Generated_Source\PSoC4/CyLFClk.c ****     *       Define                     Mode
 511:.\Generated_Source\PSoC4/CyLFClk.c ****     *        CY_SYS_WDT_MODE_NONE       Free running
 512:.\Generated_Source\PSoC4/CyLFClk.c ****     *        CY_SYS_WDT_MODE_INT        The interrupt generated on match for counter 0
 513:.\Generated_Source\PSoC4/CyLFClk.c ****     *                                   and 1, and on bit toggle for counter 2.
 514:.\Generated_Source\PSoC4/CyLFClk.c ****     *        CY_SYS_WDT_MODE_RESET      Reset on match (valid for counter 0 and 1
 515:.\Generated_Source\PSoC4/CyLFClk.c ****     *                                   only)
 516:.\Generated_Source\PSoC4/CyLFClk.c ****     *        CY_SYS_WDT_MODE_INT_RESET  Generate an interrupt.  Generate a reset on
 517:.\Generated_Source\PSoC4/CyLFClk.c ****     *                                   the 3rd non-handled interrupt.
 518:.\Generated_Source\PSoC4/CyLFClk.c ****     *                                   (valid for counter 0 and 1 only)
 519:.\Generated_Source\PSoC4/CyLFClk.c ****     * Return:
 520:.\Generated_Source\PSoC4/CyLFClk.c ****     *   None.
 521:.\Generated_Source\PSoC4/CyLFClk.c ****     *
 522:.\Generated_Source\PSoC4/CyLFClk.c ****     * Side Effects:
 523:.\Generated_Source\PSoC4/CyLFClk.c ****     *   WDT counter counterNum should be disabled to set a mode. Otherwise, this
 524:.\Generated_Source\PSoC4/CyLFClk.c ****     *   function call has no effect. If the specified counter is enabled,
 525:.\Generated_Source\PSoC4/CyLFClk.c ****     *   call the CySysWdtDisable() function with the corresponding parameter to
 526:.\Generated_Source\PSoC4/CyLFClk.c ****     *   disable the specified counter and wait for it to stop.
 527:.\Generated_Source\PSoC4/CyLFClk.c ****     *
 528:.\Generated_Source\PSoC4/CyLFClk.c ****     *******************************************************************************/
 529:.\Generated_Source\PSoC4/CyLFClk.c ****     void CySysWdtSetMode(uint32 counterNum, uint32 mode)
 530:.\Generated_Source\PSoC4/CyLFClk.c ****     {
 191              		.loc 1 530 0
 192              		.cfi_startproc
 193              	.LVL8:
 194 0000 38B5     		push	{r3, r4, r5, lr}
 195              		.cfi_def_cfa_offset 16
 196              		.cfi_offset 3, -16
 197              		.cfi_offset 4, -12
 198              		.cfi_offset 5, -8
 199              		.cfi_offset 14, -4
 200              		.loc 1 530 0
 201 0002 041C     		mov	r4, r0
 202 0004 0D1C     		mov	r5, r1
 531:.\Generated_Source\PSoC4/CyLFClk.c ****         uint32 configRegValue;
 532:.\Generated_Source\PSoC4/CyLFClk.c **** 
ARM GAS  C:\Users\Vit\AppData\Local\Temp\ccnJL0JJ.s 			page 14


 533:.\Generated_Source\PSoC4/CyLFClk.c ****         CYASSERT(counterNum < CY_SYS_WDT_COUNTERS_MAX);
 203              		.loc 1 533 0
 204 0006 0228     		cmp	r0, #2
 205 0008 02D9     		bls	.L16
 206              		.loc 1 533 0 is_stmt 0 discriminator 1
 207 000a 0020     		mov	r0, #0
 208              	.LVL9:
 209 000c FFF7FEFF 		bl	CyHalt
 210              	.LVL10:
 211              	.L16:
 534:.\Generated_Source\PSoC4/CyLFClk.c **** 
 535:.\Generated_Source\PSoC4/CyLFClk.c ****         if(0u == CySysWdtGetEnabledStatus(counterNum))
 212              		.loc 1 535 0 is_stmt 1
 213 0010 201C     		mov	r0, r4
 214 0012 FFF7FEFF 		bl	CySysWdtGetEnabledStatus
 215              	.LVL11:
 216 0016 0028     		cmp	r0, #0
 217 0018 0AD1     		bne	.L15
 218              	.LVL12:
 219              	.LBB4:
 220              	.LBB5:
 536:.\Generated_Source\PSoC4/CyLFClk.c ****         {
 537:.\Generated_Source\PSoC4/CyLFClk.c ****             configRegValue = CY_SYS_WDT_CONFIG_REG &
 538:.\Generated_Source\PSoC4/CyLFClk.c ****                                 (uint32)~((uint32)(CY_SYS_WDT_MODE_MASK << (counterNum * CY_SYS_WDT
 221              		.loc 1 538 0
 222 001a 0321     		mov	r1, #3
 223 001c 081C     		mov	r0, r1
 224 001e E400     		lsl	r4, r4, #3
 225              	.LVL13:
 226 0020 A040     		lsl	r0, r0, r4
 539:.\Generated_Source\PSoC4/CyLFClk.c ****             configRegValue |= (uint32)((mode & CY_SYS_WDT_MODE_MASK) << (counterNum * CY_SYS_WDT_CN
 227              		.loc 1 539 0
 228 0022 2940     		and	r1, r5
 229 0024 A140     		lsl	r1, r1, r4
 537:.\Generated_Source\PSoC4/CyLFClk.c ****                                 (uint32)~((uint32)(CY_SYS_WDT_MODE_MASK << (counterNum * CY_SYS_WDT
 230              		.loc 1 537 0
 231 0026 034A     		ldr	r2, .L18
 232 0028 1368     		ldr	r3, [r2]
 233 002a 8343     		bic	r3, r0
 234              	.LVL14:
 235              		.loc 1 539 0
 236 002c 1943     		orr	r1, r3
 237              	.LVL15:
 540:.\Generated_Source\PSoC4/CyLFClk.c ****             CY_SYS_WDT_CONFIG_REG = configRegValue;
 238              		.loc 1 540 0
 239 002e 1160     		str	r1, [r2]
 240              	.LVL16:
 241              	.L15:
 242              	.LBE5:
 243              	.LBE4:
 541:.\Generated_Source\PSoC4/CyLFClk.c ****         }
 542:.\Generated_Source\PSoC4/CyLFClk.c ****     }
 244              		.loc 1 542 0
 245              		@ sp needed
 246              	.LVL17:
 247 0030 38BD     		pop	{r3, r4, r5, pc}
 248              	.L19:
ARM GAS  C:\Users\Vit\AppData\Local\Temp\ccnJL0JJ.s 			page 15


 249 0032 C046     		.align	2
 250              	.L18:
 251 0034 0C020B40 		.word	1074463244
 252              		.cfi_endproc
 253              	.LFE7:
 254              		.size	CySysWdtSetMode, .-CySysWdtSetMode
 255              		.section	.text.CySysWdtGetMode,"ax",%progbits
 256              		.align	1
 257              		.global	CySysWdtGetMode
 258              		.code	16
 259              		.thumb_func
 260              		.type	CySysWdtGetMode, %function
 261              	CySysWdtGetMode:
 262              	.LFB8:
 543:.\Generated_Source\PSoC4/CyLFClk.c **** 
 544:.\Generated_Source\PSoC4/CyLFClk.c **** 
 545:.\Generated_Source\PSoC4/CyLFClk.c ****     /*******************************************************************************
 546:.\Generated_Source\PSoC4/CyLFClk.c ****     * Function Name: CySysWdtGetMode
 547:.\Generated_Source\PSoC4/CyLFClk.c ****     ********************************************************************************
 548:.\Generated_Source\PSoC4/CyLFClk.c ****     *
 549:.\Generated_Source\PSoC4/CyLFClk.c ****     * Summary:
 550:.\Generated_Source\PSoC4/CyLFClk.c ****     *  Reads the mode of one of the three WDT counters.
 551:.\Generated_Source\PSoC4/CyLFClk.c ****     *
 552:.\Generated_Source\PSoC4/CyLFClk.c ****     * Parameters:
 553:.\Generated_Source\PSoC4/CyLFClk.c ****     *  counterNum: Valid range [0-2].  The number of the WDT counter.
 554:.\Generated_Source\PSoC4/CyLFClk.c ****     *
 555:.\Generated_Source\PSoC4/CyLFClk.c ****     * Return:
 556:.\Generated_Source\PSoC4/CyLFClk.c ****     *  The mode of the counter.  The same enumerated values as the mode parameter used in
 557:.\Generated_Source\PSoC4/CyLFClk.c ****     *  CySysWdtSetMode().
 558:.\Generated_Source\PSoC4/CyLFClk.c ****     *
 559:.\Generated_Source\PSoC4/CyLFClk.c ****     *******************************************************************************/
 560:.\Generated_Source\PSoC4/CyLFClk.c ****     uint32 CySysWdtGetMode(uint32 counterNum)
 561:.\Generated_Source\PSoC4/CyLFClk.c ****     {
 263              		.loc 1 561 0
 264              		.cfi_startproc
 265              	.LVL18:
 562:.\Generated_Source\PSoC4/CyLFClk.c ****         return ((CY_SYS_WDT_CONFIG_REG >> (counterNum * CY_SYS_WDT_CNT_SHIFT)) & CY_SYS_WDT_MODE_MA
 266              		.loc 1 562 0
 267 0000 034B     		ldr	r3, .L21
 268 0002 C000     		lsl	r0, r0, #3
 269              	.LVL19:
 270 0004 1B68     		ldr	r3, [r3]
 563:.\Generated_Source\PSoC4/CyLFClk.c ****     }
 271              		.loc 1 563 0
 272              		@ sp needed
 562:.\Generated_Source\PSoC4/CyLFClk.c ****         return ((CY_SYS_WDT_CONFIG_REG >> (counterNum * CY_SYS_WDT_CNT_SHIFT)) & CY_SYS_WDT_MODE_MA
 273              		.loc 1 562 0
 274 0006 C340     		lsr	r3, r3, r0
 275 0008 181C     		mov	r0, r3
 276 000a 0323     		mov	r3, #3
 277 000c 1840     		and	r0, r3
 278              		.loc 1 563 0
 279 000e 7047     		bx	lr
 280              	.L22:
 281              		.align	2
 282              	.L21:
 283 0010 0C020B40 		.word	1074463244
ARM GAS  C:\Users\Vit\AppData\Local\Temp\ccnJL0JJ.s 			page 16


 284              		.cfi_endproc
 285              	.LFE8:
 286              		.size	CySysWdtGetMode, .-CySysWdtGetMode
 287              		.section	.text.CySysWdtSetClearOnMatch,"ax",%progbits
 288              		.align	1
 289              		.global	CySysWdtSetClearOnMatch
 290              		.code	16
 291              		.thumb_func
 292              		.type	CySysWdtSetClearOnMatch, %function
 293              	CySysWdtSetClearOnMatch:
 294              	.LFB9:
 564:.\Generated_Source\PSoC4/CyLFClk.c **** 
 565:.\Generated_Source\PSoC4/CyLFClk.c **** 
 566:.\Generated_Source\PSoC4/CyLFClk.c ****     /*******************************************************************************
 567:.\Generated_Source\PSoC4/CyLFClk.c ****     * Function Name: CySysWdtSetClearOnMatch
 568:.\Generated_Source\PSoC4/CyLFClk.c ****     ********************************************************************************
 569:.\Generated_Source\PSoC4/CyLFClk.c ****     *
 570:.\Generated_Source\PSoC4/CyLFClk.c ****     * Summary:
 571:.\Generated_Source\PSoC4/CyLFClk.c ****     *  Configures the WDT counter "clear on match" setting.  If configured to "clear
 572:.\Generated_Source\PSoC4/CyLFClk.c ****     *  on match", the counter counts from 0 to MatchValue giving it a
 573:.\Generated_Source\PSoC4/CyLFClk.c ****     *  period of (MatchValue + 1).
 574:.\Generated_Source\PSoC4/CyLFClk.c ****     *
 575:.\Generated_Source\PSoC4/CyLFClk.c ****     * Parameters:
 576:.\Generated_Source\PSoC4/CyLFClk.c ****     *  counterNum:
 577:.\Generated_Source\PSoC4/CyLFClk.c ****     *   Valid range [0-1].  The number of the WDT counter.  The match values are not
 578:.\Generated_Source\PSoC4/CyLFClk.c ****     *   supported by counter 2.
 579:.\Generated_Source\PSoC4/CyLFClk.c ****     *
 580:.\Generated_Source\PSoC4/CyLFClk.c ****     * enable:
 581:.\Generated_Source\PSoC4/CyLFClk.c ****     *   0 to disable, 1 to enable
 582:.\Generated_Source\PSoC4/CyLFClk.c ****     *
 583:.\Generated_Source\PSoC4/CyLFClk.c ****     * Return:
 584:.\Generated_Source\PSoC4/CyLFClk.c ****     *   None.
 585:.\Generated_Source\PSoC4/CyLFClk.c ****     *
 586:.\Generated_Source\PSoC4/CyLFClk.c ****     * Side Effects:
 587:.\Generated_Source\PSoC4/CyLFClk.c ****     *   WDT counter counterNum should be disabled. Otherwise this function call
 588:.\Generated_Source\PSoC4/CyLFClk.c ****     *   has no effect. If the specified counter is enabled, call the CySysWdtDisable()
 589:.\Generated_Source\PSoC4/CyLFClk.c ****     *   function with the corresponding parameter to disable the specified counter and
 590:.\Generated_Source\PSoC4/CyLFClk.c ****     *   wait for it to stop. This may take up to three LFCLK cycles.
 591:.\Generated_Source\PSoC4/CyLFClk.c ****     *
 592:.\Generated_Source\PSoC4/CyLFClk.c ****     *******************************************************************************/
 593:.\Generated_Source\PSoC4/CyLFClk.c ****     void CySysWdtSetClearOnMatch(uint32 counterNum, uint32 enable)
 594:.\Generated_Source\PSoC4/CyLFClk.c ****     {
 295              		.loc 1 594 0
 296              		.cfi_startproc
 297              	.LVL20:
 298 0000 38B5     		push	{r3, r4, r5, lr}
 299              		.cfi_def_cfa_offset 16
 300              		.cfi_offset 3, -16
 301              		.cfi_offset 4, -12
 302              		.cfi_offset 5, -8
 303              		.cfi_offset 14, -4
 304              		.loc 1 594 0
 305 0002 041C     		mov	r4, r0
 306 0004 0D1C     		mov	r5, r1
 595:.\Generated_Source\PSoC4/CyLFClk.c ****         uint32 configRegValue;
 596:.\Generated_Source\PSoC4/CyLFClk.c **** 
 597:.\Generated_Source\PSoC4/CyLFClk.c ****         CYASSERT((counterNum == CY_SYS_WDT_COUNTER0) ||
ARM GAS  C:\Users\Vit\AppData\Local\Temp\ccnJL0JJ.s 			page 17


 307              		.loc 1 597 0
 308 0006 0128     		cmp	r0, #1
 309 0008 02D9     		bls	.L24
 310              		.loc 1 597 0 is_stmt 0 discriminator 1
 311 000a 0020     		mov	r0, #0
 312              	.LVL21:
 313 000c FFF7FEFF 		bl	CyHalt
 314              	.LVL22:
 315              	.L24:
 598:.\Generated_Source\PSoC4/CyLFClk.c ****                  (counterNum == CY_SYS_WDT_COUNTER1));
 599:.\Generated_Source\PSoC4/CyLFClk.c **** 
 600:.\Generated_Source\PSoC4/CyLFClk.c ****         if(0u == CySysWdtGetEnabledStatus(counterNum))
 316              		.loc 1 600 0 is_stmt 1
 317 0010 201C     		mov	r0, r4
 318 0012 FFF7FEFF 		bl	CySysWdtGetEnabledStatus
 319              	.LVL23:
 320 0016 0028     		cmp	r0, #0
 321 0018 0AD1     		bne	.L23
 601:.\Generated_Source\PSoC4/CyLFClk.c ****         {
 602:.\Generated_Source\PSoC4/CyLFClk.c ****             configRegValue = CY_SYS_WDT_CONFIG_REG &
 603:.\Generated_Source\PSoC4/CyLFClk.c ****                 (uint32)~((uint32)((uint32)1u << ((counterNum * CY_SYS_WDT_CNT_SHIFT) + CY_SYS_WDT_
 322              		.loc 1 603 0
 323 001a E400     		lsl	r4, r4, #3
 324              	.LVL24:
 325 001c 0234     		add	r4, r4, #2
 326 001e 0121     		mov	r1, #1
 604:.\Generated_Source\PSoC4/CyLFClk.c **** 
 605:.\Generated_Source\PSoC4/CyLFClk.c ****             configRegValue
 606:.\Generated_Source\PSoC4/CyLFClk.c ****                 |= (uint32)(enable << ((counterNum * CY_SYS_WDT_CNT_SHIFT) + CY_SYS_WDT_CNT_MATCH_C
 327              		.loc 1 606 0
 328 0020 A540     		lsl	r5, r5, r4
 329              	.LVL25:
 603:.\Generated_Source\PSoC4/CyLFClk.c **** 
 330              		.loc 1 603 0
 331 0022 A140     		lsl	r1, r1, r4
 332              		.loc 1 606 0
 333 0024 2C1C     		mov	r4, r5
 602:.\Generated_Source\PSoC4/CyLFClk.c ****                 (uint32)~((uint32)((uint32)1u << ((counterNum * CY_SYS_WDT_CNT_SHIFT) + CY_SYS_WDT_
 334              		.loc 1 602 0
 335 0026 034A     		ldr	r2, .L26
 336 0028 1368     		ldr	r3, [r2]
 337 002a 8B43     		bic	r3, r1
 338              	.LVL26:
 339              		.loc 1 606 0
 340 002c 1C43     		orr	r4, r3
 341              	.LVL27:
 607:.\Generated_Source\PSoC4/CyLFClk.c **** 
 608:.\Generated_Source\PSoC4/CyLFClk.c ****             CY_SYS_WDT_CONFIG_REG = configRegValue;
 342              		.loc 1 608 0
 343 002e 1460     		str	r4, [r2]
 344              	.LVL28:
 345              	.L23:
 609:.\Generated_Source\PSoC4/CyLFClk.c ****         }
 610:.\Generated_Source\PSoC4/CyLFClk.c ****     }
 346              		.loc 1 610 0
 347              		@ sp needed
 348 0030 38BD     		pop	{r3, r4, r5, pc}
ARM GAS  C:\Users\Vit\AppData\Local\Temp\ccnJL0JJ.s 			page 18


 349              	.L27:
 350 0032 C046     		.align	2
 351              	.L26:
 352 0034 0C020B40 		.word	1074463244
 353              		.cfi_endproc
 354              	.LFE9:
 355              		.size	CySysWdtSetClearOnMatch, .-CySysWdtSetClearOnMatch
 356              		.section	.text.CySysWdtGetClearOnMatch,"ax",%progbits
 357              		.align	1
 358              		.global	CySysWdtGetClearOnMatch
 359              		.code	16
 360              		.thumb_func
 361              		.type	CySysWdtGetClearOnMatch, %function
 362              	CySysWdtGetClearOnMatch:
 363              	.LFB10:
 611:.\Generated_Source\PSoC4/CyLFClk.c **** 
 612:.\Generated_Source\PSoC4/CyLFClk.c **** 
 613:.\Generated_Source\PSoC4/CyLFClk.c ****     /*******************************************************************************
 614:.\Generated_Source\PSoC4/CyLFClk.c ****     * Function Name: CySysWdtGetClearOnMatch
 615:.\Generated_Source\PSoC4/CyLFClk.c ****     ********************************************************************************
 616:.\Generated_Source\PSoC4/CyLFClk.c ****     *
 617:.\Generated_Source\PSoC4/CyLFClk.c ****     * Summary:
 618:.\Generated_Source\PSoC4/CyLFClk.c ****     *  Reads the "clear on match" setting for the specified counter.
 619:.\Generated_Source\PSoC4/CyLFClk.c ****     *
 620:.\Generated_Source\PSoC4/CyLFClk.c ****     * Parameters:
 621:.\Generated_Source\PSoC4/CyLFClk.c ****     *   counterNum: Valid range [0-1].  The number of the WDT counter.  The match values are
 622:.\Generated_Source\PSoC4/CyLFClk.c ****     *               not supported by counter 2.
 623:.\Generated_Source\PSoC4/CyLFClk.c ****     *
 624:.\Generated_Source\PSoC4/CyLFClk.c ****     * Return:
 625:.\Generated_Source\PSoC4/CyLFClk.c ****     *   The "clear on match" status: 1 if enabled, 0 if disabled
 626:.\Generated_Source\PSoC4/CyLFClk.c ****     *
 627:.\Generated_Source\PSoC4/CyLFClk.c ****     *******************************************************************************/
 628:.\Generated_Source\PSoC4/CyLFClk.c ****     uint32 CySysWdtGetClearOnMatch(uint32 counterNum)
 629:.\Generated_Source\PSoC4/CyLFClk.c ****     {
 364              		.loc 1 629 0
 365              		.cfi_startproc
 366              	.LVL29:
 367 0000 10B5     		push	{r4, lr}
 368              		.cfi_def_cfa_offset 8
 369              		.cfi_offset 4, -8
 370              		.cfi_offset 14, -4
 371              		.loc 1 629 0
 372 0002 041E     		sub	r4, r0, #0
 630:.\Generated_Source\PSoC4/CyLFClk.c ****         CYASSERT((counterNum == CY_SYS_WDT_COUNTER0) ||
 373              		.loc 1 630 0
 374 0004 012C     		cmp	r4, #1
 375 0006 02D9     		bls	.L29
 376              		.loc 1 630 0 is_stmt 0 discriminator 1
 377 0008 0020     		mov	r0, #0
 378              	.LVL30:
 379 000a FFF7FEFF 		bl	CyHalt
 380              	.LVL31:
 381              	.L29:
 631:.\Generated_Source\PSoC4/CyLFClk.c ****                  (counterNum == CY_SYS_WDT_COUNTER1));
 632:.\Generated_Source\PSoC4/CyLFClk.c **** 
 633:.\Generated_Source\PSoC4/CyLFClk.c ****         return (uint32)((CY_SYS_WDT_CONFIG_REG >>
 382              		.loc 1 633 0 is_stmt 1
ARM GAS  C:\Users\Vit\AppData\Local\Temp\ccnJL0JJ.s 			page 19


 383 000e 044B     		ldr	r3, .L30
 634:.\Generated_Source\PSoC4/CyLFClk.c ****                         ((counterNum * CY_SYS_WDT_CNT_SHIFT) + CY_SYS_WDT_CNT_MATCH_CLR_SHIFT)) & 0
 384              		.loc 1 634 0
 385 0010 E400     		lsl	r4, r4, #3
 386              	.LVL32:
 633:.\Generated_Source\PSoC4/CyLFClk.c ****                         ((counterNum * CY_SYS_WDT_CNT_SHIFT) + CY_SYS_WDT_CNT_MATCH_CLR_SHIFT)) & 0
 387              		.loc 1 633 0
 388 0012 1868     		ldr	r0, [r3]
 389              		.loc 1 634 0
 390 0014 0234     		add	r4, r4, #2
 633:.\Generated_Source\PSoC4/CyLFClk.c ****                         ((counterNum * CY_SYS_WDT_CNT_SHIFT) + CY_SYS_WDT_CNT_MATCH_CLR_SHIFT)) & 0
 391              		.loc 1 633 0
 392 0016 E040     		lsr	r0, r0, r4
 393 0018 0123     		mov	r3, #1
 635:.\Generated_Source\PSoC4/CyLFClk.c ****     }
 394              		.loc 1 635 0
 395              		@ sp needed
 633:.\Generated_Source\PSoC4/CyLFClk.c ****                         ((counterNum * CY_SYS_WDT_CNT_SHIFT) + CY_SYS_WDT_CNT_MATCH_CLR_SHIFT)) & 0
 396              		.loc 1 633 0
 397 001a 1840     		and	r0, r3
 398              		.loc 1 635 0
 399 001c 10BD     		pop	{r4, pc}
 400              	.L31:
 401 001e C046     		.align	2
 402              	.L30:
 403 0020 0C020B40 		.word	1074463244
 404              		.cfi_endproc
 405              	.LFE10:
 406              		.size	CySysWdtGetClearOnMatch, .-CySysWdtGetClearOnMatch
 407              		.section	.text.CySysWdtEnable,"ax",%progbits
 408              		.align	1
 409              		.global	CySysWdtEnable
 410              		.code	16
 411              		.thumb_func
 412              		.type	CySysWdtEnable, %function
 413              	CySysWdtEnable:
 414              	.LFB11:
 636:.\Generated_Source\PSoC4/CyLFClk.c **** 
 637:.\Generated_Source\PSoC4/CyLFClk.c **** 
 638:.\Generated_Source\PSoC4/CyLFClk.c ****     /*******************************************************************************
 639:.\Generated_Source\PSoC4/CyLFClk.c ****     * Function Name: CySysWdtEnable
 640:.\Generated_Source\PSoC4/CyLFClk.c ****     ********************************************************************************
 641:.\Generated_Source\PSoC4/CyLFClk.c ****     *
 642:.\Generated_Source\PSoC4/CyLFClk.c ****     * Summary:
 643:.\Generated_Source\PSoC4/CyLFClk.c ****     *  Enables the specified WDT counters.  All the counters specified in the mask
 644:.\Generated_Source\PSoC4/CyLFClk.c ****     *  are enabled.
 645:.\Generated_Source\PSoC4/CyLFClk.c ****     *
 646:.\Generated_Source\PSoC4/CyLFClk.c ****     * Parameters:
 647:.\Generated_Source\PSoC4/CyLFClk.c ****     *  counterMask: The mask of all counters to enable.
 648:.\Generated_Source\PSoC4/CyLFClk.c ****     *       Define                       Counter
 649:.\Generated_Source\PSoC4/CyLFClk.c ****     *      CY_SYS_WDT_COUNTER0_MASK      0
 650:.\Generated_Source\PSoC4/CyLFClk.c ****     *      CY_SYS_WDT_COUNTER1_MASK      1
 651:.\Generated_Source\PSoC4/CyLFClk.c ****     *      CY_SYS_WDT_COUNTER2_MASK      2
 652:.\Generated_Source\PSoC4/CyLFClk.c ****     *
 653:.\Generated_Source\PSoC4/CyLFClk.c ****     * Return:
 654:.\Generated_Source\PSoC4/CyLFClk.c ****     *  None
 655:.\Generated_Source\PSoC4/CyLFClk.c ****     *
ARM GAS  C:\Users\Vit\AppData\Local\Temp\ccnJL0JJ.s 			page 20


 656:.\Generated_Source\PSoC4/CyLFClk.c ****     * Side Effects:
 657:.\Generated_Source\PSoC4/CyLFClk.c ****     *  Enabling or disabling WDT requires 3 LFCLK cycles to come into effect.
 658:.\Generated_Source\PSoC4/CyLFClk.c ****     *  Therefore, the WDT enable state must not be changed more than once in
 659:.\Generated_Source\PSoC4/CyLFClk.c ****     *  that period.
 660:.\Generated_Source\PSoC4/CyLFClk.c ****     *
 661:.\Generated_Source\PSoC4/CyLFClk.c ****     *  After WDT is enabled, it is illegal to write WDT configuration (WDT_CONFIG)
 662:.\Generated_Source\PSoC4/CyLFClk.c ****     *  and control (WDT_CONTROL) registers. This means that all WDT functions that
 663:.\Generated_Source\PSoC4/CyLFClk.c ****     *  contain 'write' in the name (with the exception of CySysWdtSetMatch()
 664:.\Generated_Source\PSoC4/CyLFClk.c ****     *  function) are illegal to call once WDT enabled.
 665:.\Generated_Source\PSoC4/CyLFClk.c ****     *
 666:.\Generated_Source\PSoC4/CyLFClk.c ****     *  PSoC 4100 / PSoC 4200:
 667:.\Generated_Source\PSoC4/CyLFClk.c ****     *  This function enables ILO.
 668:.\Generated_Source\PSoC4/CyLFClk.c ****     *
 669:.\Generated_Source\PSoC4/CyLFClk.c ****     *  PSoC 4100-BL / PSoC 4200-BL and PSoC 4100M / PSoC 4200M:
 670:.\Generated_Source\PSoC4/CyLFClk.c ****     *  LFLCK should be configured before calling this function. The desired
 671:.\Generated_Source\PSoC4/CyLFClk.c ****     *  source should be enabled and configured to be the source for LFCLK.
 672:.\Generated_Source\PSoC4/CyLFClk.c ****     *
 673:.\Generated_Source\PSoC4/CyLFClk.c ****     *******************************************************************************/
 674:.\Generated_Source\PSoC4/CyLFClk.c ****     void CySysWdtEnable(uint32 counterMask)
 675:.\Generated_Source\PSoC4/CyLFClk.c ****     {
 415              		.loc 1 675 0
 416              		.cfi_startproc
 417              	.LVL33:
 418 0000 10B5     		push	{r4, lr}
 419              		.cfi_def_cfa_offset 8
 420              		.cfi_offset 4, -8
 421              		.cfi_offset 14, -4
 422              		.loc 1 675 0
 423 0002 041C     		mov	r4, r0
 676:.\Generated_Source\PSoC4/CyLFClk.c ****         #if (!CY_IP_WCO)
 677:.\Generated_Source\PSoC4/CyLFClk.c ****             CySysClkIloStart();
 424              		.loc 1 677 0
 425 0004 FFF7FEFF 		bl	CySysClkIloStart
 426              	.LVL34:
 678:.\Generated_Source\PSoC4/CyLFClk.c ****         #endif /* (!CY_IP_WCO) */
 679:.\Generated_Source\PSoC4/CyLFClk.c **** 
 680:.\Generated_Source\PSoC4/CyLFClk.c ****         CY_SYS_WDT_CONTROL_REG |= counterMask;
 427              		.loc 1 680 0
 428 0008 094B     		ldr	r3, .L51
 429 000a 1A68     		ldr	r2, [r3]
 430 000c 2243     		orr	r2, r4
 431 000e 1A60     		str	r2, [r3]
 681:.\Generated_Source\PSoC4/CyLFClk.c **** 
 682:.\Generated_Source\PSoC4/CyLFClk.c ****         if(0u != (counterMask & CY_SYS_WDT_COUNTER0_MASK))
 432              		.loc 1 682 0
 433 0010 E207     		lsl	r2, r4, #31
 434 0012 02D5     		bpl	.L33
 435              	.L34:
 436              	.LVL35:
 437              	.LBB14:
 438              	.LBB15:
 496:.\Generated_Source\PSoC4/CyLFClk.c ****     }
 439              		.loc 1 496 0 discriminator 1
 440 0014 1A68     		ldr	r2, [r3]
 441              	.LBE15:
 442              	.LBE14:
 683:.\Generated_Source\PSoC4/CyLFClk.c ****         {
ARM GAS  C:\Users\Vit\AppData\Local\Temp\ccnJL0JJ.s 			page 21


 684:.\Generated_Source\PSoC4/CyLFClk.c ****             while (0u == CySysWdtGetEnabledStatus(CY_SYS_WDT_COUNTER0))
 443              		.loc 1 684 0 discriminator 1
 444 0016 9207     		lsl	r2, r2, #30
 445 0018 FCD5     		bpl	.L34
 446              	.LVL36:
 447              	.L33:
 685:.\Generated_Source\PSoC4/CyLFClk.c ****             {
 686:.\Generated_Source\PSoC4/CyLFClk.c ****                 /* Wait for changes to come into effect */
 687:.\Generated_Source\PSoC4/CyLFClk.c ****             }
 688:.\Generated_Source\PSoC4/CyLFClk.c ****         }
 689:.\Generated_Source\PSoC4/CyLFClk.c **** 
 690:.\Generated_Source\PSoC4/CyLFClk.c ****         if(0u != (counterMask & CY_SYS_WDT_COUNTER1_MASK))
 448              		.loc 1 690 0
 449 001a E205     		lsl	r2, r4, #23
 450 001c 02D5     		bpl	.L35
 451              	.L36:
 452              	.LVL37:
 453              	.LBB16:
 454              	.LBB17:
 496:.\Generated_Source\PSoC4/CyLFClk.c ****     }
 455              		.loc 1 496 0 discriminator 1
 456 001e 1A68     		ldr	r2, [r3]
 457              	.LBE17:
 458              	.LBE16:
 691:.\Generated_Source\PSoC4/CyLFClk.c ****         {
 692:.\Generated_Source\PSoC4/CyLFClk.c ****             while (0u == CySysWdtGetEnabledStatus(CY_SYS_WDT_COUNTER1))
 459              		.loc 1 692 0 discriminator 1
 460 0020 9205     		lsl	r2, r2, #22
 461 0022 FCD5     		bpl	.L36
 462              	.LVL38:
 463              	.L35:
 693:.\Generated_Source\PSoC4/CyLFClk.c ****             {
 694:.\Generated_Source\PSoC4/CyLFClk.c ****                 /* Wait for changes to come into effect */
 695:.\Generated_Source\PSoC4/CyLFClk.c ****             }
 696:.\Generated_Source\PSoC4/CyLFClk.c ****         }
 697:.\Generated_Source\PSoC4/CyLFClk.c **** 
 698:.\Generated_Source\PSoC4/CyLFClk.c ****         if(0u != (counterMask & CY_SYS_WDT_COUNTER2_MASK))
 464              		.loc 1 698 0
 465 0024 E203     		lsl	r2, r4, #15
 466 0026 02D5     		bpl	.L32
 467              	.L38:
 468              	.LVL39:
 469              	.LBB18:
 470              	.LBB19:
 471              	.LBB20:
 472              	.LBB21:
 496:.\Generated_Source\PSoC4/CyLFClk.c ****     }
 473              		.loc 1 496 0
 474 0028 1A68     		ldr	r2, [r3]
 475              	.LBE21:
 476              	.LBE20:
 699:.\Generated_Source\PSoC4/CyLFClk.c ****         {
 700:.\Generated_Source\PSoC4/CyLFClk.c ****             while (0u == CySysWdtGetEnabledStatus(CY_SYS_WDT_COUNTER2))
 477              		.loc 1 700 0
 478 002a 9203     		lsl	r2, r2, #14
 479 002c FCD5     		bpl	.L38
 480              	.LVL40:
ARM GAS  C:\Users\Vit\AppData\Local\Temp\ccnJL0JJ.s 			page 22


 481              	.L32:
 482              	.LBE19:
 483              	.LBE18:
 701:.\Generated_Source\PSoC4/CyLFClk.c ****             {
 702:.\Generated_Source\PSoC4/CyLFClk.c ****                 /* Wait for changes to come into effect */
 703:.\Generated_Source\PSoC4/CyLFClk.c ****             }
 704:.\Generated_Source\PSoC4/CyLFClk.c ****         }
 705:.\Generated_Source\PSoC4/CyLFClk.c ****     }
 484              		.loc 1 705 0
 485              		@ sp needed
 486              	.LVL41:
 487 002e 10BD     		pop	{r4, pc}
 488              	.L52:
 489              		.align	2
 490              	.L51:
 491 0030 10020B40 		.word	1074463248
 492              		.cfi_endproc
 493              	.LFE11:
 494              		.size	CySysWdtEnable, .-CySysWdtEnable
 495              		.section	.text.CySysWdtDisable,"ax",%progbits
 496              		.align	1
 497              		.global	CySysWdtDisable
 498              		.code	16
 499              		.thumb_func
 500              		.type	CySysWdtDisable, %function
 501              	CySysWdtDisable:
 502              	.LFB12:
 706:.\Generated_Source\PSoC4/CyLFClk.c **** 
 707:.\Generated_Source\PSoC4/CyLFClk.c **** 
 708:.\Generated_Source\PSoC4/CyLFClk.c ****     /*******************************************************************************
 709:.\Generated_Source\PSoC4/CyLFClk.c ****     * Function Name: CySysWdtDisable
 710:.\Generated_Source\PSoC4/CyLFClk.c ****     ********************************************************************************
 711:.\Generated_Source\PSoC4/CyLFClk.c ****     *
 712:.\Generated_Source\PSoC4/CyLFClk.c ****     * Summary:
 713:.\Generated_Source\PSoC4/CyLFClk.c ****     *  Disables the specified WDT counters. All the counters specified in the mask
 714:.\Generated_Source\PSoC4/CyLFClk.c ****     *  are disabled. The function waits for the changes to come into effect.
 715:.\Generated_Source\PSoC4/CyLFClk.c ****     *
 716:.\Generated_Source\PSoC4/CyLFClk.c ****     * Parameters:
 717:.\Generated_Source\PSoC4/CyLFClk.c ****     *  uint32 counterMask: The mask of all counters to disable
 718:.\Generated_Source\PSoC4/CyLFClk.c ****     *    Define                       Counter
 719:.\Generated_Source\PSoC4/CyLFClk.c ****     *   CY_SYS_WDT_COUNTER0_MASK      0
 720:.\Generated_Source\PSoC4/CyLFClk.c ****     *   CY_SYS_WDT_COUNTER1_MASK      1
 721:.\Generated_Source\PSoC4/CyLFClk.c ****     *   CY_SYS_WDT_COUNTER2_MASK      2
 722:.\Generated_Source\PSoC4/CyLFClk.c ****     *
 723:.\Generated_Source\PSoC4/CyLFClk.c ****     * Return:
 724:.\Generated_Source\PSoC4/CyLFClk.c ****     *   None.
 725:.\Generated_Source\PSoC4/CyLFClk.c ****     *
 726:.\Generated_Source\PSoC4/CyLFClk.c ****     *******************************************************************************/
 727:.\Generated_Source\PSoC4/CyLFClk.c ****     void CySysWdtDisable(uint32 counterMask)
 728:.\Generated_Source\PSoC4/CyLFClk.c ****     {
 503              		.loc 1 728 0
 504              		.cfi_startproc
 505              	.LVL42:
 506              	.LBB30:
 507              	.LBB31:
 437:.\Generated_Source\PSoC4/CyLFClk.c ****     }
 508              		.loc 1 437 0
ARM GAS  C:\Users\Vit\AppData\Local\Temp\ccnJL0JJ.s 			page 23


 509 0000 0C4B     		ldr	r3, .L67
 510 0002 1A68     		ldr	r2, [r3]
 511 0004 C023     		mov	r3, #192
 512 0006 1B02     		lsl	r3, r3, #8
 513 0008 1A42     		tst	r2, r3
 514 000a 12D1     		bne	.L53
 515              	.LBE31:
 516              	.LBE30:
 729:.\Generated_Source\PSoC4/CyLFClk.c ****         if (0uL == CySysWdtLocked())
 730:.\Generated_Source\PSoC4/CyLFClk.c ****         {
 731:.\Generated_Source\PSoC4/CyLFClk.c ****             CY_SYS_WDT_CONTROL_REG &= ~counterMask;
 517              		.loc 1 731 0
 518 000c 0A4B     		ldr	r3, .L67+4
 519 000e 1A68     		ldr	r2, [r3]
 520 0010 8243     		bic	r2, r0
 521 0012 1A60     		str	r2, [r3]
 732:.\Generated_Source\PSoC4/CyLFClk.c **** 
 733:.\Generated_Source\PSoC4/CyLFClk.c ****             if(0u != (counterMask & CY_SYS_WDT_COUNTER0_MASK))
 522              		.loc 1 733 0
 523 0014 C207     		lsl	r2, r0, #31
 524 0016 02D5     		bpl	.L60
 525              	.L55:
 526              	.LVL43:
 527              	.LBB32:
 528              	.LBB33:
 496:.\Generated_Source\PSoC4/CyLFClk.c ****     }
 529              		.loc 1 496 0 discriminator 1
 530 0018 1A68     		ldr	r2, [r3]
 531              	.LBE33:
 532              	.LBE32:
 734:.\Generated_Source\PSoC4/CyLFClk.c ****             {
 735:.\Generated_Source\PSoC4/CyLFClk.c ****                 while (0u != CySysWdtGetEnabledStatus(CY_SYS_WDT_COUNTER0))
 533              		.loc 1 735 0 discriminator 1
 534 001a 9207     		lsl	r2, r2, #30
 535 001c FCD4     		bmi	.L55
 536              	.LVL44:
 537              	.L60:
 736:.\Generated_Source\PSoC4/CyLFClk.c ****                 {
 737:.\Generated_Source\PSoC4/CyLFClk.c ****                     /* Wait for changes to come into effect */
 738:.\Generated_Source\PSoC4/CyLFClk.c ****                 }
 739:.\Generated_Source\PSoC4/CyLFClk.c ****             }
 740:.\Generated_Source\PSoC4/CyLFClk.c **** 
 741:.\Generated_Source\PSoC4/CyLFClk.c ****             if(0u != (counterMask & CY_SYS_WDT_COUNTER1_MASK))
 538              		.loc 1 741 0
 539 001e C205     		lsl	r2, r0, #23
 540 0020 02D5     		bpl	.L56
 541              	.L57:
 542              	.LVL45:
 543              	.LBB34:
 544              	.LBB35:
 496:.\Generated_Source\PSoC4/CyLFClk.c ****     }
 545              		.loc 1 496 0 discriminator 1
 546 0022 1A68     		ldr	r2, [r3]
 547              	.LBE35:
 548              	.LBE34:
 742:.\Generated_Source\PSoC4/CyLFClk.c ****             {
 743:.\Generated_Source\PSoC4/CyLFClk.c ****                 while (0u != CySysWdtGetEnabledStatus(CY_SYS_WDT_COUNTER1))
ARM GAS  C:\Users\Vit\AppData\Local\Temp\ccnJL0JJ.s 			page 24


 549              		.loc 1 743 0 discriminator 1
 550 0024 9205     		lsl	r2, r2, #22
 551 0026 FCD4     		bmi	.L57
 552              	.LVL46:
 553              	.L56:
 744:.\Generated_Source\PSoC4/CyLFClk.c ****                 {
 745:.\Generated_Source\PSoC4/CyLFClk.c ****                     /* Wait for changes to come into effect */
 746:.\Generated_Source\PSoC4/CyLFClk.c ****                 }
 747:.\Generated_Source\PSoC4/CyLFClk.c ****             }
 748:.\Generated_Source\PSoC4/CyLFClk.c **** 
 749:.\Generated_Source\PSoC4/CyLFClk.c ****             if(0u != (counterMask & CY_SYS_WDT_COUNTER2_MASK))
 554              		.loc 1 749 0
 555 0028 C203     		lsl	r2, r0, #15
 556 002a 02D5     		bpl	.L53
 557              	.L59:
 558              	.LVL47:
 559              	.LBB36:
 560              	.LBB37:
 496:.\Generated_Source\PSoC4/CyLFClk.c ****     }
 561              		.loc 1 496 0 discriminator 1
 562 002c 1A68     		ldr	r2, [r3]
 563              	.LBE37:
 564              	.LBE36:
 750:.\Generated_Source\PSoC4/CyLFClk.c ****             {
 751:.\Generated_Source\PSoC4/CyLFClk.c ****                 while (0u != CySysWdtGetEnabledStatus(CY_SYS_WDT_COUNTER2))
 565              		.loc 1 751 0 discriminator 1
 566 002e 9203     		lsl	r2, r2, #14
 567 0030 FCD4     		bmi	.L59
 568              	.LVL48:
 569              	.L53:
 752:.\Generated_Source\PSoC4/CyLFClk.c ****                 {
 753:.\Generated_Source\PSoC4/CyLFClk.c ****                     /* Wait for changes to come into effect */
 754:.\Generated_Source\PSoC4/CyLFClk.c ****                 }
 755:.\Generated_Source\PSoC4/CyLFClk.c ****             }
 756:.\Generated_Source\PSoC4/CyLFClk.c ****         }
 757:.\Generated_Source\PSoC4/CyLFClk.c ****     }
 570              		.loc 1 757 0
 571              		@ sp needed
 572 0032 7047     		bx	lr
 573              	.L68:
 574              		.align	2
 575              	.L67:
 576 0034 00010B40 		.word	1074462976
 577 0038 10020B40 		.word	1074463248
 578              		.cfi_endproc
 579              	.LFE12:
 580              		.size	CySysWdtDisable, .-CySysWdtDisable
 581              		.section	.text.CySysWdtSetCascade,"ax",%progbits
 582              		.align	1
 583              		.global	CySysWdtSetCascade
 584              		.code	16
 585              		.thumb_func
 586              		.type	CySysWdtSetCascade, %function
 587              	CySysWdtSetCascade:
 588              	.LFB13:
 758:.\Generated_Source\PSoC4/CyLFClk.c **** 
 759:.\Generated_Source\PSoC4/CyLFClk.c **** 
ARM GAS  C:\Users\Vit\AppData\Local\Temp\ccnJL0JJ.s 			page 25


 760:.\Generated_Source\PSoC4/CyLFClk.c ****     /*******************************************************************************
 761:.\Generated_Source\PSoC4/CyLFClk.c ****     * Function Name: CySysWdtSetCascade
 762:.\Generated_Source\PSoC4/CyLFClk.c ****     ********************************************************************************
 763:.\Generated_Source\PSoC4/CyLFClk.c ****     *
 764:.\Generated_Source\PSoC4/CyLFClk.c ****     * Summary:
 765:.\Generated_Source\PSoC4/CyLFClk.c ****     *   Writes the two WDT cascade values based on the combination of mask values
 766:.\Generated_Source\PSoC4/CyLFClk.c ****     *   specified.
 767:.\Generated_Source\PSoC4/CyLFClk.c ****     *
 768:.\Generated_Source\PSoC4/CyLFClk.c ****     * Parameters:
 769:.\Generated_Source\PSoC4/CyLFClk.c ****     *   cascadeMask: The mask value used to set or clear the cascade values.
 770:.\Generated_Source\PSoC4/CyLFClk.c ****     *   Define                     Cascade
 771:.\Generated_Source\PSoC4/CyLFClk.c ****     *   CY_SYS_WDT_CASCADE_NONE    Neither
 772:.\Generated_Source\PSoC4/CyLFClk.c ****     *   CY_SYS_WDT_CASCADE_01      Cascade 01
 773:.\Generated_Source\PSoC4/CyLFClk.c ****     *   CY_SYS_WDT_CASCADE_12      Cascade 12
 774:.\Generated_Source\PSoC4/CyLFClk.c ****     *
 775:.\Generated_Source\PSoC4/CyLFClk.c ****     *   To set both cascade modes, two defines should be ORed:
 776:.\Generated_Source\PSoC4/CyLFClk.c ****     *   (CY_SYS_WDT_CASCADE_01 | CY_SYS_WDT_CASCADE_12)
 777:.\Generated_Source\PSoC4/CyLFClk.c ****     *
 778:.\Generated_Source\PSoC4/CyLFClk.c ****     * Return:
 779:.\Generated_Source\PSoC4/CyLFClk.c ****     *   None.
 780:.\Generated_Source\PSoC4/CyLFClk.c ****     *
 781:.\Generated_Source\PSoC4/CyLFClk.c ****     * Side effects:
 782:.\Generated_Source\PSoC4/CyLFClk.c ****     *   If only one cascade mask is specified, the second cascade is disabled.
 783:.\Generated_Source\PSoC4/CyLFClk.c ****     *   To set both cascade modes, two defines should be ORed:
 784:.\Generated_Source\PSoC4/CyLFClk.c ****     *    (CY_SYS_WDT_CASCADE_01 | CY_SYS_WDT_CASCADE_12).
 785:.\Generated_Source\PSoC4/CyLFClk.c ****     *
 786:.\Generated_Source\PSoC4/CyLFClk.c ****     *   WDT counters that are part of the specified cascade should be disabled.
 787:.\Generated_Source\PSoC4/CyLFClk.c ****     *   Otherwise this function call has no effect. If the specified
 788:.\Generated_Source\PSoC4/CyLFClk.c ****     *   counter is enabled, call CySysWdtDisable() function with the corresponding
 789:.\Generated_Source\PSoC4/CyLFClk.c ****     *   parameter to disable the specified counter and wait for it to stop. This may
 790:.\Generated_Source\PSoC4/CyLFClk.c ****     *   take up to 3 LFCLK cycles.
 791:.\Generated_Source\PSoC4/CyLFClk.c ****     *
 792:.\Generated_Source\PSoC4/CyLFClk.c ****     *******************************************************************************/
 793:.\Generated_Source\PSoC4/CyLFClk.c ****     void CySysWdtSetCascade(uint32 cascadeMask)
 794:.\Generated_Source\PSoC4/CyLFClk.c ****     {
 589              		.loc 1 794 0
 590              		.cfi_startproc
 591              	.LVL49:
 592              	.LBB44:
 593              	.LBB45:
 496:.\Generated_Source\PSoC4/CyLFClk.c ****     }
 594              		.loc 1 496 0
 595 0000 094A     		ldr	r2, .L71
 596              	.LBE45:
 597              	.LBE44:
 598              		.loc 1 794 0
 599 0002 10B5     		push	{r4, lr}
 600              		.cfi_def_cfa_offset 8
 601              		.cfi_offset 4, -8
 602              		.cfi_offset 14, -4
 603              	.LBB48:
 604              	.LBB46:
 496:.\Generated_Source\PSoC4/CyLFClk.c ****     }
 605              		.loc 1 496 0
 606 0004 1168     		ldr	r1, [r2]
 607              	.LVL50:
 608              	.LBE46:
ARM GAS  C:\Users\Vit\AppData\Local\Temp\ccnJL0JJ.s 			page 26


 609              	.LBE48:
 610              	.LBB49:
 611              	.LBB50:
 612 0006 1368     		ldr	r3, [r2]
 613              	.LVL51:
 614              	.LBE50:
 615              	.LBE49:
 616              	.LBB52:
 617              	.LBB53:
 618 0008 1268     		ldr	r2, [r2]
 619              	.LVL52:
 620              	.LBE53:
 621              	.LBE52:
 622              	.LBB55:
 623              	.LBB51:
 624 000a 5C0A     		lsr	r4, r3, #9
 625              	.LBE51:
 626              	.LBE55:
 627              	.LBB56:
 628              	.LBB47:
 629 000c 4B08     		lsr	r3, r1, #1
 630              	.LVL53:
 631              	.LBE47:
 632              	.LBE56:
 795:.\Generated_Source\PSoC4/CyLFClk.c ****         uint32 configRegValue;
 796:.\Generated_Source\PSoC4/CyLFClk.c ****         uint32 countersEnableStatus;
 797:.\Generated_Source\PSoC4/CyLFClk.c **** 
 798:.\Generated_Source\PSoC4/CyLFClk.c ****         countersEnableStatus = CySysWdtGetEnabledStatus(CY_SYS_WDT_COUNTER0) |
 633              		.loc 1 798 0
 634 000e 2343     		orr	r3, r4
 635              	.LBB57:
 636              	.LBB54:
 496:.\Generated_Source\PSoC4/CyLFClk.c ****     }
 637              		.loc 1 496 0
 638 0010 520C     		lsr	r2, r2, #17
 639              	.LBE54:
 640              	.LBE57:
 641              		.loc 1 798 0
 642 0012 1343     		orr	r3, r2
 799:.\Generated_Source\PSoC4/CyLFClk.c ****                             CySysWdtGetEnabledStatus(CY_SYS_WDT_COUNTER1) |
 800:.\Generated_Source\PSoC4/CyLFClk.c ****                             CySysWdtGetEnabledStatus(CY_SYS_WDT_COUNTER2);
 801:.\Generated_Source\PSoC4/CyLFClk.c **** 
 802:.\Generated_Source\PSoC4/CyLFClk.c ****         if (0u == countersEnableStatus)
 643              		.loc 1 802 0
 644 0014 DB07     		lsl	r3, r3, #31
 645 0016 05D4     		bmi	.L69
 803:.\Generated_Source\PSoC4/CyLFClk.c ****         {
 804:.\Generated_Source\PSoC4/CyLFClk.c ****             configRegValue = CY_SYS_WDT_CONFIG_REG;
 646              		.loc 1 804 0
 647 0018 044A     		ldr	r2, .L71+4
 805:.\Generated_Source\PSoC4/CyLFClk.c ****             configRegValue &= ((uint32)(~(CY_SYS_WDT_CASCADE_01|CY_SYS_WDT_CASCADE_12)));
 648              		.loc 1 805 0
 649 001a 054B     		ldr	r3, .L71+8
 804:.\Generated_Source\PSoC4/CyLFClk.c ****             configRegValue &= ((uint32)(~(CY_SYS_WDT_CASCADE_01|CY_SYS_WDT_CASCADE_12)));
 650              		.loc 1 804 0
 651 001c 1168     		ldr	r1, [r2]
 652              	.LVL54:
ARM GAS  C:\Users\Vit\AppData\Local\Temp\ccnJL0JJ.s 			page 27


 653              		.loc 1 805 0
 654 001e 0B40     		and	r3, r1
 655              	.LVL55:
 806:.\Generated_Source\PSoC4/CyLFClk.c ****             configRegValue |= cascadeMask;
 656              		.loc 1 806 0
 657 0020 1843     		orr	r0, r3
 658              	.LVL56:
 807:.\Generated_Source\PSoC4/CyLFClk.c ****             CY_SYS_WDT_CONFIG_REG = configRegValue;
 659              		.loc 1 807 0
 660 0022 1060     		str	r0, [r2]
 661              	.LVL57:
 662              	.L69:
 808:.\Generated_Source\PSoC4/CyLFClk.c ****         }
 809:.\Generated_Source\PSoC4/CyLFClk.c ****     }
 663              		.loc 1 809 0
 664              		@ sp needed
 665 0024 10BD     		pop	{r4, pc}
 666              	.L72:
 667 0026 C046     		.align	2
 668              	.L71:
 669 0028 10020B40 		.word	1074463248
 670 002c 0C020B40 		.word	1074463244
 671 0030 F7F7FFFF 		.word	-2057
 672              		.cfi_endproc
 673              	.LFE13:
 674              		.size	CySysWdtSetCascade, .-CySysWdtSetCascade
 675              		.section	.text.CySysWdtGetCascade,"ax",%progbits
 676              		.align	1
 677              		.global	CySysWdtGetCascade
 678              		.code	16
 679              		.thumb_func
 680              		.type	CySysWdtGetCascade, %function
 681              	CySysWdtGetCascade:
 682              	.LFB14:
 810:.\Generated_Source\PSoC4/CyLFClk.c **** 
 811:.\Generated_Source\PSoC4/CyLFClk.c **** 
 812:.\Generated_Source\PSoC4/CyLFClk.c ****     /*******************************************************************************
 813:.\Generated_Source\PSoC4/CyLFClk.c ****     * Function Name: CySysWdtGetCascade
 814:.\Generated_Source\PSoC4/CyLFClk.c ****     ********************************************************************************
 815:.\Generated_Source\PSoC4/CyLFClk.c ****     *
 816:.\Generated_Source\PSoC4/CyLFClk.c ****     * Summary:
 817:.\Generated_Source\PSoC4/CyLFClk.c ****     *   Reads the two WDT cascade values returning a mask of the bits set.
 818:.\Generated_Source\PSoC4/CyLFClk.c ****     *
 819:.\Generated_Source\PSoC4/CyLFClk.c ****     * Parameters:
 820:.\Generated_Source\PSoC4/CyLFClk.c ****     *   None.
 821:.\Generated_Source\PSoC4/CyLFClk.c ****     *
 822:.\Generated_Source\PSoC4/CyLFClk.c ****     * Return:
 823:.\Generated_Source\PSoC4/CyLFClk.c ****     *   The mask of the cascade values set.
 824:.\Generated_Source\PSoC4/CyLFClk.c ****     *   Define                     Cascade
 825:.\Generated_Source\PSoC4/CyLFClk.c ****     *   CY_SYS_WDT_CASCADE_NONE    Neither
 826:.\Generated_Source\PSoC4/CyLFClk.c ****     *   CY_SYS_WDT_CASCADE_01      Cascade 01
 827:.\Generated_Source\PSoC4/CyLFClk.c ****     *   CY_SYS_WDT_CASCADE_12      Cascade 12
 828:.\Generated_Source\PSoC4/CyLFClk.c ****     *
 829:.\Generated_Source\PSoC4/CyLFClk.c ****     *******************************************************************************/
 830:.\Generated_Source\PSoC4/CyLFClk.c ****     uint32 CySysWdtGetCascade(void)
 831:.\Generated_Source\PSoC4/CyLFClk.c ****     {
 683              		.loc 1 831 0
ARM GAS  C:\Users\Vit\AppData\Local\Temp\ccnJL0JJ.s 			page 28


 684              		.cfi_startproc
 832:.\Generated_Source\PSoC4/CyLFClk.c ****         return (CY_SYS_WDT_CONFIG_REG & (CY_SYS_WDT_CASCADE_01 | CY_SYS_WDT_CASCADE_12));
 685              		.loc 1 832 0
 686 0000 024B     		ldr	r3, .L74
 833:.\Generated_Source\PSoC4/CyLFClk.c ****     }
 687              		.loc 1 833 0
 688              		@ sp needed
 832:.\Generated_Source\PSoC4/CyLFClk.c ****         return (CY_SYS_WDT_CONFIG_REG & (CY_SYS_WDT_CASCADE_01 | CY_SYS_WDT_CASCADE_12));
 689              		.loc 1 832 0
 690 0002 1868     		ldr	r0, [r3]
 691 0004 024B     		ldr	r3, .L74+4
 692 0006 1840     		and	r0, r3
 693              		.loc 1 833 0
 694 0008 7047     		bx	lr
 695              	.L75:
 696 000a C046     		.align	2
 697              	.L74:
 698 000c 0C020B40 		.word	1074463244
 699 0010 08080000 		.word	2056
 700              		.cfi_endproc
 701              	.LFE14:
 702              		.size	CySysWdtGetCascade, .-CySysWdtGetCascade
 703              		.section	.text.CySysWdtSetMatch,"ax",%progbits
 704              		.align	1
 705              		.global	CySysWdtSetMatch
 706              		.code	16
 707              		.thumb_func
 708              		.type	CySysWdtSetMatch, %function
 709              	CySysWdtSetMatch:
 710              	.LFB15:
 834:.\Generated_Source\PSoC4/CyLFClk.c **** 
 835:.\Generated_Source\PSoC4/CyLFClk.c **** 
 836:.\Generated_Source\PSoC4/CyLFClk.c ****     /*******************************************************************************
 837:.\Generated_Source\PSoC4/CyLFClk.c ****     * Function Name: CySysWdtSetMatch
 838:.\Generated_Source\PSoC4/CyLFClk.c ****     ********************************************************************************
 839:.\Generated_Source\PSoC4/CyLFClk.c ****     *
 840:.\Generated_Source\PSoC4/CyLFClk.c ****     * Summary:
 841:.\Generated_Source\PSoC4/CyLFClk.c ****     *  Configures the WDT counter match comparison value.
 842:.\Generated_Source\PSoC4/CyLFClk.c ****     *
 843:.\Generated_Source\PSoC4/CyLFClk.c ****     * Parameters:
 844:.\Generated_Source\PSoC4/CyLFClk.c ****     *  counterNum:
 845:.\Generated_Source\PSoC4/CyLFClk.c ****     *   Valid range [0-1]. The number of the WDT counter. The match values are not
 846:.\Generated_Source\PSoC4/CyLFClk.c ****     *   supported by counter 2.
 847:.\Generated_Source\PSoC4/CyLFClk.c ****     *
 848:.\Generated_Source\PSoC4/CyLFClk.c ****     *  match:
 849:.\Generated_Source\PSoC4/CyLFClk.c ****     *   Valid range [0-65535]. The value to be used to match against the counter.
 850:.\Generated_Source\PSoC4/CyLFClk.c ****     *
 851:.\Generated_Source\PSoC4/CyLFClk.c ****     * Return:
 852:.\Generated_Source\PSoC4/CyLFClk.c ****     *   None.
 853:.\Generated_Source\PSoC4/CyLFClk.c ****     *
 854:.\Generated_Source\PSoC4/CyLFClk.c ****     *******************************************************************************/
 855:.\Generated_Source\PSoC4/CyLFClk.c ****     void CySysWdtSetMatch(uint32 counterNum, uint32 match)
 856:.\Generated_Source\PSoC4/CyLFClk.c ****     {
 711              		.loc 1 856 0
 712              		.cfi_startproc
 713              	.LVL58:
 714 0000 38B5     		push	{r3, r4, r5, lr}
ARM GAS  C:\Users\Vit\AppData\Local\Temp\ccnJL0JJ.s 			page 29


 715              		.cfi_def_cfa_offset 16
 716              		.cfi_offset 3, -16
 717              		.cfi_offset 4, -12
 718              		.cfi_offset 5, -8
 719              		.cfi_offset 14, -4
 720              		.loc 1 856 0
 721 0002 051C     		mov	r5, r0
 722 0004 0C1C     		mov	r4, r1
 857:.\Generated_Source\PSoC4/CyLFClk.c ****         uint32 regValue;
 858:.\Generated_Source\PSoC4/CyLFClk.c **** 
 859:.\Generated_Source\PSoC4/CyLFClk.c ****         CYASSERT((counterNum == CY_SYS_WDT_COUNTER0) ||
 723              		.loc 1 859 0
 724 0006 0128     		cmp	r0, #1
 725 0008 02D9     		bls	.L77
 726              		.loc 1 859 0 is_stmt 0 discriminator 1
 727 000a 0020     		mov	r0, #0
 728              	.LVL59:
 729 000c FFF7FEFF 		bl	CyHalt
 730              	.LVL60:
 731              	.L77:
 860:.\Generated_Source\PSoC4/CyLFClk.c ****                  (counterNum == CY_SYS_WDT_COUNTER1));
 861:.\Generated_Source\PSoC4/CyLFClk.c **** 
 862:.\Generated_Source\PSoC4/CyLFClk.c ****         /* Wait for previous changes to come into effect */
 863:.\Generated_Source\PSoC4/CyLFClk.c ****         CyDelayUs(CY_SYS_WDT_3LFCLK_DELAY_US);
 732              		.loc 1 863 0 is_stmt 1
 733 0010 C920     		mov	r0, #201
 734 0012 FFF7FEFF 		bl	CyDelayUs
 735              	.LVL61:
 864:.\Generated_Source\PSoC4/CyLFClk.c **** 
 865:.\Generated_Source\PSoC4/CyLFClk.c ****         regValue = CY_SYS_WDT_MATCH_REG;
 866:.\Generated_Source\PSoC4/CyLFClk.c ****         regValue &= (uint32)~((uint32)(CY_SYS_WDT_LOWER_16BITS_MASK << (counterNum * CY_SYS_WDT_CNT
 867:.\Generated_Source\PSoC4/CyLFClk.c ****         CY_SYS_WDT_MATCH_REG = (regValue | (match << (counterNum * CY_SYS_WDT_CNT_MATCH_SHIFT)));
 736              		.loc 1 867 0
 737 0016 201C     		mov	r0, r4
 866:.\Generated_Source\PSoC4/CyLFClk.c ****         CY_SYS_WDT_MATCH_REG = (regValue | (match << (counterNum * CY_SYS_WDT_CNT_MATCH_SHIFT)));
 738              		.loc 1 866 0
 739 0018 064A     		ldr	r2, .L78
 740 001a 2D01     		lsl	r5, r5, #4
 741              	.LVL62:
 742 001c AA40     		lsl	r2, r2, r5
 743              		.loc 1 867 0
 744 001e A840     		lsl	r0, r0, r5
 865:.\Generated_Source\PSoC4/CyLFClk.c ****         regValue &= (uint32)~((uint32)(CY_SYS_WDT_LOWER_16BITS_MASK << (counterNum * CY_SYS_WDT_CNT
 745              		.loc 1 865 0
 746 0020 0549     		ldr	r1, .L78+4
 868:.\Generated_Source\PSoC4/CyLFClk.c **** 
 869:.\Generated_Source\PSoC4/CyLFClk.c ****         /* Make sure match synchronization has started */
 870:.\Generated_Source\PSoC4/CyLFClk.c ****         CyDelayUs(CY_SYS_WDT_1LFCLK_DELAY_US);
 871:.\Generated_Source\PSoC4/CyLFClk.c ****     }
 747              		.loc 1 871 0
 748              		@ sp needed
 865:.\Generated_Source\PSoC4/CyLFClk.c ****         regValue &= (uint32)~((uint32)(CY_SYS_WDT_LOWER_16BITS_MASK << (counterNum * CY_SYS_WDT_CNT
 749              		.loc 1 865 0
 750 0022 0B68     		ldr	r3, [r1]
 751              	.LVL63:
 866:.\Generated_Source\PSoC4/CyLFClk.c ****         CY_SYS_WDT_MATCH_REG = (regValue | (match << (counterNum * CY_SYS_WDT_CNT_MATCH_SHIFT)));
 752              		.loc 1 866 0
ARM GAS  C:\Users\Vit\AppData\Local\Temp\ccnJL0JJ.s 			page 30


 753 0024 9343     		bic	r3, r2
 754              	.LVL64:
 867:.\Generated_Source\PSoC4/CyLFClk.c **** 
 755              		.loc 1 867 0
 756 0026 0343     		orr	r3, r0
 757              	.LVL65:
 758 0028 0B60     		str	r3, [r1]
 870:.\Generated_Source\PSoC4/CyLFClk.c ****     }
 759              		.loc 1 870 0
 760 002a 4320     		mov	r0, #67
 761 002c FFF7FEFF 		bl	CyDelayUs
 762              	.LVL66:
 763              	.LVL67:
 764              		.loc 1 871 0
 765 0030 38BD     		pop	{r3, r4, r5, pc}
 766              	.L79:
 767 0032 C046     		.align	2
 768              	.L78:
 769 0034 FFFF0000 		.word	65535
 770 0038 08020B40 		.word	1074463240
 771              		.cfi_endproc
 772              	.LFE15:
 773              		.size	CySysWdtSetMatch, .-CySysWdtSetMatch
 774              		.section	.text.CySysWdtSetToggleBit,"ax",%progbits
 775              		.align	1
 776              		.global	CySysWdtSetToggleBit
 777              		.code	16
 778              		.thumb_func
 779              		.type	CySysWdtSetToggleBit, %function
 780              	CySysWdtSetToggleBit:
 781              	.LFB16:
 872:.\Generated_Source\PSoC4/CyLFClk.c **** 
 873:.\Generated_Source\PSoC4/CyLFClk.c **** 
 874:.\Generated_Source\PSoC4/CyLFClk.c ****     /*******************************************************************************
 875:.\Generated_Source\PSoC4/CyLFClk.c ****     * Function Name: CySysWdtSetToggleBit
 876:.\Generated_Source\PSoC4/CyLFClk.c ****     ********************************************************************************
 877:.\Generated_Source\PSoC4/CyLFClk.c ****     *
 878:.\Generated_Source\PSoC4/CyLFClk.c ****     * Summary:
 879:.\Generated_Source\PSoC4/CyLFClk.c ****     *  Configures which bit in WDT counter 2 to monitor for a toggle. When that
 880:.\Generated_Source\PSoC4/CyLFClk.c ****     *  bit toggles, an interrupt is generated if the mode for counter 2 has
 881:.\Generated_Source\PSoC4/CyLFClk.c ****     *  enabled interrupts.
 882:.\Generated_Source\PSoC4/CyLFClk.c ****     *
 883:.\Generated_Source\PSoC4/CyLFClk.c ****     * Parameters:
 884:.\Generated_Source\PSoC4/CyLFClk.c ****     *  bit:
 885:.\Generated_Source\PSoC4/CyLFClk.c ****     *   Valid range [0-31].  Counter 2 bit to monitor for a toggle.
 886:.\Generated_Source\PSoC4/CyLFClk.c ****     *
 887:.\Generated_Source\PSoC4/CyLFClk.c ****     * Return:
 888:.\Generated_Source\PSoC4/CyLFClk.c ****     *   None.
 889:.\Generated_Source\PSoC4/CyLFClk.c ****     *
 890:.\Generated_Source\PSoC4/CyLFClk.c ****     * Side effects:
 891:.\Generated_Source\PSoC4/CyLFClk.c ****     *   WDT Counter 2 should be disabled. Otherwise this function call has no
 892:.\Generated_Source\PSoC4/CyLFClk.c ****     *   effect.
 893:.\Generated_Source\PSoC4/CyLFClk.c ****     *
 894:.\Generated_Source\PSoC4/CyLFClk.c ****     *   If the specified counter is enabled, call the CySysWdtDisable() function with
 895:.\Generated_Source\PSoC4/CyLFClk.c ****     *   the corresponding parameter to disable the specified counter and wait for it to
 896:.\Generated_Source\PSoC4/CyLFClk.c ****     *   stop. This may take up to 3 LFCLK cycles.
 897:.\Generated_Source\PSoC4/CyLFClk.c ****     *
ARM GAS  C:\Users\Vit\AppData\Local\Temp\ccnJL0JJ.s 			page 31


 898:.\Generated_Source\PSoC4/CyLFClk.c ****     *******************************************************************************/
 899:.\Generated_Source\PSoC4/CyLFClk.c ****     void CySysWdtSetToggleBit(uint32 bits)
 900:.\Generated_Source\PSoC4/CyLFClk.c ****     {
 782              		.loc 1 900 0
 783              		.cfi_startproc
 784              	.LVL68:
 785              	.LBB60:
 786              	.LBB61:
 496:.\Generated_Source\PSoC4/CyLFClk.c ****     }
 787              		.loc 1 496 0
 788 0000 064B     		ldr	r3, .L82
 789 0002 1B68     		ldr	r3, [r3]
 790              	.LBE61:
 791              	.LBE60:
 901:.\Generated_Source\PSoC4/CyLFClk.c ****         uint32 configRegValue;
 902:.\Generated_Source\PSoC4/CyLFClk.c **** 
 903:.\Generated_Source\PSoC4/CyLFClk.c ****         if (0u == CySysWdtGetEnabledStatus(CY_SYS_WDT_COUNTER2))
 792              		.loc 1 903 0
 793 0004 9B03     		lsl	r3, r3, #14
 794 0006 08D4     		bmi	.L80
 904:.\Generated_Source\PSoC4/CyLFClk.c ****         {
 905:.\Generated_Source\PSoC4/CyLFClk.c ****             configRegValue = CY_SYS_WDT_CONFIG_REG;
 795              		.loc 1 905 0
 796 0008 0549     		ldr	r1, .L82+4
 906:.\Generated_Source\PSoC4/CyLFClk.c ****             configRegValue &= (uint32)(~((uint32)(CY_SYS_WDT_CONFIG_BITS2_MASK << CY_SYS_WDT_CONFIG
 797              		.loc 1 906 0
 798 000a 064B     		ldr	r3, .L82+8
 905:.\Generated_Source\PSoC4/CyLFClk.c ****             configRegValue &= (uint32)(~((uint32)(CY_SYS_WDT_CONFIG_BITS2_MASK << CY_SYS_WDT_CONFIG
 799              		.loc 1 905 0
 800 000c 0A68     		ldr	r2, [r1]
 801              	.LVL69:
 802              		.loc 1 906 0
 803 000e 1340     		and	r3, r2
 804              	.LVL70:
 907:.\Generated_Source\PSoC4/CyLFClk.c ****             configRegValue |= ((bits & CY_SYS_WDT_CONFIG_BITS2_MASK) << CY_SYS_WDT_CONFIG_BITS2_POS
 805              		.loc 1 907 0
 806 0010 1F22     		mov	r2, #31
 807 0012 1040     		and	r0, r2
 808              	.LVL71:
 809 0014 0006     		lsl	r0, r0, #24
 810 0016 1843     		orr	r0, r3
 811              	.LVL72:
 908:.\Generated_Source\PSoC4/CyLFClk.c ****             CY_SYS_WDT_CONFIG_REG = configRegValue;
 812              		.loc 1 908 0
 813 0018 0860     		str	r0, [r1]
 814              	.LVL73:
 815              	.L80:
 909:.\Generated_Source\PSoC4/CyLFClk.c ****         }
 910:.\Generated_Source\PSoC4/CyLFClk.c ****     }
 816              		.loc 1 910 0
 817              		@ sp needed
 818 001a 7047     		bx	lr
 819              	.L83:
 820              		.align	2
 821              	.L82:
 822 001c 10020B40 		.word	1074463248
 823 0020 0C020B40 		.word	1074463244
ARM GAS  C:\Users\Vit\AppData\Local\Temp\ccnJL0JJ.s 			page 32


 824 0024 FFFFFFE0 		.word	-520093697
 825              		.cfi_endproc
 826              	.LFE16:
 827              		.size	CySysWdtSetToggleBit, .-CySysWdtSetToggleBit
 828              		.section	.text.CySysWdtGetToggleBit,"ax",%progbits
 829              		.align	1
 830              		.global	CySysWdtGetToggleBit
 831              		.code	16
 832              		.thumb_func
 833              		.type	CySysWdtGetToggleBit, %function
 834              	CySysWdtGetToggleBit:
 835              	.LFB17:
 911:.\Generated_Source\PSoC4/CyLFClk.c **** 
 912:.\Generated_Source\PSoC4/CyLFClk.c **** 
 913:.\Generated_Source\PSoC4/CyLFClk.c ****     /*******************************************************************************
 914:.\Generated_Source\PSoC4/CyLFClk.c ****     * Function Name: CySysWdtGetToggleBit
 915:.\Generated_Source\PSoC4/CyLFClk.c ****     ********************************************************************************
 916:.\Generated_Source\PSoC4/CyLFClk.c ****     *
 917:.\Generated_Source\PSoC4/CyLFClk.c ****     * Summary:
 918:.\Generated_Source\PSoC4/CyLFClk.c ****     *  Reads which bit in WDT counter 2 is monitored for a toggle.
 919:.\Generated_Source\PSoC4/CyLFClk.c ****     *
 920:.\Generated_Source\PSoC4/CyLFClk.c ****     * Parameters:
 921:.\Generated_Source\PSoC4/CyLFClk.c ****     *  None.
 922:.\Generated_Source\PSoC4/CyLFClk.c ****     *
 923:.\Generated_Source\PSoC4/CyLFClk.c ****     * Return:
 924:.\Generated_Source\PSoC4/CyLFClk.c ****     *  The bit that is monitored (range of 0 to 31)
 925:.\Generated_Source\PSoC4/CyLFClk.c ****     *
 926:.\Generated_Source\PSoC4/CyLFClk.c ****     *******************************************************************************/
 927:.\Generated_Source\PSoC4/CyLFClk.c ****     uint32 CySysWdtGetToggleBit(void)
 928:.\Generated_Source\PSoC4/CyLFClk.c ****     {
 836              		.loc 1 928 0
 837              		.cfi_startproc
 929:.\Generated_Source\PSoC4/CyLFClk.c ****         return ((CY_SYS_WDT_CONFIG_REG >> CY_SYS_WDT_CONFIG_BITS2_POS) & CY_SYS_WDT_CONFIG_BITS2_MA
 838              		.loc 1 929 0
 839 0000 024B     		ldr	r3, .L85
 930:.\Generated_Source\PSoC4/CyLFClk.c ****     }
 840              		.loc 1 930 0
 841              		@ sp needed
 929:.\Generated_Source\PSoC4/CyLFClk.c ****         return ((CY_SYS_WDT_CONFIG_REG >> CY_SYS_WDT_CONFIG_BITS2_POS) & CY_SYS_WDT_CONFIG_BITS2_MA
 842              		.loc 1 929 0
 843 0002 1868     		ldr	r0, [r3]
 844 0004 C000     		lsl	r0, r0, #3
 845 0006 C00E     		lsr	r0, r0, #27
 846              		.loc 1 930 0
 847 0008 7047     		bx	lr
 848              	.L86:
 849 000a C046     		.align	2
 850              	.L85:
 851 000c 0C020B40 		.word	1074463244
 852              		.cfi_endproc
 853              	.LFE17:
 854              		.size	CySysWdtGetToggleBit, .-CySysWdtGetToggleBit
 855              		.section	.text.CySysWdtGetMatch,"ax",%progbits
 856              		.align	1
 857              		.global	CySysWdtGetMatch
 858              		.code	16
 859              		.thumb_func
ARM GAS  C:\Users\Vit\AppData\Local\Temp\ccnJL0JJ.s 			page 33


 860              		.type	CySysWdtGetMatch, %function
 861              	CySysWdtGetMatch:
 862              	.LFB18:
 931:.\Generated_Source\PSoC4/CyLFClk.c **** 
 932:.\Generated_Source\PSoC4/CyLFClk.c **** 
 933:.\Generated_Source\PSoC4/CyLFClk.c ****     /*******************************************************************************
 934:.\Generated_Source\PSoC4/CyLFClk.c ****     * Function Name: CySysWdtGetMatch
 935:.\Generated_Source\PSoC4/CyLFClk.c ****     ********************************************************************************
 936:.\Generated_Source\PSoC4/CyLFClk.c ****     *
 937:.\Generated_Source\PSoC4/CyLFClk.c ****     * Summary:
 938:.\Generated_Source\PSoC4/CyLFClk.c ****     *  Reads the WDT counter match comparison value.
 939:.\Generated_Source\PSoC4/CyLFClk.c ****     *
 940:.\Generated_Source\PSoC4/CyLFClk.c ****     * Parameters:
 941:.\Generated_Source\PSoC4/CyLFClk.c ****     *  counterNum: Valid range [0-1].  The number of the WDT counter.  The match values
 942:.\Generated_Source\PSoC4/CyLFClk.c ****     *               are not supported by counter 2.
 943:.\Generated_Source\PSoC4/CyLFClk.c ****     *
 944:.\Generated_Source\PSoC4/CyLFClk.c ****     * Return:
 945:.\Generated_Source\PSoC4/CyLFClk.c ****     *  A 16-bit match value.
 946:.\Generated_Source\PSoC4/CyLFClk.c ****     *
 947:.\Generated_Source\PSoC4/CyLFClk.c ****     *******************************************************************************/
 948:.\Generated_Source\PSoC4/CyLFClk.c ****     uint32 CySysWdtGetMatch(uint32 counterNum)
 949:.\Generated_Source\PSoC4/CyLFClk.c ****     {
 863              		.loc 1 949 0
 864              		.cfi_startproc
 865              	.LVL74:
 866 0000 10B5     		push	{r4, lr}
 867              		.cfi_def_cfa_offset 8
 868              		.cfi_offset 4, -8
 869              		.cfi_offset 14, -4
 870              		.loc 1 949 0
 871 0002 041E     		sub	r4, r0, #0
 950:.\Generated_Source\PSoC4/CyLFClk.c ****         CYASSERT((counterNum == CY_SYS_WDT_COUNTER0) ||
 872              		.loc 1 950 0
 873 0004 012C     		cmp	r4, #1
 874 0006 02D9     		bls	.L88
 875              		.loc 1 950 0 is_stmt 0 discriminator 1
 876 0008 0020     		mov	r0, #0
 877              	.LVL75:
 878 000a FFF7FEFF 		bl	CyHalt
 879              	.LVL76:
 880              	.L88:
 951:.\Generated_Source\PSoC4/CyLFClk.c ****                  (counterNum == CY_SYS_WDT_COUNTER1));
 952:.\Generated_Source\PSoC4/CyLFClk.c **** 
 953:.\Generated_Source\PSoC4/CyLFClk.c ****         return ((uint32)(CY_SYS_WDT_MATCH_REG >> (counterNum * CY_SYS_WDT_CNT_MATCH_SHIFT)) & CY_SY
 881              		.loc 1 953 0 is_stmt 1
 882 000e 034B     		ldr	r3, .L89
 883 0010 2401     		lsl	r4, r4, #4
 884              	.LVL77:
 885 0012 1B68     		ldr	r3, [r3]
 954:.\Generated_Source\PSoC4/CyLFClk.c ****     }
 886              		.loc 1 954 0
 887              		@ sp needed
 953:.\Generated_Source\PSoC4/CyLFClk.c ****     }
 888              		.loc 1 953 0
 889 0014 E340     		lsr	r3, r3, r4
 890 0016 98B2     		uxth	r0, r3
 891              		.loc 1 954 0
ARM GAS  C:\Users\Vit\AppData\Local\Temp\ccnJL0JJ.s 			page 34


 892 0018 10BD     		pop	{r4, pc}
 893              	.L90:
 894 001a C046     		.align	2
 895              	.L89:
 896 001c 08020B40 		.word	1074463240
 897              		.cfi_endproc
 898              	.LFE18:
 899              		.size	CySysWdtGetMatch, .-CySysWdtGetMatch
 900              		.section	.text.CySysWdtGetCount,"ax",%progbits
 901              		.align	1
 902              		.global	CySysWdtGetCount
 903              		.code	16
 904              		.thumb_func
 905              		.type	CySysWdtGetCount, %function
 906              	CySysWdtGetCount:
 907              	.LFB19:
 955:.\Generated_Source\PSoC4/CyLFClk.c **** 
 956:.\Generated_Source\PSoC4/CyLFClk.c **** 
 957:.\Generated_Source\PSoC4/CyLFClk.c ****     /*******************************************************************************
 958:.\Generated_Source\PSoC4/CyLFClk.c ****     * Function Name: CySysWdtGetCount
 959:.\Generated_Source\PSoC4/CyLFClk.c ****     ********************************************************************************
 960:.\Generated_Source\PSoC4/CyLFClk.c ****     *
 961:.\Generated_Source\PSoC4/CyLFClk.c ****     * Summary:
 962:.\Generated_Source\PSoC4/CyLFClk.c ****     *  Reads the current WDT counter value.
 963:.\Generated_Source\PSoC4/CyLFClk.c ****     *
 964:.\Generated_Source\PSoC4/CyLFClk.c ****     * Parameters:
 965:.\Generated_Source\PSoC4/CyLFClk.c ****     *  counterNum: Valid range [0-2].  The number of the WDT counter.
 966:.\Generated_Source\PSoC4/CyLFClk.c ****     *
 967:.\Generated_Source\PSoC4/CyLFClk.c ****     * Return:
 968:.\Generated_Source\PSoC4/CyLFClk.c ****     *  A live counter value.  Counter 0 and 1 are 16 bit counters and counter
 969:.\Generated_Source\PSoC4/CyLFClk.c ****     *  2 is a 32 bit counter.
 970:.\Generated_Source\PSoC4/CyLFClk.c ****     *
 971:.\Generated_Source\PSoC4/CyLFClk.c ****     *******************************************************************************/
 972:.\Generated_Source\PSoC4/CyLFClk.c ****     uint32 CySysWdtGetCount(uint32 counterNum)
 973:.\Generated_Source\PSoC4/CyLFClk.c ****     {
 908              		.loc 1 973 0
 909              		.cfi_startproc
 910              	.LVL78:
 911 0000 08B5     		push	{r3, lr}
 912              		.cfi_def_cfa_offset 8
 913              		.cfi_offset 3, -8
 914              		.cfi_offset 14, -4
 974:.\Generated_Source\PSoC4/CyLFClk.c ****         uint32 regValue = 0u;
 975:.\Generated_Source\PSoC4/CyLFClk.c **** 
 976:.\Generated_Source\PSoC4/CyLFClk.c ****         switch(counterNum)
 915              		.loc 1 976 0
 916 0002 0128     		cmp	r0, #1
 917 0004 0AD0     		beq	.L93
 918 0006 0028     		cmp	r0, #0
 919 0008 04D0     		beq	.L94
 920 000a 0228     		cmp	r0, #2
 921 000c 0AD1     		bne	.L98
 977:.\Generated_Source\PSoC4/CyLFClk.c ****         {
 978:.\Generated_Source\PSoC4/CyLFClk.c ****             /* WDT Counter 0 */
 979:.\Generated_Source\PSoC4/CyLFClk.c ****             case 0u:
 980:.\Generated_Source\PSoC4/CyLFClk.c ****                 regValue = CY_SYS_WDT_CTRLOW_REG & CY_SYS_WDT_LOWER_16BITS_MASK;
 981:.\Generated_Source\PSoC4/CyLFClk.c ****             break;
ARM GAS  C:\Users\Vit\AppData\Local\Temp\ccnJL0JJ.s 			page 35


 982:.\Generated_Source\PSoC4/CyLFClk.c **** 
 983:.\Generated_Source\PSoC4/CyLFClk.c ****             /* WDT Counter 1 */
 984:.\Generated_Source\PSoC4/CyLFClk.c ****             case 1u:
 985:.\Generated_Source\PSoC4/CyLFClk.c ****                 regValue = (CY_SYS_WDT_CTRLOW_REG >> CY_SYS_WDT_CNT_MATCH_SHIFT) & CY_SYS_WDT_LOWER
 986:.\Generated_Source\PSoC4/CyLFClk.c ****             break;
 987:.\Generated_Source\PSoC4/CyLFClk.c **** 
 988:.\Generated_Source\PSoC4/CyLFClk.c ****             /* WDT Counter 2 */
 989:.\Generated_Source\PSoC4/CyLFClk.c ****             case 2u:
 990:.\Generated_Source\PSoC4/CyLFClk.c ****                 regValue = CY_SYS_WDT_CTRHIGH_REG;
 922              		.loc 1 990 0
 923 000e 084B     		ldr	r3, .L99
 924 0010 1868     		ldr	r0, [r3]
 925              	.LVL79:
 991:.\Generated_Source\PSoC4/CyLFClk.c ****             break;
 926              		.loc 1 991 0
 927 0012 0BE0     		b	.L96
 928              	.LVL80:
 929              	.L94:
 980:.\Generated_Source\PSoC4/CyLFClk.c ****             break;
 930              		.loc 1 980 0
 931 0014 074B     		ldr	r3, .L99+4
 932 0016 1868     		ldr	r0, [r3]
 933              	.LVL81:
 934 0018 80B2     		uxth	r0, r0
 935              	.LVL82:
 981:.\Generated_Source\PSoC4/CyLFClk.c **** 
 936              		.loc 1 981 0
 937 001a 07E0     		b	.L96
 938              	.LVL83:
 939              	.L93:
 985:.\Generated_Source\PSoC4/CyLFClk.c ****             break;
 940              		.loc 1 985 0
 941 001c 054B     		ldr	r3, .L99+4
 942 001e 1868     		ldr	r0, [r3]
 943              	.LVL84:
 944 0020 000C     		lsr	r0, r0, #16
 945              	.LVL85:
 986:.\Generated_Source\PSoC4/CyLFClk.c **** 
 946              		.loc 1 986 0
 947 0022 03E0     		b	.L96
 948              	.LVL86:
 949              	.L98:
 992:.\Generated_Source\PSoC4/CyLFClk.c **** 
 993:.\Generated_Source\PSoC4/CyLFClk.c ****             default:
 994:.\Generated_Source\PSoC4/CyLFClk.c ****                 CYASSERT(0u != 0u);
 950              		.loc 1 994 0 discriminator 1
 951 0024 0020     		mov	r0, #0
 952              	.LVL87:
 953 0026 FFF7FEFF 		bl	CyHalt
 954              	.LVL88:
 974:.\Generated_Source\PSoC4/CyLFClk.c **** 
 955              		.loc 1 974 0 discriminator 1
 956 002a 0020     		mov	r0, #0
 957              	.LVL89:
 958              	.L96:
 995:.\Generated_Source\PSoC4/CyLFClk.c ****             break;
 996:.\Generated_Source\PSoC4/CyLFClk.c ****         }
ARM GAS  C:\Users\Vit\AppData\Local\Temp\ccnJL0JJ.s 			page 36


 997:.\Generated_Source\PSoC4/CyLFClk.c **** 
 998:.\Generated_Source\PSoC4/CyLFClk.c ****         return (regValue);
 999:.\Generated_Source\PSoC4/CyLFClk.c ****     }
 959              		.loc 1 999 0
 960              		@ sp needed
 961 002c 08BD     		pop	{r3, pc}
 962              	.L100:
 963 002e C046     		.align	2
 964              	.L99:
 965 0030 04020B40 		.word	1074463236
 966 0034 00020B40 		.word	1074463232
 967              		.cfi_endproc
 968              	.LFE19:
 969              		.size	CySysWdtGetCount, .-CySysWdtGetCount
 970              		.section	.text.CySysClkIloStop,"ax",%progbits
 971              		.align	1
 972              		.global	CySysClkIloStop
 973              		.code	16
 974              		.thumb_func
 975              		.type	CySysClkIloStop, %function
 976              	CySysClkIloStop:
 977              	.LFB1:
  97:.\Generated_Source\PSoC4/CyLFClk.c ****     #if(CY_IP_SRSSV2)
 978              		.loc 1 97 0
 979              		.cfi_startproc
 980              	.LBB78:
 981              	.LBB79:
 437:.\Generated_Source\PSoC4/CyLFClk.c ****     }
 982              		.loc 1 437 0
 983 0000 274B     		ldr	r3, .L118
 984              	.LBE79:
 985              	.LBE78:
  97:.\Generated_Source\PSoC4/CyLFClk.c ****     #if(CY_IP_SRSSV2)
 986              		.loc 1 97 0
 987 0002 F7B5     		push	{r0, r1, r2, r4, r5, r6, r7, lr}
 988              		.cfi_def_cfa_offset 32
 989              		.cfi_offset 0, -32
 990              		.cfi_offset 1, -28
 991              		.cfi_offset 2, -24
 992              		.cfi_offset 4, -20
 993              		.cfi_offset 5, -16
 994              		.cfi_offset 6, -12
 995              		.cfi_offset 7, -8
 996              		.cfi_offset 14, -4
 997              	.LBB81:
 998              	.LBB80:
 437:.\Generated_Source\PSoC4/CyLFClk.c ****     }
 999              		.loc 1 437 0
 1000 0004 1A68     		ldr	r2, [r3]
 1001 0006 C023     		mov	r3, #192
 1002 0008 1B02     		lsl	r3, r3, #8
 1003 000a 1A40     		and	r2, r3
 1004 000c 0092     		str	r2, [sp]
 1005 000e 45D1     		bne	.L101
 1006              	.LBE80:
 1007              	.LBE81:
 1008              	.LBB82:
ARM GAS  C:\Users\Vit\AppData\Local\Temp\ccnJL0JJ.s 			page 37


 1009              	.LBB83:
 151:.\Generated_Source\PSoC4/CyLFClk.c ****             (uint32) 1u :
 1010              		.loc 1 151 0
 1011 0010 244F     		ldr	r7, .L118+4
 1012 0012 3B68     		ldr	r3, [r7]
 152:.\Generated_Source\PSoC4/CyLFClk.c ****             (uint32) 0u);
 1013              		.loc 1 152 0
 1014 0014 002B     		cmp	r3, #0
 1015 0016 41DA     		bge	.L101
 1016              	.LBE83:
 1017              	.LBE82:
 112:.\Generated_Source\PSoC4/CyLFClk.c ****                 CySysClkLfclkPosedgeCatch();
 1018              		.loc 1 112 0
 1019 0018 FFF7FEFF 		bl	CyEnterCriticalSection
 1020              	.LVL90:
 1021              	.LBB84:
 1022              	.LBB85:
 1023              	.LBB86:
 1024              	.LBB87:
 496:.\Generated_Source\PSoC4/CyLFClk.c ****     }
 1025              		.loc 1 496 0
 1026 001c 224D     		ldr	r5, .L118+8
 1027              	.LBE87:
 1028              	.LBE86:
 1029              	.LBE85:
 1030              	.LBE84:
 112:.\Generated_Source\PSoC4/CyLFClk.c ****                 CySysClkLfclkPosedgeCatch();
 1031              		.loc 1 112 0
 1032 001e 0190     		str	r0, [sp, #4]
 1033              	.LVL91:
 1034              	.LBB101:
 1035              	.LBB100:
 1036              	.LBB89:
 1037              	.LBB88:
 496:.\Generated_Source\PSoC4/CyLFClk.c ****     }
 1038              		.loc 1 496 0
 1039 0020 2B68     		ldr	r3, [r5]
 1040 0022 0126     		mov	r6, #1
 1041 0024 214C     		ldr	r4, .L118+12
 1042              	.LBE88:
 1043              	.LBE89:
1000:.\Generated_Source\PSoC4/CyLFClk.c **** 
1001:.\Generated_Source\PSoC4/CyLFClk.c **** 
1002:.\Generated_Source\PSoC4/CyLFClk.c ****     /*******************************************************************************
1003:.\Generated_Source\PSoC4/CyLFClk.c ****     * Function Name: CySysWdtGetInterruptSource
1004:.\Generated_Source\PSoC4/CyLFClk.c ****     ********************************************************************************
1005:.\Generated_Source\PSoC4/CyLFClk.c ****     *
1006:.\Generated_Source\PSoC4/CyLFClk.c ****     * Summary:
1007:.\Generated_Source\PSoC4/CyLFClk.c ****     *   Reads a mask containing all the WDT counters interrupts that are currently
1008:.\Generated_Source\PSoC4/CyLFClk.c ****     *   set by the hardware, if a corresponding mode is selected.
1009:.\Generated_Source\PSoC4/CyLFClk.c ****     *
1010:.\Generated_Source\PSoC4/CyLFClk.c ****     * Parameters:
1011:.\Generated_Source\PSoC4/CyLFClk.c ****     *   None.
1012:.\Generated_Source\PSoC4/CyLFClk.c ****     *
1013:.\Generated_Source\PSoC4/CyLFClk.c ****     * Return:
1014:.\Generated_Source\PSoC4/CyLFClk.c ****     *   The mask of interrupts set.
1015:.\Generated_Source\PSoC4/CyLFClk.c ****     *   Define                    Counter
ARM GAS  C:\Users\Vit\AppData\Local\Temp\ccnJL0JJ.s 			page 38


1016:.\Generated_Source\PSoC4/CyLFClk.c ****     *   CY_SYS_WDT_COUNTER0_INT    0
1017:.\Generated_Source\PSoC4/CyLFClk.c ****     *   CY_SYS_WDT_COUNTER1_INT    1
1018:.\Generated_Source\PSoC4/CyLFClk.c ****     *   CY_SYS_WDT_COUNTER2_INT    2
1019:.\Generated_Source\PSoC4/CyLFClk.c ****     *
1020:.\Generated_Source\PSoC4/CyLFClk.c ****     *******************************************************************************/
1021:.\Generated_Source\PSoC4/CyLFClk.c ****     uint32 CySysWdtGetInterruptSource(void)
1022:.\Generated_Source\PSoC4/CyLFClk.c ****     {
1023:.\Generated_Source\PSoC4/CyLFClk.c ****         return (CY_SYS_WDT_CONTROL_REG & (CY_SYS_WDT_COUNTER0_INT | CY_SYS_WDT_COUNTER1_INT | CY_SY
1024:.\Generated_Source\PSoC4/CyLFClk.c ****     }
1025:.\Generated_Source\PSoC4/CyLFClk.c **** 
1026:.\Generated_Source\PSoC4/CyLFClk.c **** 
1027:.\Generated_Source\PSoC4/CyLFClk.c ****     /*******************************************************************************
1028:.\Generated_Source\PSoC4/CyLFClk.c ****     * Function Name: CySysWdtClearInterrupt
1029:.\Generated_Source\PSoC4/CyLFClk.c ****     ********************************************************************************
1030:.\Generated_Source\PSoC4/CyLFClk.c ****     *
1031:.\Generated_Source\PSoC4/CyLFClk.c ****     * Summary:
1032:.\Generated_Source\PSoC4/CyLFClk.c ****     *   Clears all the WDT counter interrupts set in the mask. Calling this function
1033:.\Generated_Source\PSoC4/CyLFClk.c ****     *   also prevents from Reset when the counter mode is set to generate
1034:.\Generated_Source\PSoC4/CyLFClk.c ****     *   3 interrupts and then the device resets.
1035:.\Generated_Source\PSoC4/CyLFClk.c ****     *
1036:.\Generated_Source\PSoC4/CyLFClk.c ****     *   All the WDT interrupts are to be cleared by the firmware, otherwise
1037:.\Generated_Source\PSoC4/CyLFClk.c ****     *   interrupts are generated continuously.
1038:.\Generated_Source\PSoC4/CyLFClk.c ****     *
1039:.\Generated_Source\PSoC4/CyLFClk.c ****     * Parameters:
1040:.\Generated_Source\PSoC4/CyLFClk.c ****     *   counterMask: The mask of all the counters to enable.
1041:.\Generated_Source\PSoC4/CyLFClk.c ****     *   Define                    Counter
1042:.\Generated_Source\PSoC4/CyLFClk.c ****     *   CY_SYS_WDT_COUNTER0_INT    0
1043:.\Generated_Source\PSoC4/CyLFClk.c ****     *   CY_SYS_WDT_COUNTER1_INT    1
1044:.\Generated_Source\PSoC4/CyLFClk.c ****     *   CY_SYS_WDT_COUNTER2_INT    2
1045:.\Generated_Source\PSoC4/CyLFClk.c ****     *
1046:.\Generated_Source\PSoC4/CyLFClk.c ****     * Return:
1047:.\Generated_Source\PSoC4/CyLFClk.c ****     *   None
1048:.\Generated_Source\PSoC4/CyLFClk.c ****     *
1049:.\Generated_Source\PSoC4/CyLFClk.c ****     * Side effects:
1050:.\Generated_Source\PSoC4/CyLFClk.c ****     *   This function temporary removes the watchdog lock, if it was set, and
1051:.\Generated_Source\PSoC4/CyLFClk.c ****     *   restores the lock state after cleaning the WDT interrupts that are set in
1052:.\Generated_Source\PSoC4/CyLFClk.c ****     *   a mask.
1053:.\Generated_Source\PSoC4/CyLFClk.c ****     *
1054:.\Generated_Source\PSoC4/CyLFClk.c ****     *******************************************************************************/
1055:.\Generated_Source\PSoC4/CyLFClk.c ****     void CySysWdtClearInterrupt(uint32 counterMask)
1056:.\Generated_Source\PSoC4/CyLFClk.c ****     {
1057:.\Generated_Source\PSoC4/CyLFClk.c ****         uint8 interruptState;
1058:.\Generated_Source\PSoC4/CyLFClk.c ****         uint32 wdtLockState;
1059:.\Generated_Source\PSoC4/CyLFClk.c **** 
1060:.\Generated_Source\PSoC4/CyLFClk.c ****         interruptState = CyEnterCriticalSection();
1061:.\Generated_Source\PSoC4/CyLFClk.c **** 
1062:.\Generated_Source\PSoC4/CyLFClk.c ****         if (0u != CySysWdtLocked())
1063:.\Generated_Source\PSoC4/CyLFClk.c ****         {
1064:.\Generated_Source\PSoC4/CyLFClk.c ****             wdtLockState = 1u;
1065:.\Generated_Source\PSoC4/CyLFClk.c ****             CySysWdtUnlock();
1066:.\Generated_Source\PSoC4/CyLFClk.c ****         }
1067:.\Generated_Source\PSoC4/CyLFClk.c ****         else
1068:.\Generated_Source\PSoC4/CyLFClk.c ****         {
1069:.\Generated_Source\PSoC4/CyLFClk.c ****             wdtLockState = 0u;
1070:.\Generated_Source\PSoC4/CyLFClk.c ****         }
1071:.\Generated_Source\PSoC4/CyLFClk.c **** 
1072:.\Generated_Source\PSoC4/CyLFClk.c ****         /* Set new WDT control register value */
ARM GAS  C:\Users\Vit\AppData\Local\Temp\ccnJL0JJ.s 			page 39


1073:.\Generated_Source\PSoC4/CyLFClk.c ****         counterMask &= (CY_SYS_WDT_COUNTER0_INT |
1074:.\Generated_Source\PSoC4/CyLFClk.c ****                         CY_SYS_WDT_COUNTER1_INT |
1075:.\Generated_Source\PSoC4/CyLFClk.c ****                         CY_SYS_WDT_COUNTER2_INT);
1076:.\Generated_Source\PSoC4/CyLFClk.c **** 
1077:.\Generated_Source\PSoC4/CyLFClk.c ****         CY_SYS_WDT_CONTROL_REG = counterMask | (CY_SYS_WDT_CONTROL_REG & ~(CY_SYS_WDT_COUNTER0_INT 
1078:.\Generated_Source\PSoC4/CyLFClk.c ****                                                                            CY_SYS_WDT_COUNTER1_INT 
1079:.\Generated_Source\PSoC4/CyLFClk.c ****                                                                            CY_SYS_WDT_COUNTER2_INT)
1080:.\Generated_Source\PSoC4/CyLFClk.c **** 
1081:.\Generated_Source\PSoC4/CyLFClk.c ****         /* Read the CY_SYS_WDT_CONTROL_REG to clear the interrupt request.
1082:.\Generated_Source\PSoC4/CyLFClk.c ****          * Cypress ID #207093, #206231
1083:.\Generated_Source\PSoC4/CyLFClk.c ****         */
1084:.\Generated_Source\PSoC4/CyLFClk.c ****         (void)CY_SYS_WDT_CONTROL_REG;
1085:.\Generated_Source\PSoC4/CyLFClk.c **** 
1086:.\Generated_Source\PSoC4/CyLFClk.c ****         if (1u == wdtLockState)
1087:.\Generated_Source\PSoC4/CyLFClk.c ****         {
1088:.\Generated_Source\PSoC4/CyLFClk.c ****             CySysWdtLock();
1089:.\Generated_Source\PSoC4/CyLFClk.c ****         }
1090:.\Generated_Source\PSoC4/CyLFClk.c **** 
1091:.\Generated_Source\PSoC4/CyLFClk.c ****         CyExitCriticalSection(interruptState);
1092:.\Generated_Source\PSoC4/CyLFClk.c ****     }
1093:.\Generated_Source\PSoC4/CyLFClk.c **** 
1094:.\Generated_Source\PSoC4/CyLFClk.c **** 
1095:.\Generated_Source\PSoC4/CyLFClk.c ****     /*******************************************************************************
1096:.\Generated_Source\PSoC4/CyLFClk.c ****     * Function Name: CySysWdtResetCounters
1097:.\Generated_Source\PSoC4/CyLFClk.c ****     ********************************************************************************
1098:.\Generated_Source\PSoC4/CyLFClk.c ****     *
1099:.\Generated_Source\PSoC4/CyLFClk.c ****     * Summary:
1100:.\Generated_Source\PSoC4/CyLFClk.c ****     *  Resets all the WDT counters set in the mask.
1101:.\Generated_Source\PSoC4/CyLFClk.c ****     *
1102:.\Generated_Source\PSoC4/CyLFClk.c ****     * Parameters:
1103:.\Generated_Source\PSoC4/CyLFClk.c ****     *  counterMask: The mask of all the counters to reset.
1104:.\Generated_Source\PSoC4/CyLFClk.c ****     *   Define                       Counter
1105:.\Generated_Source\PSoC4/CyLFClk.c ****     *   CY_SYS_WDT_COUNTER0_RESET    0
1106:.\Generated_Source\PSoC4/CyLFClk.c ****     *   CY_SYS_WDT_COUNTER1_RESET    1
1107:.\Generated_Source\PSoC4/CyLFClk.c ****     *   CY_SYS_WDT_COUNTER2_RESET    2
1108:.\Generated_Source\PSoC4/CyLFClk.c ****     *
1109:.\Generated_Source\PSoC4/CyLFClk.c ****     * Return:
1110:.\Generated_Source\PSoC4/CyLFClk.c ****     *   None
1111:.\Generated_Source\PSoC4/CyLFClk.c ****     *
1112:.\Generated_Source\PSoC4/CyLFClk.c ****     * Side effects:
1113:.\Generated_Source\PSoC4/CyLFClk.c ****     *   This function does not reset counter values if the Watchdog is locked.
1114:.\Generated_Source\PSoC4/CyLFClk.c ****     *   This function waits while corresponding counters will be reset. This may
1115:.\Generated_Source\PSoC4/CyLFClk.c ****     *   take up to 3 LFCLK cycles.
1116:.\Generated_Source\PSoC4/CyLFClk.c ****     *   The LFCLK source must be enabled. Otherwise, the function will never exit.
1117:.\Generated_Source\PSoC4/CyLFClk.c ****     *
1118:.\Generated_Source\PSoC4/CyLFClk.c ****     *******************************************************************************/
1119:.\Generated_Source\PSoC4/CyLFClk.c ****     void CySysWdtResetCounters(uint32 countersMask)
1120:.\Generated_Source\PSoC4/CyLFClk.c ****     {
1121:.\Generated_Source\PSoC4/CyLFClk.c ****         /* Set new WDT reset value */
1122:.\Generated_Source\PSoC4/CyLFClk.c ****         CY_SYS_WDT_CONTROL_REG |= (countersMask & CY_SYS_WDT_COUNTERS_RESET);
1123:.\Generated_Source\PSoC4/CyLFClk.c **** 
1124:.\Generated_Source\PSoC4/CyLFClk.c ****         while (0uL != (CY_SYS_WDT_CONTROL_REG & CY_SYS_WDT_COUNTERS_RESET))
1125:.\Generated_Source\PSoC4/CyLFClk.c ****         {
1126:.\Generated_Source\PSoC4/CyLFClk.c ****             /* Wait for reset to come into effect */
1127:.\Generated_Source\PSoC4/CyLFClk.c ****         }
1128:.\Generated_Source\PSoC4/CyLFClk.c ****     }
1129:.\Generated_Source\PSoC4/CyLFClk.c **** 
ARM GAS  C:\Users\Vit\AppData\Local\Temp\ccnJL0JJ.s 			page 40


1130:.\Generated_Source\PSoC4/CyLFClk.c **** 
1131:.\Generated_Source\PSoC4/CyLFClk.c ****     /*******************************************************************************
1132:.\Generated_Source\PSoC4/CyLFClk.c ****     * Function Name: CySysWdtSetInterruptCallback
1133:.\Generated_Source\PSoC4/CyLFClk.c ****     ********************************************************************************
1134:.\Generated_Source\PSoC4/CyLFClk.c ****     *
1135:.\Generated_Source\PSoC4/CyLFClk.c ****     * Summary:
1136:.\Generated_Source\PSoC4/CyLFClk.c ****     *  Sets the ISR callback function for the particular WDT counter.
1137:.\Generated_Source\PSoC4/CyLFClk.c ****     *  These functions are called on the WDT interrupt.
1138:.\Generated_Source\PSoC4/CyLFClk.c ****     *
1139:.\Generated_Source\PSoC4/CyLFClk.c ****     * Parameters:
1140:.\Generated_Source\PSoC4/CyLFClk.c ****     *  counterNum : The number of the WDT counter.
1141:.\Generated_Source\PSoC4/CyLFClk.c ****     *  function   : The pointer to the callback function.
1142:.\Generated_Source\PSoC4/CyLFClk.c ****     *
1143:.\Generated_Source\PSoC4/CyLFClk.c ****     * Return:
1144:.\Generated_Source\PSoC4/CyLFClk.c ****     *  The pointer to the previous callback function.
1145:.\Generated_Source\PSoC4/CyLFClk.c ****     *  NULL is returned if the specified address is not set.
1146:.\Generated_Source\PSoC4/CyLFClk.c ****     *
1147:.\Generated_Source\PSoC4/CyLFClk.c ****     *******************************************************************************/
1148:.\Generated_Source\PSoC4/CyLFClk.c ****     cyWdtCallback CySysWdtSetInterruptCallback(uint32 counterNum, cyWdtCallback function)
1149:.\Generated_Source\PSoC4/CyLFClk.c ****     {
1150:.\Generated_Source\PSoC4/CyLFClk.c ****         cyWdtCallback prevCallback = (void *)0;
1151:.\Generated_Source\PSoC4/CyLFClk.c **** 
1152:.\Generated_Source\PSoC4/CyLFClk.c ****         if(counterNum < CY_WDT_NUM_OF_WDT)
1153:.\Generated_Source\PSoC4/CyLFClk.c ****         {
1154:.\Generated_Source\PSoC4/CyLFClk.c ****             prevCallback = cySysWdtCallback[counterNum];
1155:.\Generated_Source\PSoC4/CyLFClk.c ****             cySysWdtCallback[counterNum] = function;
1156:.\Generated_Source\PSoC4/CyLFClk.c ****         }
1157:.\Generated_Source\PSoC4/CyLFClk.c ****         else
1158:.\Generated_Source\PSoC4/CyLFClk.c ****         {
1159:.\Generated_Source\PSoC4/CyLFClk.c ****             CYASSERT(0u != 0u);
1160:.\Generated_Source\PSoC4/CyLFClk.c ****         }
1161:.\Generated_Source\PSoC4/CyLFClk.c **** 
1162:.\Generated_Source\PSoC4/CyLFClk.c ****         return((cyWdtCallback)prevCallback);
1163:.\Generated_Source\PSoC4/CyLFClk.c ****     }
1164:.\Generated_Source\PSoC4/CyLFClk.c **** 
1165:.\Generated_Source\PSoC4/CyLFClk.c **** 
1166:.\Generated_Source\PSoC4/CyLFClk.c ****     /*******************************************************************************
1167:.\Generated_Source\PSoC4/CyLFClk.c ****     * Function Name: CySysWdtGetInterruptCallback
1168:.\Generated_Source\PSoC4/CyLFClk.c ****     ********************************************************************************
1169:.\Generated_Source\PSoC4/CyLFClk.c ****     *
1170:.\Generated_Source\PSoC4/CyLFClk.c ****     * Summary:
1171:.\Generated_Source\PSoC4/CyLFClk.c ****     *  Gets the ISR callback function for the particular WDT counter.
1172:.\Generated_Source\PSoC4/CyLFClk.c ****     *
1173:.\Generated_Source\PSoC4/CyLFClk.c ****     * Parameters:
1174:.\Generated_Source\PSoC4/CyLFClk.c ****     *  counterNum : The number of the WDT counter.
1175:.\Generated_Source\PSoC4/CyLFClk.c ****     *
1176:.\Generated_Source\PSoC4/CyLFClk.c ****     * Return:
1177:.\Generated_Source\PSoC4/CyLFClk.c ****     *  The pointer to the callback function registered for a particular WDT by
1178:.\Generated_Source\PSoC4/CyLFClk.c ****     *  a particular address that are passed through arguments.
1179:.\Generated_Source\PSoC4/CyLFClk.c ****     *
1180:.\Generated_Source\PSoC4/CyLFClk.c ****     *******************************************************************************/
1181:.\Generated_Source\PSoC4/CyLFClk.c ****     cyWdtCallback CySysWdtGetInterruptCallback(uint32 counterNum)
1182:.\Generated_Source\PSoC4/CyLFClk.c ****     {
1183:.\Generated_Source\PSoC4/CyLFClk.c ****         cyWdtCallback retCallback = (void *)0;
1184:.\Generated_Source\PSoC4/CyLFClk.c **** 
1185:.\Generated_Source\PSoC4/CyLFClk.c ****         if(counterNum < CY_WDT_NUM_OF_WDT)
1186:.\Generated_Source\PSoC4/CyLFClk.c ****         {
ARM GAS  C:\Users\Vit\AppData\Local\Temp\ccnJL0JJ.s 			page 41


1187:.\Generated_Source\PSoC4/CyLFClk.c ****             retCallback = (cyWdtCallback)cySysWdtCallback[counterNum];
1188:.\Generated_Source\PSoC4/CyLFClk.c ****         }
1189:.\Generated_Source\PSoC4/CyLFClk.c ****         else
1190:.\Generated_Source\PSoC4/CyLFClk.c ****         {
1191:.\Generated_Source\PSoC4/CyLFClk.c ****             CYASSERT(0u != 0u);
1192:.\Generated_Source\PSoC4/CyLFClk.c ****         }
1193:.\Generated_Source\PSoC4/CyLFClk.c **** 
1194:.\Generated_Source\PSoC4/CyLFClk.c ****         return(retCallback);
1195:.\Generated_Source\PSoC4/CyLFClk.c ****     }
1196:.\Generated_Source\PSoC4/CyLFClk.c **** 
1197:.\Generated_Source\PSoC4/CyLFClk.c **** 
1198:.\Generated_Source\PSoC4/CyLFClk.c ****     /*******************************************************************************
1199:.\Generated_Source\PSoC4/CyLFClk.c ****     * Function Name: CySysWdtEnableCounterIsr
1200:.\Generated_Source\PSoC4/CyLFClk.c ****     ********************************************************************************
1201:.\Generated_Source\PSoC4/CyLFClk.c ****     *
1202:.\Generated_Source\PSoC4/CyLFClk.c ****     * Summary:
1203:.\Generated_Source\PSoC4/CyLFClk.c ****     *  Enables the ISR callback servicing for the particular WDT counter
1204:.\Generated_Source\PSoC4/CyLFClk.c ****     *
1205:.\Generated_Source\PSoC4/CyLFClk.c ****     * Parameters:
1206:.\Generated_Source\PSoC4/CyLFClk.c ****     *  counterNum: Valid range [0-2].  The number of the WDT counter.
1207:.\Generated_Source\PSoC4/CyLFClk.c ****     *
1208:.\Generated_Source\PSoC4/CyLFClk.c ****     *******************************************************************************/
1209:.\Generated_Source\PSoC4/CyLFClk.c ****     void CySysWdtEnableCounterIsr(uint32 counterNum)
1210:.\Generated_Source\PSoC4/CyLFClk.c ****     {
1211:.\Generated_Source\PSoC4/CyLFClk.c ****         if(counterNum <= CY_SYS_WDT_COUNTER2)
1212:.\Generated_Source\PSoC4/CyLFClk.c ****         {
1213:.\Generated_Source\PSoC4/CyLFClk.c ****             disableServicedIsr &= ~counterIntMaskTbl[counterNum];
1214:.\Generated_Source\PSoC4/CyLFClk.c ****             wdtIsrMask |= counterIntMaskTbl[counterNum];
1215:.\Generated_Source\PSoC4/CyLFClk.c ****         }
1216:.\Generated_Source\PSoC4/CyLFClk.c ****         else
1217:.\Generated_Source\PSoC4/CyLFClk.c ****         {
1218:.\Generated_Source\PSoC4/CyLFClk.c ****             CYASSERT(0u != 0u);
1219:.\Generated_Source\PSoC4/CyLFClk.c ****         }
1220:.\Generated_Source\PSoC4/CyLFClk.c ****     }
1221:.\Generated_Source\PSoC4/CyLFClk.c **** 
1222:.\Generated_Source\PSoC4/CyLFClk.c **** 
1223:.\Generated_Source\PSoC4/CyLFClk.c ****     /*******************************************************************************
1224:.\Generated_Source\PSoC4/CyLFClk.c ****     * Function Name: CySysWdtDisableCounterIsr
1225:.\Generated_Source\PSoC4/CyLFClk.c ****     ********************************************************************************
1226:.\Generated_Source\PSoC4/CyLFClk.c ****     *
1227:.\Generated_Source\PSoC4/CyLFClk.c ****     * Summary:
1228:.\Generated_Source\PSoC4/CyLFClk.c ****     *  Disables the ISR callback servicing for the particular WDT counter
1229:.\Generated_Source\PSoC4/CyLFClk.c ****     *
1230:.\Generated_Source\PSoC4/CyLFClk.c ****     * Parameters:
1231:.\Generated_Source\PSoC4/CyLFClk.c ****     *  counterNum: Valid range [0-2].  The number of the WDT counter.
1232:.\Generated_Source\PSoC4/CyLFClk.c ****     *
1233:.\Generated_Source\PSoC4/CyLFClk.c ****     *******************************************************************************/
1234:.\Generated_Source\PSoC4/CyLFClk.c ****     void CySysWdtDisableCounterIsr(uint32 counterNum)
1235:.\Generated_Source\PSoC4/CyLFClk.c ****     {
1236:.\Generated_Source\PSoC4/CyLFClk.c ****         if(counterNum <= CY_SYS_WDT_COUNTER2)
1237:.\Generated_Source\PSoC4/CyLFClk.c ****         {
1238:.\Generated_Source\PSoC4/CyLFClk.c ****             wdtIsrMask &= ~counterIntMaskTbl[counterNum];
1239:.\Generated_Source\PSoC4/CyLFClk.c ****         }
1240:.\Generated_Source\PSoC4/CyLFClk.c ****         else
1241:.\Generated_Source\PSoC4/CyLFClk.c ****         {
1242:.\Generated_Source\PSoC4/CyLFClk.c ****             CYASSERT(0u != 0u);
1243:.\Generated_Source\PSoC4/CyLFClk.c ****         }
ARM GAS  C:\Users\Vit\AppData\Local\Temp\ccnJL0JJ.s 			page 42


1244:.\Generated_Source\PSoC4/CyLFClk.c ****     }
1245:.\Generated_Source\PSoC4/CyLFClk.c **** 
1246:.\Generated_Source\PSoC4/CyLFClk.c **** 
1247:.\Generated_Source\PSoC4/CyLFClk.c ****     /*******************************************************************************
1248:.\Generated_Source\PSoC4/CyLFClk.c ****     * Function Name: CySysWdtIsr
1249:.\Generated_Source\PSoC4/CyLFClk.c ****     ********************************************************************************
1250:.\Generated_Source\PSoC4/CyLFClk.c ****     *
1251:.\Generated_Source\PSoC4/CyLFClk.c ****     * Summary:
1252:.\Generated_Source\PSoC4/CyLFClk.c ****     *  This is the handler of the WDT interrupt in CPU NVIC. The handler checks
1253:.\Generated_Source\PSoC4/CyLFClk.c ****     *  which WDT triggered in the interrupt and calls the respective callback
1254:.\Generated_Source\PSoC4/CyLFClk.c ****     *  functions configured by the user by using CySysWdtSetIsrCallback() API.
1255:.\Generated_Source\PSoC4/CyLFClk.c ****     *
1256:.\Generated_Source\PSoC4/CyLFClk.c ****     *  The order of the callback execution is incremental. Callback-0 is
1257:.\Generated_Source\PSoC4/CyLFClk.c ****     *  run as the first one and callback-2 is called as the last one.
1258:.\Generated_Source\PSoC4/CyLFClk.c ****     *
1259:.\Generated_Source\PSoC4/CyLFClk.c ****     * Parameters:
1260:.\Generated_Source\PSoC4/CyLFClk.c ****     *  None.
1261:.\Generated_Source\PSoC4/CyLFClk.c ****     *
1262:.\Generated_Source\PSoC4/CyLFClk.c ****     * Return:
1263:.\Generated_Source\PSoC4/CyLFClk.c ****     *  None.
1264:.\Generated_Source\PSoC4/CyLFClk.c ****     *
1265:.\Generated_Source\PSoC4/CyLFClk.c ****     * Side Effects:
1266:.\Generated_Source\PSoC4/CyLFClk.c ****     *  This function clears the WDT interrupt every time when it is called.
1267:.\Generated_Source\PSoC4/CyLFClk.c ****     *  Reset after the 3rd interrupt does not happen if this function is registered
1268:.\Generated_Source\PSoC4/CyLFClk.c ****     *  as the interrupt handler even if the "Watchdog with Interrupt" mode is
1269:.\Generated_Source\PSoC4/CyLFClk.c ****     *  selected on the "Low Frequency Clocks" tab.
1270:.\Generated_Source\PSoC4/CyLFClk.c ****     *
1271:.\Generated_Source\PSoC4/CyLFClk.c ****     *******************************************************************************/
1272:.\Generated_Source\PSoC4/CyLFClk.c ****     void CySysWdtIsr(void)
1273:.\Generated_Source\PSoC4/CyLFClk.c ****     {
1274:.\Generated_Source\PSoC4/CyLFClk.c ****         if(0u != (CY_SYS_WDT_COUNTER0_INT & CY_SYS_WDT_CONTROL_REG))
1275:.\Generated_Source\PSoC4/CyLFClk.c ****         {
1276:.\Generated_Source\PSoC4/CyLFClk.c ****             if(0u != (CY_SYS_WDT_COUNTER0_INT & wdtIsrMask))
1277:.\Generated_Source\PSoC4/CyLFClk.c ****             {
1278:.\Generated_Source\PSoC4/CyLFClk.c ****                 wdtIsrMask &= ~(disableServicedIsr & CY_SYS_WDT_COUNTER0_INT);
1279:.\Generated_Source\PSoC4/CyLFClk.c ****                 disableServicedIsr  &= ~CY_SYS_WDT_COUNTER0_INT;
1280:.\Generated_Source\PSoC4/CyLFClk.c ****                 if(cySysWdtCallback[CY_SYS_WDT_COUNTER0] != (void *) 0)
1281:.\Generated_Source\PSoC4/CyLFClk.c ****                 {
1282:.\Generated_Source\PSoC4/CyLFClk.c ****                     (void)(cySysWdtCallback[CY_SYS_WDT_COUNTER0])();
1283:.\Generated_Source\PSoC4/CyLFClk.c ****                 }
1284:.\Generated_Source\PSoC4/CyLFClk.c ****             }
1285:.\Generated_Source\PSoC4/CyLFClk.c ****             CySysWdtClearInterrupt(CY_SYS_WDT_COUNTER0_INT);
1286:.\Generated_Source\PSoC4/CyLFClk.c ****         }
1287:.\Generated_Source\PSoC4/CyLFClk.c **** 
1288:.\Generated_Source\PSoC4/CyLFClk.c ****         if(0u != (CY_SYS_WDT_COUNTER1_INT & CY_SYS_WDT_CONTROL_REG))
1289:.\Generated_Source\PSoC4/CyLFClk.c ****         {
1290:.\Generated_Source\PSoC4/CyLFClk.c ****             if(0u != (CY_SYS_WDT_COUNTER1_INT & wdtIsrMask))
1291:.\Generated_Source\PSoC4/CyLFClk.c ****             {
1292:.\Generated_Source\PSoC4/CyLFClk.c ****                 wdtIsrMask &= ~(disableServicedIsr & CY_SYS_WDT_COUNTER1_INT);
1293:.\Generated_Source\PSoC4/CyLFClk.c ****                 disableServicedIsr  &= ~CY_SYS_WDT_COUNTER1_INT;
1294:.\Generated_Source\PSoC4/CyLFClk.c ****                 if(cySysWdtCallback[CY_SYS_WDT_COUNTER1] != (void *) 0)
1295:.\Generated_Source\PSoC4/CyLFClk.c ****                 {
1296:.\Generated_Source\PSoC4/CyLFClk.c ****                     (void)(cySysWdtCallback[CY_SYS_WDT_COUNTER1])();
1297:.\Generated_Source\PSoC4/CyLFClk.c ****                 }
1298:.\Generated_Source\PSoC4/CyLFClk.c ****             }
1299:.\Generated_Source\PSoC4/CyLFClk.c ****             CySysWdtClearInterrupt(CY_SYS_WDT_COUNTER1_INT);
1300:.\Generated_Source\PSoC4/CyLFClk.c ****         }
ARM GAS  C:\Users\Vit\AppData\Local\Temp\ccnJL0JJ.s 			page 43


1301:.\Generated_Source\PSoC4/CyLFClk.c **** 
1302:.\Generated_Source\PSoC4/CyLFClk.c ****         if(0u != (CY_SYS_WDT_COUNTER2_INT & CY_SYS_WDT_CONTROL_REG))
1303:.\Generated_Source\PSoC4/CyLFClk.c ****         {
1304:.\Generated_Source\PSoC4/CyLFClk.c ****             if(0u != (CY_SYS_WDT_COUNTER2_INT & wdtIsrMask))
1305:.\Generated_Source\PSoC4/CyLFClk.c ****             {
1306:.\Generated_Source\PSoC4/CyLFClk.c ****                 if(cySysWdtCallback[CY_SYS_WDT_COUNTER2] != (void *) 0)
1307:.\Generated_Source\PSoC4/CyLFClk.c ****                 {
1308:.\Generated_Source\PSoC4/CyLFClk.c ****                     (void)(cySysWdtCallback[CY_SYS_WDT_COUNTER2])();
1309:.\Generated_Source\PSoC4/CyLFClk.c ****                 }
1310:.\Generated_Source\PSoC4/CyLFClk.c ****             }
1311:.\Generated_Source\PSoC4/CyLFClk.c ****             CySysWdtClearInterrupt(CY_SYS_WDT_COUNTER2_INT);
1312:.\Generated_Source\PSoC4/CyLFClk.c ****         }
1313:.\Generated_Source\PSoC4/CyLFClk.c ****     }
1314:.\Generated_Source\PSoC4/CyLFClk.c **** 
1315:.\Generated_Source\PSoC4/CyLFClk.c **** 
1316:.\Generated_Source\PSoC4/CyLFClk.c ****     /*******************************************************************************
1317:.\Generated_Source\PSoC4/CyLFClk.c ****     * Function Name: CySysTimerDelay
1318:.\Generated_Source\PSoC4/CyLFClk.c ****     ********************************************************************************
1319:.\Generated_Source\PSoC4/CyLFClk.c ****     *
1320:.\Generated_Source\PSoC4/CyLFClk.c ****     * Summary:
1321:.\Generated_Source\PSoC4/CyLFClk.c ****     *  The function implements the delay specified in the LFCLK clock ticks. The
1322:.\Generated_Source\PSoC4/CyLFClk.c ****     *  specified WDT counter should be configured as described below and started.
1323:.\Generated_Source\PSoC4/CyLFClk.c ****     *
1324:.\Generated_Source\PSoC4/CyLFClk.c ****     *  This function can operate in two modes: the "WAIT" and "INTERRUPT" modes. In
1325:.\Generated_Source\PSoC4/CyLFClk.c ****     *  the "WAIT" mode, the function waits for the specified number of ticks. In the
1326:.\Generated_Source\PSoC4/CyLFClk.c ****     *  "INTERRUPT" mode, the interrupt is generated after the specified number of
1327:.\Generated_Source\PSoC4/CyLFClk.c ****     *  ticks.
1328:.\Generated_Source\PSoC4/CyLFClk.c ****     *
1329:.\Generated_Source\PSoC4/CyLFClk.c ****     *  For the correct function operation, the "Clear On Match" option should be
1330:.\Generated_Source\PSoC4/CyLFClk.c ****     *  disabled for the specified WDT counter. Use CySysWdtSetClearOnMatch()
1331:.\Generated_Source\PSoC4/CyLFClk.c ****     *  function with the "enable" parameter equal to zero for the used WDT counter.
1332:.\Generated_Source\PSoC4/CyLFClk.c ****     *
1333:.\Generated_Source\PSoC4/CyLFClk.c ****     *  The corresponding WDT counter should be configured to match the selected
1334:.\Generated_Source\PSoC4/CyLFClk.c ****     *  mode: "Free running Timer" for the "WAIT" mode, and
1335:.\Generated_Source\PSoC4/CyLFClk.c ****     *  "Periodic Timer" / "Watchdog (w/Interrupt)" for the "INTERRUPT" mode.
1336:.\Generated_Source\PSoC4/CyLFClk.c ****     *
1337:.\Generated_Source\PSoC4/CyLFClk.c ****     *  This can be configured in two ways:
1338:.\Generated_Source\PSoC4/CyLFClk.c ****     *  - Through the DWR page. Open the "Clocks" tab, click the "Edit Clocks..."
1339:.\Generated_Source\PSoC4/CyLFClk.c ****     *    button, in the "Configure System Clocks" window click on the
1340:.\Generated_Source\PSoC4/CyLFClk.c ****     *    "Low Frequency Clocks" tab and choose the appropriate option for the used
1341:.\Generated_Source\PSoC4/CyLFClk.c ****     *    WDT counter.
1342:.\Generated_Source\PSoC4/CyLFClk.c ****     *
1343:.\Generated_Source\PSoC4/CyLFClk.c ****     *  - Through the CySysWdtSetMode() function. Call it with the appropriate mode
1344:.\Generated_Source\PSoC4/CyLFClk.c ****     *    parameter for the used WDT counter.
1345:.\Generated_Source\PSoC4/CyLFClk.c ****     *
1346:.\Generated_Source\PSoC4/CyLFClk.c ****     *  For the "INTERRUPT" mode, the recommended sequence is the following:
1347:.\Generated_Source\PSoC4/CyLFClk.c ****     *  - Call the CySysWdtDisableCounterIsr() function to disable servicing
1348:.\Generated_Source\PSoC4/CyLFClk.c ****     *    interrupts of the specified WDT counter.
1349:.\Generated_Source\PSoC4/CyLFClk.c ****     *
1350:.\Generated_Source\PSoC4/CyLFClk.c ****     *  - Call the CySysWdtSetInterruptCallback() function to register the callback
1351:.\Generated_Source\PSoC4/CyLFClk.c ****     *    function for the corresponding WDT counter.
1352:.\Generated_Source\PSoC4/CyLFClk.c ****     *
1353:.\Generated_Source\PSoC4/CyLFClk.c ****     *  - Call the CySysTimerDelay() function.
1354:.\Generated_Source\PSoC4/CyLFClk.c ****     *
1355:.\Generated_Source\PSoC4/CyLFClk.c ****     * Parameters:
1356:.\Generated_Source\PSoC4/CyLFClk.c ****     *  counterNum: Valid range [0-1]. The number of the WDT counter (WDT0 or WDT1).
1357:.\Generated_Source\PSoC4/CyLFClk.c ****     *  delayType : Defines the operation mode.
ARM GAS  C:\Users\Vit\AppData\Local\Temp\ccnJL0JJ.s 			page 44


1358:.\Generated_Source\PSoC4/CyLFClk.c ****     *               CY_SYS_TIMER_WAIT       "WAIT" mode.
1359:.\Generated_Source\PSoC4/CyLFClk.c ****     *               CY_SYS_TIMER_INTERRUPT  "INTERRUPT" mode.
1360:.\Generated_Source\PSoC4/CyLFClk.c ****     *  delay:  The delay value in the LFCLK ticks (allowable range - 16-bit value).
1361:.\Generated_Source\PSoC4/CyLFClk.c ****     *
1362:.\Generated_Source\PSoC4/CyLFClk.c ****     * Return:
1363:.\Generated_Source\PSoC4/CyLFClk.c ****     *  None
1364:.\Generated_Source\PSoC4/CyLFClk.c ****     *
1365:.\Generated_Source\PSoC4/CyLFClk.c ****     * Side effects:
1366:.\Generated_Source\PSoC4/CyLFClk.c ****     *  In the "INTERRUPT" mode, this function enables ISR callback servicing
1367:.\Generated_Source\PSoC4/CyLFClk.c ****     *  from the corresponding WDT counter. Servicing of this ISR callback will be
1368:.\Generated_Source\PSoC4/CyLFClk.c ****     *  disabled after the expiration of the delay time.
1369:.\Generated_Source\PSoC4/CyLFClk.c ****     *
1370:.\Generated_Source\PSoC4/CyLFClk.c ****     *******************************************************************************/
1371:.\Generated_Source\PSoC4/CyLFClk.c ****     void CySysTimerDelay(uint32 counterNum, cy_sys_timer_delaytype_enum delayType, uint32 delay)
1372:.\Generated_Source\PSoC4/CyLFClk.c ****     {
1373:.\Generated_Source\PSoC4/CyLFClk.c ****         uint32 regValue;
1374:.\Generated_Source\PSoC4/CyLFClk.c ****         uint32 matchValue;
1375:.\Generated_Source\PSoC4/CyLFClk.c **** 
1376:.\Generated_Source\PSoC4/CyLFClk.c ****         if((counterNum < CY_SYS_WDT_COUNTER2) && (0uL == CySysWdtGetClearOnMatch(counterNum)) && (d
1377:.\Generated_Source\PSoC4/CyLFClk.c ****         {
1378:.\Generated_Source\PSoC4/CyLFClk.c ****             regValue   = CySysWdtGetCount(counterNum);
1379:.\Generated_Source\PSoC4/CyLFClk.c ****             matchValue = (regValue + delay) & (uint32)UINT16_MAX_VAL;
1380:.\Generated_Source\PSoC4/CyLFClk.c **** 
1381:.\Generated_Source\PSoC4/CyLFClk.c ****             CySysTimerDelayUntilMatch(counterNum, delayType, matchValue);
1382:.\Generated_Source\PSoC4/CyLFClk.c ****         }
1383:.\Generated_Source\PSoC4/CyLFClk.c ****         else
1384:.\Generated_Source\PSoC4/CyLFClk.c ****         {
1385:.\Generated_Source\PSoC4/CyLFClk.c ****             CYASSERT(0u != 0u);
1386:.\Generated_Source\PSoC4/CyLFClk.c ****         }
1387:.\Generated_Source\PSoC4/CyLFClk.c ****     }
1388:.\Generated_Source\PSoC4/CyLFClk.c **** 
1389:.\Generated_Source\PSoC4/CyLFClk.c **** 
1390:.\Generated_Source\PSoC4/CyLFClk.c ****     /*******************************************************************************
1391:.\Generated_Source\PSoC4/CyLFClk.c ****     * Function Name: CySysTimerDelayUntilMatch
1392:.\Generated_Source\PSoC4/CyLFClk.c ****     ********************************************************************************
1393:.\Generated_Source\PSoC4/CyLFClk.c ****     *
1394:.\Generated_Source\PSoC4/CyLFClk.c ****     * Summary:
1395:.\Generated_Source\PSoC4/CyLFClk.c ****     *  The function implements the delay specified as the number of LFCLK ticks
1396:.\Generated_Source\PSoC4/CyLFClk.c ****     *  between the specified WDT counter's current value and the "match" passed as
1397:.\Generated_Source\PSoC4/CyLFClk.c ****     *  the parameter to this function. The current WDT counter value can be obtained
1398:.\Generated_Source\PSoC4/CyLFClk.c ****     *  using the CySysWdtGetCount() function.
1399:.\Generated_Source\PSoC4/CyLFClk.c ****     *
1400:.\Generated_Source\PSoC4/CyLFClk.c ****     *  This function can operate in two modes: the "WAIT" and "INTERRUPT" mode. In
1401:.\Generated_Source\PSoC4/CyLFClk.c ****     *  the "WAIT" mode, the function waits while the used WDT counter value becomes
1402:.\Generated_Source\PSoC4/CyLFClk.c ****     *  equal to the match value. In the "INTERRUPT" mode, the interrupt is generated
1403:.\Generated_Source\PSoC4/CyLFClk.c ****     *  when the used WDT counter became equal to the "match" value.
1404:.\Generated_Source\PSoC4/CyLFClk.c ****     *
1405:.\Generated_Source\PSoC4/CyLFClk.c ****     *  For the correct function operation, the "Clear On Match" option should be
1406:.\Generated_Source\PSoC4/CyLFClk.c ****     *  disabled for the specified WDT counter. Use CySysWdtSetClearOnMatch()
1407:.\Generated_Source\PSoC4/CyLFClk.c ****     *  function with the "enable" parameter equal to zero for the used WDT counter.
1408:.\Generated_Source\PSoC4/CyLFClk.c ****     *
1409:.\Generated_Source\PSoC4/CyLFClk.c ****     *  The corresponding WDT counter should be configured to match the selected mode:
1410:.\Generated_Source\PSoC4/CyLFClk.c ****     *  "Free running Timer" for the "WAIT" mode, and "Periodic Timer" / "Watchdog
1411:.\Generated_Source\PSoC4/CyLFClk.c ****     *  (w/Interrupt)" for the "INTERRUPT" mode.
1412:.\Generated_Source\PSoC4/CyLFClk.c ****     *
1413:.\Generated_Source\PSoC4/CyLFClk.c ****     *  This can be configured in two ways:
1414:.\Generated_Source\PSoC4/CyLFClk.c ****     *  - Through the DWR page. Open the "Clocks" tab, click the "Edit Clocks..."
ARM GAS  C:\Users\Vit\AppData\Local\Temp\ccnJL0JJ.s 			page 45


1415:.\Generated_Source\PSoC4/CyLFClk.c ****     *    button, in the "Configure System Clocks" window click on the
1416:.\Generated_Source\PSoC4/CyLFClk.c ****     *    "Low Frequency Clocks" tab and choose the appropriate option for the used
1417:.\Generated_Source\PSoC4/CyLFClk.c ****     *    WDT counter.
1418:.\Generated_Source\PSoC4/CyLFClk.c ****     *
1419:.\Generated_Source\PSoC4/CyLFClk.c ****     *  - Through the CySysWdtSetMode() function. Call it with the appropriate "mode"
1420:.\Generated_Source\PSoC4/CyLFClk.c ****     *    parameter for the used WDT counter.
1421:.\Generated_Source\PSoC4/CyLFClk.c ****     *
1422:.\Generated_Source\PSoC4/CyLFClk.c ****     *  For the "INTERRUPT" mode, the recommended sequence is the following:
1423:.\Generated_Source\PSoC4/CyLFClk.c ****     *  - Call the CySysWdtDisableCounterIsr() function to disable servicing
1424:.\Generated_Source\PSoC4/CyLFClk.c ****     *    interrupts of the specified WDT counter.
1425:.\Generated_Source\PSoC4/CyLFClk.c ****     *
1426:.\Generated_Source\PSoC4/CyLFClk.c ****     *  - Call the CySysWdtSetInterruptCallback() function to register the callback
1427:.\Generated_Source\PSoC4/CyLFClk.c ****     *    function for the corresponding WDT counter.
1428:.\Generated_Source\PSoC4/CyLFClk.c ****     *
1429:.\Generated_Source\PSoC4/CyLFClk.c ****     *  - Call the CySysTimerDelay() function.
1430:.\Generated_Source\PSoC4/CyLFClk.c ****     *
1431:.\Generated_Source\PSoC4/CyLFClk.c ****     * Parameters:
1432:.\Generated_Source\PSoC4/CyLFClk.c ****     *  counterNum: Valid range [0-1]. The number of the WDT counter (WDT0 or WDT1).
1433:.\Generated_Source\PSoC4/CyLFClk.c ****     *  delayType : Defines the operation mode.
1434:.\Generated_Source\PSoC4/CyLFClk.c ****     *               CY_SYS_TIMER_WAIT       "WAIT" mode.
1435:.\Generated_Source\PSoC4/CyLFClk.c ****     *               CY_SYS_TIMER_INTERRUPT  "INTERRUPT" mode.
1436:.\Generated_Source\PSoC4/CyLFClk.c ****     *  delay:  The delay value in the LFCLK ticks (allowable range - 16-bit value).
1437:.\Generated_Source\PSoC4/CyLFClk.c ****     *
1438:.\Generated_Source\PSoC4/CyLFClk.c ****     * Return:
1439:.\Generated_Source\PSoC4/CyLFClk.c ****     *  None
1440:.\Generated_Source\PSoC4/CyLFClk.c ****     *
1441:.\Generated_Source\PSoC4/CyLFClk.c ****     * Side effects:
1442:.\Generated_Source\PSoC4/CyLFClk.c ****     *  In the "INTERRUPT" mode, this function enables ISR callback servicing
1443:.\Generated_Source\PSoC4/CyLFClk.c ****     *  from the corresponding WDT counter. Servicing of this ISR callback will be
1444:.\Generated_Source\PSoC4/CyLFClk.c ****     *  disabled after the expiration of the delay time.
1445:.\Generated_Source\PSoC4/CyLFClk.c ****     *
1446:.\Generated_Source\PSoC4/CyLFClk.c ****     *******************************************************************************/
1447:.\Generated_Source\PSoC4/CyLFClk.c ****     void CySysTimerDelayUntilMatch(uint32 counterNum, cy_sys_timer_delaytype_enum delayType, uint32
1448:.\Generated_Source\PSoC4/CyLFClk.c ****     {
1449:.\Generated_Source\PSoC4/CyLFClk.c ****         uint32 tmpValue;
1450:.\Generated_Source\PSoC4/CyLFClk.c **** 
1451:.\Generated_Source\PSoC4/CyLFClk.c ****         if((counterNum < CY_SYS_WDT_COUNTER2) && (0uL == CySysWdtGetClearOnMatch(counterNum)) && (m
1452:.\Generated_Source\PSoC4/CyLFClk.c ****         {
1453:.\Generated_Source\PSoC4/CyLFClk.c ****             if(delayType == CY_SYS_TIMER_WAIT)
1454:.\Generated_Source\PSoC4/CyLFClk.c ****             {
1455:.\Generated_Source\PSoC4/CyLFClk.c ****                 do
1456:.\Generated_Source\PSoC4/CyLFClk.c ****                 {
1457:.\Generated_Source\PSoC4/CyLFClk.c ****                     tmpValue = CySysWdtGetCount(counterNum);
1458:.\Generated_Source\PSoC4/CyLFClk.c ****                 }while(tmpValue > match);
1459:.\Generated_Source\PSoC4/CyLFClk.c **** 
1460:.\Generated_Source\PSoC4/CyLFClk.c ****                 do
1461:.\Generated_Source\PSoC4/CyLFClk.c ****                 {
1462:.\Generated_Source\PSoC4/CyLFClk.c ****                     tmpValue = CySysWdtGetCount(counterNum);
1463:.\Generated_Source\PSoC4/CyLFClk.c ****                 }while(tmpValue < match);
1464:.\Generated_Source\PSoC4/CyLFClk.c ****             }
1465:.\Generated_Source\PSoC4/CyLFClk.c ****             else
1466:.\Generated_Source\PSoC4/CyLFClk.c ****             {
1467:.\Generated_Source\PSoC4/CyLFClk.c ****                 tmpValue = counterIntMaskTbl[counterNum];
1468:.\Generated_Source\PSoC4/CyLFClk.c ****                 CySysWdtSetMatch(counterNum, match);
1469:.\Generated_Source\PSoC4/CyLFClk.c **** 
1470:.\Generated_Source\PSoC4/CyLFClk.c ****                 disableServicedIsr  |= tmpValue;
1471:.\Generated_Source\PSoC4/CyLFClk.c ****                 wdtIsrMask |= tmpValue;
ARM GAS  C:\Users\Vit\AppData\Local\Temp\ccnJL0JJ.s 			page 46


1472:.\Generated_Source\PSoC4/CyLFClk.c ****             }
1473:.\Generated_Source\PSoC4/CyLFClk.c ****         }
1474:.\Generated_Source\PSoC4/CyLFClk.c ****         else
1475:.\Generated_Source\PSoC4/CyLFClk.c ****         {
1476:.\Generated_Source\PSoC4/CyLFClk.c ****             CYASSERT(0u != 0u);
1477:.\Generated_Source\PSoC4/CyLFClk.c ****         }
1478:.\Generated_Source\PSoC4/CyLFClk.c ****     }
1479:.\Generated_Source\PSoC4/CyLFClk.c **** 
1480:.\Generated_Source\PSoC4/CyLFClk.c **** 
1481:.\Generated_Source\PSoC4/CyLFClk.c ****     /*******************************************************************************
1482:.\Generated_Source\PSoC4/CyLFClk.c ****     * Function Name: CySysWatchdogFeed
1483:.\Generated_Source\PSoC4/CyLFClk.c ****     ********************************************************************************
1484:.\Generated_Source\PSoC4/CyLFClk.c ****     *
1485:.\Generated_Source\PSoC4/CyLFClk.c ****     * Summary:
1486:.\Generated_Source\PSoC4/CyLFClk.c ****     *  Feeds the watchdog counter before it causes the device reset. Supported only
1487:.\Generated_Source\PSoC4/CyLFClk.c ****     *  for WDT0 and WDT1 in the "Watchdog" or "Watchdog w/ Interrupts" modes.
1488:.\Generated_Source\PSoC4/CyLFClk.c ****     *
1489:.\Generated_Source\PSoC4/CyLFClk.c ****     * Parameters:
1490:.\Generated_Source\PSoC4/CyLFClk.c ****     *  counterNum:    The number of the WDT counter.
1491:.\Generated_Source\PSoC4/CyLFClk.c ****     *
1492:.\Generated_Source\PSoC4/CyLFClk.c ****     * Return:
1493:.\Generated_Source\PSoC4/CyLFClk.c ****     *  None.
1494:.\Generated_Source\PSoC4/CyLFClk.c ****     *
1495:.\Generated_Source\PSoC4/CyLFClk.c ****     * Side effects:
1496:.\Generated_Source\PSoC4/CyLFClk.c ****     *  Clears the WDT counter in the "Watchdog" mode or clears the WDT interrupt in
1497:.\Generated_Source\PSoC4/CyLFClk.c ****     *  "Watchdog w/ Interrupts" mode. Does nothing in other modes.
1498:.\Generated_Source\PSoC4/CyLFClk.c ****     *
1499:.\Generated_Source\PSoC4/CyLFClk.c ****     *******************************************************************************/
1500:.\Generated_Source\PSoC4/CyLFClk.c ****     void CySysWatchdogFeed(uint32 counterNum)
1501:.\Generated_Source\PSoC4/CyLFClk.c ****     {
1502:.\Generated_Source\PSoC4/CyLFClk.c ****         if(counterNum == CY_SYS_WDT_COUNTER0)
1503:.\Generated_Source\PSoC4/CyLFClk.c ****         {
1504:.\Generated_Source\PSoC4/CyLFClk.c ****             if(CY_SYS_WDT_MODE_INT_RESET == CySysWdtGetMode(counterNum))
1505:.\Generated_Source\PSoC4/CyLFClk.c ****             {
1506:.\Generated_Source\PSoC4/CyLFClk.c ****                 CySysWdtClearInterrupt(CY_SYS_WDT_COUNTER0_MASK);
1507:.\Generated_Source\PSoC4/CyLFClk.c ****             }
1508:.\Generated_Source\PSoC4/CyLFClk.c ****             else if(CY_SYS_WDT_MODE_RESET == CySysWdtGetMode(counterNum))
1509:.\Generated_Source\PSoC4/CyLFClk.c ****             {
1510:.\Generated_Source\PSoC4/CyLFClk.c ****                 CySysWdtResetCounters(CY_SYS_WDT_COUNTER0_RESET);
1511:.\Generated_Source\PSoC4/CyLFClk.c ****                 CySysWdtClearInterrupt(CY_SYS_WDT_COUNTER0_MASK);
1512:.\Generated_Source\PSoC4/CyLFClk.c ****             }
1513:.\Generated_Source\PSoC4/CyLFClk.c ****             else
1514:.\Generated_Source\PSoC4/CyLFClk.c ****             {
1515:.\Generated_Source\PSoC4/CyLFClk.c ****                 /* Do nothing. */
1516:.\Generated_Source\PSoC4/CyLFClk.c ****             }
1517:.\Generated_Source\PSoC4/CyLFClk.c ****         }
1518:.\Generated_Source\PSoC4/CyLFClk.c ****         else if(counterNum == CY_SYS_WDT_COUNTER1)
1519:.\Generated_Source\PSoC4/CyLFClk.c ****         {
1520:.\Generated_Source\PSoC4/CyLFClk.c ****             if(CY_SYS_WDT_MODE_INT_RESET == CySysWdtGetMode(counterNum))
1521:.\Generated_Source\PSoC4/CyLFClk.c ****             {
1522:.\Generated_Source\PSoC4/CyLFClk.c ****                 CySysWdtClearInterrupt(CY_SYS_WDT_COUNTER1_MASK);
1523:.\Generated_Source\PSoC4/CyLFClk.c ****             }
1524:.\Generated_Source\PSoC4/CyLFClk.c ****             else if(CY_SYS_WDT_MODE_RESET == CySysWdtGetMode(counterNum))
1525:.\Generated_Source\PSoC4/CyLFClk.c ****             {
1526:.\Generated_Source\PSoC4/CyLFClk.c ****                 CySysWdtResetCounters(CY_SYS_WDT_COUNTER1_RESET);
1527:.\Generated_Source\PSoC4/CyLFClk.c ****                 CySysWdtClearInterrupt(CY_SYS_WDT_COUNTER1_MASK);
1528:.\Generated_Source\PSoC4/CyLFClk.c ****             }
ARM GAS  C:\Users\Vit\AppData\Local\Temp\ccnJL0JJ.s 			page 47


1529:.\Generated_Source\PSoC4/CyLFClk.c ****             else
1530:.\Generated_Source\PSoC4/CyLFClk.c ****             {
1531:.\Generated_Source\PSoC4/CyLFClk.c ****                 /* Do nothing. */
1532:.\Generated_Source\PSoC4/CyLFClk.c ****             }
1533:.\Generated_Source\PSoC4/CyLFClk.c ****         }
1534:.\Generated_Source\PSoC4/CyLFClk.c ****         else
1535:.\Generated_Source\PSoC4/CyLFClk.c ****         {
1536:.\Generated_Source\PSoC4/CyLFClk.c ****             /* Do nothing. */
1537:.\Generated_Source\PSoC4/CyLFClk.c ****         }
1538:.\Generated_Source\PSoC4/CyLFClk.c ****     }
1539:.\Generated_Source\PSoC4/CyLFClk.c **** 
1540:.\Generated_Source\PSoC4/CyLFClk.c **** 
1541:.\Generated_Source\PSoC4/CyLFClk.c ****     /*******************************************************************************
1542:.\Generated_Source\PSoC4/CyLFClk.c ****     * Function Name: CySysClkLfclkPosedgeCatch
1543:.\Generated_Source\PSoC4/CyLFClk.c ****     ********************************************************************************
1544:.\Generated_Source\PSoC4/CyLFClk.c ****     *
1545:.\Generated_Source\PSoC4/CyLFClk.c ****     * Summary:
1546:.\Generated_Source\PSoC4/CyLFClk.c ****     *  Returns once the LFCLK positive edge occurred.
1547:.\Generated_Source\PSoC4/CyLFClk.c ****     *
1548:.\Generated_Source\PSoC4/CyLFClk.c ****     *  CySysClkLfclkPosedgeRestore() should be called after this function
1549:.\Generated_Source\PSoC4/CyLFClk.c ****     *  to restore the WDT configuration.
1550:.\Generated_Source\PSoC4/CyLFClk.c ****     *
1551:.\Generated_Source\PSoC4/CyLFClk.c ****     *  A pair of the CySysClkLfclkPosedgeCatch() and CySysClkLfclkPosedgeRestore()
1552:.\Generated_Source\PSoC4/CyLFClk.c ****     *  functions is expected to be called inside a critical section.
1553:.\Generated_Source\PSoC4/CyLFClk.c ****     *
1554:.\Generated_Source\PSoC4/CyLFClk.c ****     *  To ensure that the WDT counter value is read until it changes, the enabled
1555:.\Generated_Source\PSoC4/CyLFClk.c ****     *  WDT counter is used. If no counter is enabled, counter 0 is enabled.
1556:.\Generated_Source\PSoC4/CyLFClk.c ****     *  And after the LFCLK source is switched, the counter 0 configuration
1557:.\Generated_Source\PSoC4/CyLFClk.c ****     *  is restored.
1558:.\Generated_Source\PSoC4/CyLFClk.c ****     *
1559:.\Generated_Source\PSoC4/CyLFClk.c ****     *  Not applicable for the PSoC 4000 devices.
1560:.\Generated_Source\PSoC4/CyLFClk.c ****     *
1561:.\Generated_Source\PSoC4/CyLFClk.c ****     * Parameters:
1562:.\Generated_Source\PSoC4/CyLFClk.c ****     *  None.
1563:.\Generated_Source\PSoC4/CyLFClk.c ****     *
1564:.\Generated_Source\PSoC4/CyLFClk.c ****     * Return:
1565:.\Generated_Source\PSoC4/CyLFClk.c ****     *  None.
1566:.\Generated_Source\PSoC4/CyLFClk.c ****     *
1567:.\Generated_Source\PSoC4/CyLFClk.c ****     * Side Effects:
1568:.\Generated_Source\PSoC4/CyLFClk.c ****     *  This function has no effect if WDT is locked (CySysWdtLock() is
1569:.\Generated_Source\PSoC4/CyLFClk.c ****     *  called). Call CySysWdtUnlock() to unlock WDT.
1570:.\Generated_Source\PSoC4/CyLFClk.c ****     *
1571:.\Generated_Source\PSoC4/CyLFClk.c ****     *******************************************************************************/
1572:.\Generated_Source\PSoC4/CyLFClk.c ****     static void CySysClkLfclkPosedgeCatch(void)
1573:.\Generated_Source\PSoC4/CyLFClk.c ****     {
1574:.\Generated_Source\PSoC4/CyLFClk.c ****         uint32 firstCount;
1575:.\Generated_Source\PSoC4/CyLFClk.c ****         static uint32 lfclkPosedgeEnabledWdtCounter = 0u;
1576:.\Generated_Source\PSoC4/CyLFClk.c **** 
1577:.\Generated_Source\PSoC4/CyLFClk.c ****         if (0u != CySysWdtGetEnabledStatus(CY_SYS_WDT_COUNTER0))
 1044              		.loc 1 1577 0
 1045 0026 9B07     		lsl	r3, r3, #30
 1046 0028 01D5     		bpl	.L117
1578:.\Generated_Source\PSoC4/CyLFClk.c ****         {
1579:.\Generated_Source\PSoC4/CyLFClk.c ****             lfclkPosedgeEnabledWdtCounter = CY_SYS_WDT_COUNTER0;
 1047              		.loc 1 1579 0
 1048 002a 009B     		ldr	r3, [sp]
 1049 002c 0AE0     		b	.L116
ARM GAS  C:\Users\Vit\AppData\Local\Temp\ccnJL0JJ.s 			page 48


 1050              	.L117:
 1051              	.LVL92:
 1052              	.LBB90:
 1053              	.LBB91:
 496:.\Generated_Source\PSoC4/CyLFClk.c ****     }
 1054              		.loc 1 496 0
 1055 002e 2B68     		ldr	r3, [r5]
 1056 0030 5B0A     		lsr	r3, r3, #9
 1057              	.LBE91:
 1058              	.LBE90:
1580:.\Generated_Source\PSoC4/CyLFClk.c ****         }
1581:.\Generated_Source\PSoC4/CyLFClk.c ****         else if (0u != CySysWdtGetEnabledStatus(CY_SYS_WDT_COUNTER1))
 1059              		.loc 1 1581 0
 1060 0032 3342     		tst	r3, r6
 1061 0034 01D0     		beq	.L105
1582:.\Generated_Source\PSoC4/CyLFClk.c ****         {
1583:.\Generated_Source\PSoC4/CyLFClk.c ****             lfclkPosedgeEnabledWdtCounter = CY_SYS_WDT_COUNTER1;
 1062              		.loc 1 1583 0
 1063 0036 2660     		str	r6, [r4]
 1064 0038 13E0     		b	.L104
 1065              	.L105:
 1066              	.LVL93:
 1067              	.LBB92:
 1068              	.LBB93:
 496:.\Generated_Source\PSoC4/CyLFClk.c ****     }
 1069              		.loc 1 496 0
 1070 003a 2968     		ldr	r1, [r5]
 1071 003c 490C     		lsr	r1, r1, #17
 1072 003e 3140     		and	r1, r6
 1073              	.LBE93:
 1074              	.LBE92:
1584:.\Generated_Source\PSoC4/CyLFClk.c ****         }
1585:.\Generated_Source\PSoC4/CyLFClk.c ****         else if (0u != CySysWdtGetEnabledStatus(CY_SYS_WDT_COUNTER2))
 1075              		.loc 1 1585 0
 1076 0040 02D0     		beq	.L106
1586:.\Generated_Source\PSoC4/CyLFClk.c ****         {
1587:.\Generated_Source\PSoC4/CyLFClk.c ****             lfclkPosedgeEnabledWdtCounter = CY_SYS_WDT_COUNTER2;
 1077              		.loc 1 1587 0
 1078 0042 0223     		mov	r3, #2
 1079              	.LVL94:
 1080              	.L116:
 1081 0044 2360     		str	r3, [r4]
 1082 0046 0CE0     		b	.L104
 1083              	.LVL95:
 1084              	.L106:
 1085              	.LBB94:
 1086              	.LBB95:
 562:.\Generated_Source\PSoC4/CyLFClk.c ****     }
 1087              		.loc 1 562 0
 1088 0048 194B     		ldr	r3, .L118+16
 1089              	.LBE95:
 1090              	.LBE94:
1588:.\Generated_Source\PSoC4/CyLFClk.c ****         }
1589:.\Generated_Source\PSoC4/CyLFClk.c ****         else /* All WDT counters are disabled */
1590:.\Generated_Source\PSoC4/CyLFClk.c ****         {
1591:.\Generated_Source\PSoC4/CyLFClk.c ****             /* Configure WDT counter # 0 */
1592:.\Generated_Source\PSoC4/CyLFClk.c ****             lfclkPosedgeWdtCounter0Enabled = 1u;
ARM GAS  C:\Users\Vit\AppData\Local\Temp\ccnJL0JJ.s 			page 49


 1091              		.loc 1 1592 0
 1092 004a 6660     		str	r6, [r4, #4]
1593:.\Generated_Source\PSoC4/CyLFClk.c ****             lfclkPosedgeEnabledWdtCounter = CY_SYS_WDT_COUNTER0;
 1093              		.loc 1 1593 0
 1094 004c 2160     		str	r1, [r4]
 1095              	.LVL96:
 1096              	.LBB98:
 1097              	.LBB96:
 562:.\Generated_Source\PSoC4/CyLFClk.c ****     }
 1098              		.loc 1 562 0
 1099 004e 1A68     		ldr	r2, [r3]
 1100 0050 0323     		mov	r3, #3
 1101              	.LBE96:
 1102              	.LBE98:
1594:.\Generated_Source\PSoC4/CyLFClk.c **** 
1595:.\Generated_Source\PSoC4/CyLFClk.c ****             lfclkPosedgeWdtCounter0Mode = CySysWdtGetMode(CY_SYS_WDT_COUNTER0);
1596:.\Generated_Source\PSoC4/CyLFClk.c ****             CySysWdtSetMode(CY_SYS_WDT_COUNTER0, CY_SYS_WDT_MODE_NONE);
 1103              		.loc 1 1596 0
 1104 0052 081C     		mov	r0, r1
 1105              	.LBB99:
 1106              	.LBB97:
 562:.\Generated_Source\PSoC4/CyLFClk.c ****     }
 1107              		.loc 1 562 0
 1108 0054 1340     		and	r3, r2
 1109              	.LBE97:
 1110              	.LBE99:
1595:.\Generated_Source\PSoC4/CyLFClk.c ****             CySysWdtSetMode(CY_SYS_WDT_COUNTER0, CY_SYS_WDT_MODE_NONE);
 1111              		.loc 1 1595 0
 1112 0056 A360     		str	r3, [r4, #8]
 1113              		.loc 1 1596 0
 1114 0058 FFF7FEFF 		bl	CySysWdtSetMode
 1115              	.LVL97:
1597:.\Generated_Source\PSoC4/CyLFClk.c ****             CySysWdtEnable(CY_SYS_WDT_COUNTER0_MASK);
 1116              		.loc 1 1597 0
 1117 005c 301C     		mov	r0, r6
 1118 005e FFF7FEFF 		bl	CySysWdtEnable
 1119              	.LVL98:
 1120              	.L104:
1598:.\Generated_Source\PSoC4/CyLFClk.c ****         }
1599:.\Generated_Source\PSoC4/CyLFClk.c **** 
1600:.\Generated_Source\PSoC4/CyLFClk.c ****         firstCount = CySysWdtGetCount(lfclkPosedgeEnabledWdtCounter);
 1121              		.loc 1 1600 0
 1122 0062 2068     		ldr	r0, [r4]
 1123 0064 FFF7FEFF 		bl	CySysWdtGetCount
 1124              	.LVL99:
 1125 0068 061C     		mov	r6, r0
 1126              	.LVL100:
 1127              	.L107:
1601:.\Generated_Source\PSoC4/CyLFClk.c ****         while (CySysWdtGetCount(lfclkPosedgeEnabledWdtCounter) == firstCount)
 1128              		.loc 1 1601 0
 1129 006a 2068     		ldr	r0, [r4]
 1130 006c FFF7FEFF 		bl	CySysWdtGetCount
 1131              	.LVL101:
 1132 0070 B042     		cmp	r0, r6
 1133 0072 FAD0     		beq	.L107
 1134              	.LBE100:
 1135              	.LBE101:
ARM GAS  C:\Users\Vit\AppData\Local\Temp\ccnJL0JJ.s 			page 50


 114:.\Generated_Source\PSoC4/CyLFClk.c ****                 CySysClkLfclkPosedgeRestore();
 1136              		.loc 1 114 0
 1137 0074 3B68     		ldr	r3, [r7]
 1138 0076 5B00     		lsl	r3, r3, #1
 1139 0078 5B08     		lsr	r3, r3, #1
 1140 007a 3B60     		str	r3, [r7]
 1141              	.LBB102:
 1142              	.LBB103:
1602:.\Generated_Source\PSoC4/CyLFClk.c ****         {
1603:.\Generated_Source\PSoC4/CyLFClk.c ****             /* Wait for counter to increment */
1604:.\Generated_Source\PSoC4/CyLFClk.c ****         }
1605:.\Generated_Source\PSoC4/CyLFClk.c ****     }
1606:.\Generated_Source\PSoC4/CyLFClk.c **** 
1607:.\Generated_Source\PSoC4/CyLFClk.c **** 
1608:.\Generated_Source\PSoC4/CyLFClk.c ****     /*******************************************************************************
1609:.\Generated_Source\PSoC4/CyLFClk.c ****     * Function Name: CySysClkLfclkPosedgeRestore
1610:.\Generated_Source\PSoC4/CyLFClk.c ****     ********************************************************************************
1611:.\Generated_Source\PSoC4/CyLFClk.c ****     *
1612:.\Generated_Source\PSoC4/CyLFClk.c ****     * Summary:
1613:.\Generated_Source\PSoC4/CyLFClk.c ****     *  Restores the WDT configuration after a CySysClkLfclkPosedgeCatch() call.
1614:.\Generated_Source\PSoC4/CyLFClk.c ****     *
1615:.\Generated_Source\PSoC4/CyLFClk.c ****     *  A pair of the CySysClkLfclkPosedgeCatch() and CySysClkLfclkPosedgeRestore()
1616:.\Generated_Source\PSoC4/CyLFClk.c ****     *  functions is expected to be called inside a critical section.
1617:.\Generated_Source\PSoC4/CyLFClk.c ****     *
1618:.\Generated_Source\PSoC4/CyLFClk.c ****     *  Not applicable for the PSoC 4000 devices.
1619:.\Generated_Source\PSoC4/CyLFClk.c ****     *
1620:.\Generated_Source\PSoC4/CyLFClk.c ****     * Parameters:
1621:.\Generated_Source\PSoC4/CyLFClk.c ****     *  None.
1622:.\Generated_Source\PSoC4/CyLFClk.c ****     *
1623:.\Generated_Source\PSoC4/CyLFClk.c ****     * Return:
1624:.\Generated_Source\PSoC4/CyLFClk.c ****     *  None.
1625:.\Generated_Source\PSoC4/CyLFClk.c ****     *
1626:.\Generated_Source\PSoC4/CyLFClk.c ****     * Side Effects:
1627:.\Generated_Source\PSoC4/CyLFClk.c ****     *  This function has no effect if WDT is locked (CySysWdtLock() is
1628:.\Generated_Source\PSoC4/CyLFClk.c ****     *  called). Call CySysWdtUnlock() to unlock WDT.
1629:.\Generated_Source\PSoC4/CyLFClk.c ****     *
1630:.\Generated_Source\PSoC4/CyLFClk.c ****     *******************************************************************************/
1631:.\Generated_Source\PSoC4/CyLFClk.c ****     static void CySysClkLfclkPosedgeRestore(void)
1632:.\Generated_Source\PSoC4/CyLFClk.c ****     {
1633:.\Generated_Source\PSoC4/CyLFClk.c ****         if (lfclkPosedgeWdtCounter0Enabled != 0u)
 1143              		.loc 1 1633 0
 1144 007c 6368     		ldr	r3, [r4, #4]
 1145 007e 002B     		cmp	r3, #0
 1146 0080 09D0     		beq	.L108
1634:.\Generated_Source\PSoC4/CyLFClk.c ****         {
1635:.\Generated_Source\PSoC4/CyLFClk.c ****             /* Restore counter # 0 configuration and force its shutdown */
1636:.\Generated_Source\PSoC4/CyLFClk.c ****             CY_SYS_WDT_CONTROL_REG &= (uint32)(~CY_SYS_WDT_COUNTER0_MASK);
 1147              		.loc 1 1636 0
 1148 0082 0122     		mov	r2, #1
 1149 0084 2B68     		ldr	r3, [r5]
1637:.\Generated_Source\PSoC4/CyLFClk.c ****             CySysWdtSetMode(CY_SYS_WDT_COUNTER0, lfclkPosedgeWdtCounter0Mode);
 1150              		.loc 1 1637 0
 1151 0086 0020     		mov	r0, #0
1636:.\Generated_Source\PSoC4/CyLFClk.c ****             CySysWdtSetMode(CY_SYS_WDT_COUNTER0, lfclkPosedgeWdtCounter0Mode);
 1152              		.loc 1 1636 0
 1153 0088 9343     		bic	r3, r2
 1154 008a 2B60     		str	r3, [r5]
ARM GAS  C:\Users\Vit\AppData\Local\Temp\ccnJL0JJ.s 			page 51


 1155              		.loc 1 1637 0
 1156 008c A168     		ldr	r1, [r4, #8]
 1157 008e FFF7FEFF 		bl	CySysWdtSetMode
 1158              	.LVL102:
1638:.\Generated_Source\PSoC4/CyLFClk.c ****             lfclkPosedgeWdtCounter0Enabled = 0u;
 1159              		.loc 1 1638 0
 1160 0092 0023     		mov	r3, #0
 1161 0094 6360     		str	r3, [r4, #4]
 1162              	.L108:
 1163              	.LBE103:
 1164              	.LBE102:
 116:.\Generated_Source\PSoC4/CyLFClk.c **** 
 1165              		.loc 1 116 0
 1166 0096 0198     		ldr	r0, [sp, #4]
 1167 0098 FFF7FEFF 		bl	CyExitCriticalSection
 1168              	.LVL103:
 1169              	.L101:
 131:.\Generated_Source\PSoC4/CyLFClk.c **** 
 1170              		.loc 1 131 0
 1171              		@ sp needed
 1172 009c F7BD     		pop	{r0, r1, r2, r4, r5, r6, r7, pc}
 1173              	.L119:
 1174 009e C046     		.align	2
 1175              	.L118:
 1176 00a0 00010B40 		.word	1074462976
 1177 00a4 04010B40 		.word	1074462980
 1178 00a8 10020B40 		.word	1074463248
 1179 00ac 00000000 		.word	.LANCHOR0
 1180 00b0 0C020B40 		.word	1074463244
 1181              		.cfi_endproc
 1182              	.LFE1:
 1183              		.size	CySysClkIloStop, .-CySysClkIloStop
 1184              		.section	.text.CySysWdtGetInterruptSource,"ax",%progbits
 1185              		.align	1
 1186              		.global	CySysWdtGetInterruptSource
 1187              		.code	16
 1188              		.thumb_func
 1189              		.type	CySysWdtGetInterruptSource, %function
 1190              	CySysWdtGetInterruptSource:
 1191              	.LFB20:
1022:.\Generated_Source\PSoC4/CyLFClk.c ****         return (CY_SYS_WDT_CONTROL_REG & (CY_SYS_WDT_COUNTER0_INT | CY_SYS_WDT_COUNTER1_INT | CY_SY
 1192              		.loc 1 1022 0
 1193              		.cfi_startproc
1023:.\Generated_Source\PSoC4/CyLFClk.c ****     }
 1194              		.loc 1 1023 0
 1195 0000 024B     		ldr	r3, .L121
1024:.\Generated_Source\PSoC4/CyLFClk.c **** 
 1196              		.loc 1 1024 0
 1197              		@ sp needed
1023:.\Generated_Source\PSoC4/CyLFClk.c ****     }
 1198              		.loc 1 1023 0
 1199 0002 1868     		ldr	r0, [r3]
 1200 0004 024B     		ldr	r3, .L121+4
 1201 0006 1840     		and	r0, r3
1024:.\Generated_Source\PSoC4/CyLFClk.c **** 
 1202              		.loc 1 1024 0
 1203 0008 7047     		bx	lr
ARM GAS  C:\Users\Vit\AppData\Local\Temp\ccnJL0JJ.s 			page 52


 1204              	.L122:
 1205 000a C046     		.align	2
 1206              	.L121:
 1207 000c 10020B40 		.word	1074463248
 1208 0010 04040400 		.word	263172
 1209              		.cfi_endproc
 1210              	.LFE20:
 1211              		.size	CySysWdtGetInterruptSource, .-CySysWdtGetInterruptSource
 1212              		.section	.text.CySysWdtClearInterrupt,"ax",%progbits
 1213              		.align	1
 1214              		.global	CySysWdtClearInterrupt
 1215              		.code	16
 1216              		.thumb_func
 1217              		.type	CySysWdtClearInterrupt, %function
 1218              	CySysWdtClearInterrupt:
 1219              	.LFB21:
1056:.\Generated_Source\PSoC4/CyLFClk.c ****         uint8 interruptState;
 1220              		.loc 1 1056 0
 1221              		.cfi_startproc
 1222              	.LVL104:
 1223 0000 70B5     		push	{r4, r5, r6, lr}
 1224              		.cfi_def_cfa_offset 16
 1225              		.cfi_offset 4, -16
 1226              		.cfi_offset 5, -12
 1227              		.cfi_offset 6, -8
 1228              		.cfi_offset 14, -4
1056:.\Generated_Source\PSoC4/CyLFClk.c ****         uint8 interruptState;
 1229              		.loc 1 1056 0
 1230 0002 051C     		mov	r5, r0
1060:.\Generated_Source\PSoC4/CyLFClk.c **** 
 1231              		.loc 1 1060 0
 1232 0004 FFF7FEFF 		bl	CyEnterCriticalSection
 1233              	.LVL105:
 1234              	.LBB106:
 1235              	.LBB107:
 437:.\Generated_Source\PSoC4/CyLFClk.c ****     }
 1236              		.loc 1 437 0
 1237 0008 0E4B     		ldr	r3, .L128
 1238              	.LBE107:
 1239              	.LBE106:
1060:.\Generated_Source\PSoC4/CyLFClk.c **** 
 1240              		.loc 1 1060 0
 1241 000a 041C     		mov	r4, r0
 1242              	.LVL106:
 1243              	.LBB109:
 1244              	.LBB108:
 437:.\Generated_Source\PSoC4/CyLFClk.c ****     }
 1245              		.loc 1 437 0
 1246 000c 1A68     		ldr	r2, [r3]
 1247 000e C023     		mov	r3, #192
 1248 0010 1B02     		lsl	r3, r3, #8
 1249 0012 1340     		and	r3, r2
 1250 0014 11D1     		bne	.L124
 1251              	.L126:
 1252              	.LVL107:
 1253              	.LBE108:
 1254              	.LBE109:
ARM GAS  C:\Users\Vit\AppData\Local\Temp\ccnJL0JJ.s 			page 53


1073:.\Generated_Source\PSoC4/CyLFClk.c ****                         CY_SYS_WDT_COUNTER1_INT |
 1255              		.loc 1 1073 0
 1256 0016 0C48     		ldr	r0, .L128+4
1077:.\Generated_Source\PSoC4/CyLFClk.c ****                                                                            CY_SYS_WDT_COUNTER1_INT 
 1257              		.loc 1 1077 0
 1258 0018 0C49     		ldr	r1, .L128+8
1073:.\Generated_Source\PSoC4/CyLFClk.c ****                         CY_SYS_WDT_COUNTER1_INT |
 1259              		.loc 1 1073 0
 1260 001a 0540     		and	r5, r0
 1261              	.LVL108:
1077:.\Generated_Source\PSoC4/CyLFClk.c ****                                                                            CY_SYS_WDT_COUNTER1_INT 
 1262              		.loc 1 1077 0
 1263 001c 281C     		mov	r0, r5
 1264 001e 0E68     		ldr	r6, [r1]
 1265 0020 0B4A     		ldr	r2, .L128+12
 1266 0022 3240     		and	r2, r6
 1267 0024 1043     		orr	r0, r2
 1268 0026 0860     		str	r0, [r1]
1084:.\Generated_Source\PSoC4/CyLFClk.c **** 
 1269              		.loc 1 1084 0
 1270 0028 0A68     		ldr	r2, [r1]
1086:.\Generated_Source\PSoC4/CyLFClk.c ****         {
 1271              		.loc 1 1086 0
 1272 002a 012B     		cmp	r3, #1
 1273 002c 01D1     		bne	.L125
 1274              	.LVL109:
1088:.\Generated_Source\PSoC4/CyLFClk.c ****         }
 1275              		.loc 1 1088 0
 1276 002e FFF7FEFF 		bl	CySysWdtLock
 1277              	.LVL110:
 1278              	.L125:
1091:.\Generated_Source\PSoC4/CyLFClk.c ****     }
 1279              		.loc 1 1091 0
 1280 0032 201C     		mov	r0, r4
 1281 0034 FFF7FEFF 		bl	CyExitCriticalSection
 1282              	.LVL111:
1092:.\Generated_Source\PSoC4/CyLFClk.c **** 
 1283              		.loc 1 1092 0
 1284              		@ sp needed
 1285              	.LVL112:
 1286 0038 70BD     		pop	{r4, r5, r6, pc}
 1287              	.LVL113:
 1288              	.L124:
1065:.\Generated_Source\PSoC4/CyLFClk.c ****         }
 1289              		.loc 1 1065 0
 1290 003a FFF7FEFF 		bl	CySysWdtUnlock
 1291              	.LVL114:
1064:.\Generated_Source\PSoC4/CyLFClk.c ****             CySysWdtUnlock();
 1292              		.loc 1 1064 0
 1293 003e 0123     		mov	r3, #1
 1294 0040 E9E7     		b	.L126
 1295              	.L129:
 1296 0042 C046     		.align	2
 1297              	.L128:
 1298 0044 00010B40 		.word	1074462976
 1299 0048 04040400 		.word	263172
 1300 004c 10020B40 		.word	1074463248
ARM GAS  C:\Users\Vit\AppData\Local\Temp\ccnJL0JJ.s 			page 54


 1301 0050 FBFBFBFF 		.word	-263173
 1302              		.cfi_endproc
 1303              	.LFE21:
 1304              		.size	CySysWdtClearInterrupt, .-CySysWdtClearInterrupt
 1305              		.section	.text.CySysWdtResetCounters,"ax",%progbits
 1306              		.align	1
 1307              		.global	CySysWdtResetCounters
 1308              		.code	16
 1309              		.thumb_func
 1310              		.type	CySysWdtResetCounters, %function
 1311              	CySysWdtResetCounters:
 1312              	.LFB22:
1120:.\Generated_Source\PSoC4/CyLFClk.c ****         /* Set new WDT reset value */
 1313              		.loc 1 1120 0
 1314              		.cfi_startproc
 1315              	.LVL115:
1122:.\Generated_Source\PSoC4/CyLFClk.c **** 
 1316              		.loc 1 1122 0
 1317 0000 044B     		ldr	r3, .L132
 1318 0002 054A     		ldr	r2, .L132+4
 1319 0004 1968     		ldr	r1, [r3]
 1320 0006 1040     		and	r0, r2
 1321              	.LVL116:
 1322 0008 0843     		orr	r0, r1
 1323 000a 1860     		str	r0, [r3]
 1324              	.L131:
1124:.\Generated_Source\PSoC4/CyLFClk.c ****         {
 1325              		.loc 1 1124 0 discriminator 1
 1326 000c 1968     		ldr	r1, [r3]
 1327 000e 1142     		tst	r1, r2
 1328 0010 FCD1     		bne	.L131
1128:.\Generated_Source\PSoC4/CyLFClk.c **** 
 1329              		.loc 1 1128 0
 1330              		@ sp needed
 1331 0012 7047     		bx	lr
 1332              	.L133:
 1333              		.align	2
 1334              	.L132:
 1335 0014 10020B40 		.word	1074463248
 1336 0018 08080800 		.word	526344
 1337              		.cfi_endproc
 1338              	.LFE22:
 1339              		.size	CySysWdtResetCounters, .-CySysWdtResetCounters
 1340              		.section	.text.CySysWdtSetInterruptCallback,"ax",%progbits
 1341              		.align	1
 1342              		.global	CySysWdtSetInterruptCallback
 1343              		.code	16
 1344              		.thumb_func
 1345              		.type	CySysWdtSetInterruptCallback, %function
 1346              	CySysWdtSetInterruptCallback:
 1347              	.LFB23:
1149:.\Generated_Source\PSoC4/CyLFClk.c ****         cyWdtCallback prevCallback = (void *)0;
 1348              		.loc 1 1149 0
 1349              		.cfi_startproc
 1350              	.LVL117:
 1351 0000 08B5     		push	{r3, lr}
 1352              		.cfi_def_cfa_offset 8
ARM GAS  C:\Users\Vit\AppData\Local\Temp\ccnJL0JJ.s 			page 55


 1353              		.cfi_offset 3, -8
 1354              		.cfi_offset 14, -4
1152:.\Generated_Source\PSoC4/CyLFClk.c ****         {
 1355              		.loc 1 1152 0
 1356 0002 0228     		cmp	r0, #2
 1357 0004 05D8     		bhi	.L135
1154:.\Generated_Source\PSoC4/CyLFClk.c ****             cySysWdtCallback[counterNum] = function;
 1358              		.loc 1 1154 0
 1359 0006 054B     		ldr	r3, .L137
 1360 0008 8000     		lsl	r0, r0, #2
 1361              	.LVL118:
 1362 000a 1B18     		add	r3, r3, r0
 1363 000c D868     		ldr	r0, [r3, #12]
 1364              	.LVL119:
1155:.\Generated_Source\PSoC4/CyLFClk.c ****         }
 1365              		.loc 1 1155 0
 1366 000e D960     		str	r1, [r3, #12]
 1367 0010 03E0     		b	.L136
 1368              	.LVL120:
 1369              	.L135:
1159:.\Generated_Source\PSoC4/CyLFClk.c ****         }
 1370              		.loc 1 1159 0 discriminator 1
 1371 0012 0020     		mov	r0, #0
 1372              	.LVL121:
 1373 0014 FFF7FEFF 		bl	CyHalt
 1374              	.LVL122:
1150:.\Generated_Source\PSoC4/CyLFClk.c **** 
 1375              		.loc 1 1150 0 discriminator 1
 1376 0018 0020     		mov	r0, #0
 1377              	.LVL123:
 1378              	.L136:
1163:.\Generated_Source\PSoC4/CyLFClk.c **** 
 1379              		.loc 1 1163 0
 1380              		@ sp needed
 1381 001a 08BD     		pop	{r3, pc}
 1382              	.L138:
 1383              		.align	2
 1384              	.L137:
 1385 001c 00000000 		.word	.LANCHOR0
 1386              		.cfi_endproc
 1387              	.LFE23:
 1388              		.size	CySysWdtSetInterruptCallback, .-CySysWdtSetInterruptCallback
 1389              		.section	.text.CySysWdtGetInterruptCallback,"ax",%progbits
 1390              		.align	1
 1391              		.global	CySysWdtGetInterruptCallback
 1392              		.code	16
 1393              		.thumb_func
 1394              		.type	CySysWdtGetInterruptCallback, %function
 1395              	CySysWdtGetInterruptCallback:
 1396              	.LFB24:
1182:.\Generated_Source\PSoC4/CyLFClk.c ****         cyWdtCallback retCallback = (void *)0;
 1397              		.loc 1 1182 0
 1398              		.cfi_startproc
 1399              	.LVL124:
 1400 0000 08B5     		push	{r3, lr}
 1401              		.cfi_def_cfa_offset 8
 1402              		.cfi_offset 3, -8
ARM GAS  C:\Users\Vit\AppData\Local\Temp\ccnJL0JJ.s 			page 56


 1403              		.cfi_offset 14, -4
1185:.\Generated_Source\PSoC4/CyLFClk.c ****         {
 1404              		.loc 1 1185 0
 1405 0002 0228     		cmp	r0, #2
 1406 0004 04D8     		bhi	.L140
1187:.\Generated_Source\PSoC4/CyLFClk.c ****         }
 1407              		.loc 1 1187 0
 1408 0006 054B     		ldr	r3, .L142
 1409 0008 8000     		lsl	r0, r0, #2
 1410              	.LVL125:
 1411 000a 1818     		add	r0, r3, r0
 1412 000c C068     		ldr	r0, [r0, #12]
 1413              	.LVL126:
 1414 000e 03E0     		b	.L141
 1415              	.LVL127:
 1416              	.L140:
1191:.\Generated_Source\PSoC4/CyLFClk.c ****         }
 1417              		.loc 1 1191 0 discriminator 1
 1418 0010 0020     		mov	r0, #0
 1419              	.LVL128:
 1420 0012 FFF7FEFF 		bl	CyHalt
 1421              	.LVL129:
1183:.\Generated_Source\PSoC4/CyLFClk.c **** 
 1422              		.loc 1 1183 0 discriminator 1
 1423 0016 0020     		mov	r0, #0
 1424              	.LVL130:
 1425              	.L141:
1195:.\Generated_Source\PSoC4/CyLFClk.c **** 
 1426              		.loc 1 1195 0
 1427              		@ sp needed
 1428 0018 08BD     		pop	{r3, pc}
 1429              	.L143:
 1430 001a C046     		.align	2
 1431              	.L142:
 1432 001c 00000000 		.word	.LANCHOR0
 1433              		.cfi_endproc
 1434              	.LFE24:
 1435              		.size	CySysWdtGetInterruptCallback, .-CySysWdtGetInterruptCallback
 1436              		.section	.text.CySysWdtEnableCounterIsr,"ax",%progbits
 1437              		.align	1
 1438              		.global	CySysWdtEnableCounterIsr
 1439              		.code	16
 1440              		.thumb_func
 1441              		.type	CySysWdtEnableCounterIsr, %function
 1442              	CySysWdtEnableCounterIsr:
 1443              	.LFB25:
1210:.\Generated_Source\PSoC4/CyLFClk.c ****         if(counterNum <= CY_SYS_WDT_COUNTER2)
 1444              		.loc 1 1210 0
 1445              		.cfi_startproc
 1446              	.LVL131:
 1447 0000 08B5     		push	{r3, lr}
 1448              		.cfi_def_cfa_offset 8
 1449              		.cfi_offset 3, -8
 1450              		.cfi_offset 14, -4
1211:.\Generated_Source\PSoC4/CyLFClk.c ****         {
 1451              		.loc 1 1211 0
 1452 0002 0228     		cmp	r0, #2
ARM GAS  C:\Users\Vit\AppData\Local\Temp\ccnJL0JJ.s 			page 57


 1453 0004 0BD8     		bhi	.L145
1213:.\Generated_Source\PSoC4/CyLFClk.c ****             wdtIsrMask |= counterIntMaskTbl[counterNum];
 1454              		.loc 1 1213 0
 1455 0006 084B     		ldr	r3, .L147
 1456 0008 0849     		ldr	r1, .L147+4
 1457 000a 8000     		lsl	r0, r0, #2
 1458              	.LVL132:
 1459 000c 9A69     		ldr	r2, [r3, #24]
 1460 000e 4158     		ldr	r1, [r0, r1]
 1461 0010 8A43     		bic	r2, r1
 1462 0012 9A61     		str	r2, [r3, #24]
1214:.\Generated_Source\PSoC4/CyLFClk.c ****         }
 1463              		.loc 1 1214 0
 1464 0014 064A     		ldr	r2, .L147+8
 1465 0016 1368     		ldr	r3, [r2]
 1466 0018 0B43     		orr	r3, r1
 1467 001a 1360     		str	r3, [r2]
 1468 001c 02E0     		b	.L144
 1469              	.LVL133:
 1470              	.L145:
1218:.\Generated_Source\PSoC4/CyLFClk.c ****         }
 1471              		.loc 1 1218 0 discriminator 1
 1472 001e 0020     		mov	r0, #0
 1473              	.LVL134:
 1474 0020 FFF7FEFF 		bl	CyHalt
 1475              	.LVL135:
 1476              	.L144:
1220:.\Generated_Source\PSoC4/CyLFClk.c **** 
 1477              		.loc 1 1220 0
 1478              		@ sp needed
 1479 0024 08BD     		pop	{r3, pc}
 1480              	.L148:
 1481 0026 C046     		.align	2
 1482              	.L147:
 1483 0028 00000000 		.word	.LANCHOR0
 1484 002c 00000000 		.word	.LANCHOR1
 1485 0030 00000000 		.word	.LANCHOR2
 1486              		.cfi_endproc
 1487              	.LFE25:
 1488              		.size	CySysWdtEnableCounterIsr, .-CySysWdtEnableCounterIsr
 1489              		.section	.text.CySysWdtDisableCounterIsr,"ax",%progbits
 1490              		.align	1
 1491              		.global	CySysWdtDisableCounterIsr
 1492              		.code	16
 1493              		.thumb_func
 1494              		.type	CySysWdtDisableCounterIsr, %function
 1495              	CySysWdtDisableCounterIsr:
 1496              	.LFB26:
1235:.\Generated_Source\PSoC4/CyLFClk.c ****         if(counterNum <= CY_SYS_WDT_COUNTER2)
 1497              		.loc 1 1235 0
 1498              		.cfi_startproc
 1499              	.LVL136:
 1500 0000 08B5     		push	{r3, lr}
 1501              		.cfi_def_cfa_offset 8
 1502              		.cfi_offset 3, -8
 1503              		.cfi_offset 14, -4
1236:.\Generated_Source\PSoC4/CyLFClk.c ****         {
ARM GAS  C:\Users\Vit\AppData\Local\Temp\ccnJL0JJ.s 			page 58


 1504              		.loc 1 1236 0
 1505 0002 0228     		cmp	r0, #2
 1506 0004 07D8     		bhi	.L150
1238:.\Generated_Source\PSoC4/CyLFClk.c ****         }
 1507              		.loc 1 1238 0
 1508 0006 064A     		ldr	r2, .L152
 1509 0008 0649     		ldr	r1, .L152+4
 1510 000a 8000     		lsl	r0, r0, #2
 1511              	.LVL137:
 1512 000c 1368     		ldr	r3, [r2]
 1513 000e 4158     		ldr	r1, [r0, r1]
 1514 0010 8B43     		bic	r3, r1
 1515 0012 1360     		str	r3, [r2]
 1516 0014 02E0     		b	.L149
 1517              	.LVL138:
 1518              	.L150:
1242:.\Generated_Source\PSoC4/CyLFClk.c ****         }
 1519              		.loc 1 1242 0 discriminator 1
 1520 0016 0020     		mov	r0, #0
 1521              	.LVL139:
 1522 0018 FFF7FEFF 		bl	CyHalt
 1523              	.LVL140:
 1524              	.L149:
1244:.\Generated_Source\PSoC4/CyLFClk.c **** 
 1525              		.loc 1 1244 0
 1526              		@ sp needed
 1527 001c 08BD     		pop	{r3, pc}
 1528              	.L153:
 1529 001e C046     		.align	2
 1530              	.L152:
 1531 0020 00000000 		.word	.LANCHOR2
 1532 0024 00000000 		.word	.LANCHOR1
 1533              		.cfi_endproc
 1534              	.LFE26:
 1535              		.size	CySysWdtDisableCounterIsr, .-CySysWdtDisableCounterIsr
 1536              		.section	.text.CySysWdtIsr,"ax",%progbits
 1537              		.align	1
 1538              		.global	CySysWdtIsr
 1539              		.code	16
 1540              		.thumb_func
 1541              		.type	CySysWdtIsr, %function
 1542              	CySysWdtIsr:
 1543              	.LFB27:
1273:.\Generated_Source\PSoC4/CyLFClk.c ****         if(0u != (CY_SYS_WDT_COUNTER0_INT & CY_SYS_WDT_CONTROL_REG))
 1544              		.loc 1 1273 0
 1545              		.cfi_startproc
1274:.\Generated_Source\PSoC4/CyLFClk.c ****         {
 1546              		.loc 1 1274 0
 1547 0000 0422     		mov	r2, #4
1273:.\Generated_Source\PSoC4/CyLFClk.c ****         if(0u != (CY_SYS_WDT_COUNTER0_INT & CY_SYS_WDT_CONTROL_REG))
 1548              		.loc 1 1273 0
 1549 0002 38B5     		push	{r3, r4, r5, lr}
 1550              		.cfi_def_cfa_offset 16
 1551              		.cfi_offset 3, -16
 1552              		.cfi_offset 4, -12
 1553              		.cfi_offset 5, -8
 1554              		.cfi_offset 14, -4
ARM GAS  C:\Users\Vit\AppData\Local\Temp\ccnJL0JJ.s 			page 59


1274:.\Generated_Source\PSoC4/CyLFClk.c ****         {
 1555              		.loc 1 1274 0
 1556 0004 224C     		ldr	r4, .L186
 1557 0006 2368     		ldr	r3, [r4]
 1558 0008 1342     		tst	r3, r2
 1559 000a 13D0     		beq	.L155
1276:.\Generated_Source\PSoC4/CyLFClk.c ****             {
 1560              		.loc 1 1276 0
 1561 000c 2149     		ldr	r1, .L186+4
 1562 000e 0B68     		ldr	r3, [r1]
 1563 0010 1342     		tst	r3, r2
 1564 0012 0CD0     		beq	.L157
1278:.\Generated_Source\PSoC4/CyLFClk.c ****                 disableServicedIsr  &= ~CY_SYS_WDT_COUNTER0_INT;
 1565              		.loc 1 1278 0
 1566 0014 204B     		ldr	r3, .L186+8
 1567 0016 9D69     		ldr	r5, [r3, #24]
 1568 0018 0868     		ldr	r0, [r1]
 1569 001a 1540     		and	r5, r2
 1570 001c A843     		bic	r0, r5
 1571 001e 0860     		str	r0, [r1]
1279:.\Generated_Source\PSoC4/CyLFClk.c ****                 if(cySysWdtCallback[CY_SYS_WDT_COUNTER0] != (void *) 0)
 1572              		.loc 1 1279 0
 1573 0020 9969     		ldr	r1, [r3, #24]
 1574 0022 9143     		bic	r1, r2
 1575 0024 9961     		str	r1, [r3, #24]
1280:.\Generated_Source\PSoC4/CyLFClk.c ****                 {
 1576              		.loc 1 1280 0
 1577 0026 DB68     		ldr	r3, [r3, #12]
 1578 0028 002B     		cmp	r3, #0
 1579 002a 00D0     		beq	.L157
1282:.\Generated_Source\PSoC4/CyLFClk.c ****                 }
 1580              		.loc 1 1282 0
 1581 002c 9847     		blx	r3
 1582              	.LVL141:
 1583              	.L157:
1285:.\Generated_Source\PSoC4/CyLFClk.c ****         }
 1584              		.loc 1 1285 0
 1585 002e 0420     		mov	r0, #4
 1586 0030 FFF7FEFF 		bl	CySysWdtClearInterrupt
 1587              	.LVL142:
 1588              	.L155:
1288:.\Generated_Source\PSoC4/CyLFClk.c ****         {
 1589              		.loc 1 1288 0
 1590 0034 8023     		mov	r3, #128
 1591 0036 2268     		ldr	r2, [r4]
 1592 0038 DB00     		lsl	r3, r3, #3
 1593 003a 1A42     		tst	r2, r3
 1594 003c 15D0     		beq	.L159
1290:.\Generated_Source\PSoC4/CyLFClk.c ****             {
 1595              		.loc 1 1290 0
 1596 003e 1549     		ldr	r1, .L186+4
 1597 0040 0A68     		ldr	r2, [r1]
 1598 0042 1A42     		tst	r2, r3
 1599 0044 0DD0     		beq	.L161
1292:.\Generated_Source\PSoC4/CyLFClk.c ****                 disableServicedIsr  &= ~CY_SYS_WDT_COUNTER1_INT;
 1600              		.loc 1 1292 0
 1601 0046 144A     		ldr	r2, .L186+8
ARM GAS  C:\Users\Vit\AppData\Local\Temp\ccnJL0JJ.s 			page 60


 1602 0048 9569     		ldr	r5, [r2, #24]
 1603 004a 0868     		ldr	r0, [r1]
 1604 004c 2B40     		and	r3, r5
 1605 004e 9843     		bic	r0, r3
 1606 0050 0860     		str	r0, [r1]
1293:.\Generated_Source\PSoC4/CyLFClk.c ****                 if(cySysWdtCallback[CY_SYS_WDT_COUNTER1] != (void *) 0)
 1607              		.loc 1 1293 0
 1608 0052 9169     		ldr	r1, [r2, #24]
 1609 0054 114B     		ldr	r3, .L186+12
 1610 0056 0B40     		and	r3, r1
 1611 0058 9361     		str	r3, [r2, #24]
1294:.\Generated_Source\PSoC4/CyLFClk.c ****                 {
 1612              		.loc 1 1294 0
 1613 005a 1369     		ldr	r3, [r2, #16]
 1614 005c 002B     		cmp	r3, #0
 1615 005e 00D0     		beq	.L161
1296:.\Generated_Source\PSoC4/CyLFClk.c ****                 }
 1616              		.loc 1 1296 0
 1617 0060 9847     		blx	r3
 1618              	.LVL143:
 1619              	.L161:
1299:.\Generated_Source\PSoC4/CyLFClk.c ****         }
 1620              		.loc 1 1299 0
 1621 0062 8020     		mov	r0, #128
 1622 0064 C000     		lsl	r0, r0, #3
 1623 0066 FFF7FEFF 		bl	CySysWdtClearInterrupt
 1624              	.LVL144:
 1625              	.L159:
1302:.\Generated_Source\PSoC4/CyLFClk.c ****         {
 1626              		.loc 1 1302 0
 1627 006a 8023     		mov	r3, #128
 1628 006c 2268     		ldr	r2, [r4]
 1629 006e DB02     		lsl	r3, r3, #11
 1630 0070 1A42     		tst	r2, r3
 1631 0072 0CD0     		beq	.L154
1304:.\Generated_Source\PSoC4/CyLFClk.c ****             {
 1632              		.loc 1 1304 0
 1633 0074 074A     		ldr	r2, .L186+4
 1634 0076 1268     		ldr	r2, [r2]
 1635 0078 1A42     		tst	r2, r3
 1636 007a 04D0     		beq	.L164
1306:.\Generated_Source\PSoC4/CyLFClk.c ****                 {
 1637              		.loc 1 1306 0
 1638 007c 064B     		ldr	r3, .L186+8
 1639 007e 5B69     		ldr	r3, [r3, #20]
 1640 0080 002B     		cmp	r3, #0
 1641 0082 00D0     		beq	.L164
1308:.\Generated_Source\PSoC4/CyLFClk.c ****                 }
 1642              		.loc 1 1308 0
 1643 0084 9847     		blx	r3
 1644              	.LVL145:
 1645              	.L164:
1311:.\Generated_Source\PSoC4/CyLFClk.c ****         }
 1646              		.loc 1 1311 0
 1647 0086 8020     		mov	r0, #128
 1648 0088 C002     		lsl	r0, r0, #11
 1649 008a FFF7FEFF 		bl	CySysWdtClearInterrupt
ARM GAS  C:\Users\Vit\AppData\Local\Temp\ccnJL0JJ.s 			page 61


 1650              	.LVL146:
 1651              	.L154:
1313:.\Generated_Source\PSoC4/CyLFClk.c **** 
 1652              		.loc 1 1313 0
 1653              		@ sp needed
 1654 008e 38BD     		pop	{r3, r4, r5, pc}
 1655              	.L187:
 1656              		.align	2
 1657              	.L186:
 1658 0090 10020B40 		.word	1074463248
 1659 0094 00000000 		.word	.LANCHOR2
 1660 0098 00000000 		.word	.LANCHOR0
 1661 009c FFFBFFFF 		.word	-1025
 1662              		.cfi_endproc
 1663              	.LFE27:
 1664              		.size	CySysWdtIsr, .-CySysWdtIsr
 1665              		.section	.text.CySysTimerDelayUntilMatch,"ax",%progbits
 1666              		.align	1
 1667              		.global	CySysTimerDelayUntilMatch
 1668              		.code	16
 1669              		.thumb_func
 1670              		.type	CySysTimerDelayUntilMatch, %function
 1671              	CySysTimerDelayUntilMatch:
 1672              	.LFB29:
1448:.\Generated_Source\PSoC4/CyLFClk.c ****         uint32 tmpValue;
 1673              		.loc 1 1448 0
 1674              		.cfi_startproc
 1675              	.LVL147:
 1676 0000 70B5     		push	{r4, r5, r6, lr}
 1677              		.cfi_def_cfa_offset 16
 1678              		.cfi_offset 4, -16
 1679              		.cfi_offset 5, -12
 1680              		.cfi_offset 6, -8
 1681              		.cfi_offset 14, -4
1448:.\Generated_Source\PSoC4/CyLFClk.c ****         uint32 tmpValue;
 1682              		.loc 1 1448 0
 1683 0002 041C     		mov	r4, r0
 1684 0004 0E1C     		mov	r6, r1
 1685 0006 151C     		mov	r5, r2
1451:.\Generated_Source\PSoC4/CyLFClk.c ****         {
 1686              		.loc 1 1451 0
 1687 0008 0128     		cmp	r0, #1
 1688 000a 23D8     		bhi	.L189
1451:.\Generated_Source\PSoC4/CyLFClk.c ****         {
 1689              		.loc 1 1451 0 is_stmt 0 discriminator 1
 1690 000c FFF7FEFF 		bl	CySysWdtGetClearOnMatch
 1691              	.LVL148:
 1692 0010 0028     		cmp	r0, #0
 1693 0012 1FD1     		bne	.L189
1451:.\Generated_Source\PSoC4/CyLFClk.c ****         {
 1694              		.loc 1 1451 0 discriminator 2
 1695 0014 114B     		ldr	r3, .L194
 1696 0016 9D42     		cmp	r5, r3
 1697 0018 1CD8     		bhi	.L189
1453:.\Generated_Source\PSoC4/CyLFClk.c ****             {
 1698              		.loc 1 1453 0 is_stmt 1
 1699 001a 002E     		cmp	r6, #0
ARM GAS  C:\Users\Vit\AppData\Local\Temp\ccnJL0JJ.s 			page 62


 1700 001c 0AD1     		bne	.L190
 1701              	.L191:
1457:.\Generated_Source\PSoC4/CyLFClk.c ****                 }while(tmpValue > match);
 1702              		.loc 1 1457 0 discriminator 1
 1703 001e 201C     		mov	r0, r4
 1704 0020 FFF7FEFF 		bl	CySysWdtGetCount
 1705              	.LVL149:
1458:.\Generated_Source\PSoC4/CyLFClk.c **** 
 1706              		.loc 1 1458 0 discriminator 1
 1707 0024 A842     		cmp	r0, r5
 1708 0026 FAD8     		bhi	.L191
 1709              	.L192:
1462:.\Generated_Source\PSoC4/CyLFClk.c ****                 }while(tmpValue < match);
 1710              		.loc 1 1462 0 discriminator 1
 1711 0028 201C     		mov	r0, r4
 1712              	.LVL150:
 1713 002a FFF7FEFF 		bl	CySysWdtGetCount
 1714              	.LVL151:
1463:.\Generated_Source\PSoC4/CyLFClk.c ****             }
 1715              		.loc 1 1463 0 discriminator 1
 1716 002e A842     		cmp	r0, r5
 1717 0030 FAD3     		bcc	.L192
 1718 0032 12E0     		b	.L188
 1719              	.LVL152:
 1720              	.L190:
 1721              	.LBB112:
 1722              	.LBB113:
1467:.\Generated_Source\PSoC4/CyLFClk.c ****                 CySysWdtSetMatch(counterNum, match);
 1723              		.loc 1 1467 0
 1724 0034 0A4B     		ldr	r3, .L194+4
 1725 0036 A200     		lsl	r2, r4, #2
1468:.\Generated_Source\PSoC4/CyLFClk.c **** 
 1726              		.loc 1 1468 0
 1727 0038 201C     		mov	r0, r4
 1728 003a 291C     		mov	r1, r5
1467:.\Generated_Source\PSoC4/CyLFClk.c ****                 CySysWdtSetMatch(counterNum, match);
 1729              		.loc 1 1467 0
 1730 003c D658     		ldr	r6, [r2, r3]
 1731              	.LVL153:
1468:.\Generated_Source\PSoC4/CyLFClk.c **** 
 1732              		.loc 1 1468 0
 1733 003e FFF7FEFF 		bl	CySysWdtSetMatch
 1734              	.LVL154:
1470:.\Generated_Source\PSoC4/CyLFClk.c ****                 wdtIsrMask |= tmpValue;
 1735              		.loc 1 1470 0
 1736 0042 084A     		ldr	r2, .L194+8
 1737 0044 9369     		ldr	r3, [r2, #24]
 1738 0046 3343     		orr	r3, r6
 1739 0048 9361     		str	r3, [r2, #24]
1471:.\Generated_Source\PSoC4/CyLFClk.c ****             }
 1740              		.loc 1 1471 0
 1741 004a 074A     		ldr	r2, .L194+12
 1742 004c 1368     		ldr	r3, [r2]
 1743 004e 3343     		orr	r3, r6
 1744 0050 1360     		str	r3, [r2]
 1745 0052 02E0     		b	.L188
 1746              	.LVL155:
ARM GAS  C:\Users\Vit\AppData\Local\Temp\ccnJL0JJ.s 			page 63


 1747              	.L189:
 1748              	.LBE113:
 1749              	.LBE112:
1476:.\Generated_Source\PSoC4/CyLFClk.c ****         }
 1750              		.loc 1 1476 0
 1751 0054 0020     		mov	r0, #0
 1752 0056 FFF7FEFF 		bl	CyHalt
 1753              	.LVL156:
 1754              	.L188:
1478:.\Generated_Source\PSoC4/CyLFClk.c **** 
 1755              		.loc 1 1478 0
 1756              		@ sp needed
 1757              	.LVL157:
 1758              	.LVL158:
 1759 005a 70BD     		pop	{r4, r5, r6, pc}
 1760              	.L195:
 1761              		.align	2
 1762              	.L194:
 1763 005c FFFF0000 		.word	65535
 1764 0060 00000000 		.word	.LANCHOR1
 1765 0064 00000000 		.word	.LANCHOR0
 1766 0068 00000000 		.word	.LANCHOR2
 1767              		.cfi_endproc
 1768              	.LFE29:
 1769              		.size	CySysTimerDelayUntilMatch, .-CySysTimerDelayUntilMatch
 1770              		.section	.text.CySysTimerDelay,"ax",%progbits
 1771              		.align	1
 1772              		.global	CySysTimerDelay
 1773              		.code	16
 1774              		.thumb_func
 1775              		.type	CySysTimerDelay, %function
 1776              	CySysTimerDelay:
 1777              	.LFB28:
1372:.\Generated_Source\PSoC4/CyLFClk.c ****         uint32 regValue;
 1778              		.loc 1 1372 0
 1779              		.cfi_startproc
 1780              	.LVL159:
 1781 0000 70B5     		push	{r4, r5, r6, lr}
 1782              		.cfi_def_cfa_offset 16
 1783              		.cfi_offset 4, -16
 1784              		.cfi_offset 5, -12
 1785              		.cfi_offset 6, -8
 1786              		.cfi_offset 14, -4
1372:.\Generated_Source\PSoC4/CyLFClk.c ****         uint32 regValue;
 1787              		.loc 1 1372 0
 1788 0002 051C     		mov	r5, r0
 1789 0004 0E1C     		mov	r6, r1
 1790 0006 141C     		mov	r4, r2
1376:.\Generated_Source\PSoC4/CyLFClk.c ****         {
 1791              		.loc 1 1376 0
 1792 0008 0128     		cmp	r0, #1
 1793 000a 10D8     		bhi	.L197
1376:.\Generated_Source\PSoC4/CyLFClk.c ****         {
 1794              		.loc 1 1376 0 is_stmt 0 discriminator 1
 1795 000c FFF7FEFF 		bl	CySysWdtGetClearOnMatch
 1796              	.LVL160:
 1797 0010 0028     		cmp	r0, #0
ARM GAS  C:\Users\Vit\AppData\Local\Temp\ccnJL0JJ.s 			page 64


 1798 0012 0CD1     		bne	.L197
1376:.\Generated_Source\PSoC4/CyLFClk.c ****         {
 1799              		.loc 1 1376 0 discriminator 2
 1800 0014 084B     		ldr	r3, .L199
 1801 0016 9C42     		cmp	r4, r3
 1802 0018 09D8     		bhi	.L197
1378:.\Generated_Source\PSoC4/CyLFClk.c ****             matchValue = (regValue + delay) & (uint32)UINT16_MAX_VAL;
 1803              		.loc 1 1378 0 is_stmt 1
 1804 001a 281C     		mov	r0, r5
 1805 001c FFF7FEFF 		bl	CySysWdtGetCount
 1806              	.LVL161:
1379:.\Generated_Source\PSoC4/CyLFClk.c **** 
 1807              		.loc 1 1379 0
 1808 0020 0219     		add	r2, r0, r4
 1809 0022 92B2     		uxth	r2, r2
1381:.\Generated_Source\PSoC4/CyLFClk.c ****         }
 1810              		.loc 1 1381 0
 1811 0024 281C     		mov	r0, r5
 1812              	.LVL162:
 1813 0026 311C     		mov	r1, r6
 1814 0028 FFF7FEFF 		bl	CySysTimerDelayUntilMatch
 1815              	.LVL163:
 1816 002c 02E0     		b	.L196
 1817              	.L197:
1385:.\Generated_Source\PSoC4/CyLFClk.c ****         }
 1818              		.loc 1 1385 0
 1819 002e 0020     		mov	r0, #0
 1820 0030 FFF7FEFF 		bl	CyHalt
 1821              	.LVL164:
 1822              	.L196:
1387:.\Generated_Source\PSoC4/CyLFClk.c **** 
 1823              		.loc 1 1387 0
 1824              		@ sp needed
 1825              	.LVL165:
 1826              	.LVL166:
 1827 0034 70BD     		pop	{r4, r5, r6, pc}
 1828              	.L200:
 1829 0036 C046     		.align	2
 1830              	.L199:
 1831 0038 FFFF0000 		.word	65535
 1832              		.cfi_endproc
 1833              	.LFE28:
 1834              		.size	CySysTimerDelay, .-CySysTimerDelay
 1835              		.section	.text.CySysWatchdogFeed,"ax",%progbits
 1836              		.align	1
 1837              		.global	CySysWatchdogFeed
 1838              		.code	16
 1839              		.thumb_func
 1840              		.type	CySysWatchdogFeed, %function
 1841              	CySysWatchdogFeed:
 1842              	.LFB30:
1501:.\Generated_Source\PSoC4/CyLFClk.c ****         if(counterNum == CY_SYS_WDT_COUNTER0)
 1843              		.loc 1 1501 0
 1844              		.cfi_startproc
 1845              	.LVL167:
 1846 0000 10B5     		push	{r4, lr}
 1847              		.cfi_def_cfa_offset 8
ARM GAS  C:\Users\Vit\AppData\Local\Temp\ccnJL0JJ.s 			page 65


 1848              		.cfi_offset 4, -8
 1849              		.cfi_offset 14, -4
1501:.\Generated_Source\PSoC4/CyLFClk.c ****         if(counterNum == CY_SYS_WDT_COUNTER0)
 1850              		.loc 1 1501 0
 1851 0002 041E     		sub	r4, r0, #0
1502:.\Generated_Source\PSoC4/CyLFClk.c ****         {
 1852              		.loc 1 1502 0
 1853 0004 0FD1     		bne	.L202
1504:.\Generated_Source\PSoC4/CyLFClk.c ****             {
 1854              		.loc 1 1504 0
 1855 0006 FFF7FEFF 		bl	CySysWdtGetMode
 1856              	.LVL168:
 1857 000a 0328     		cmp	r0, #3
 1858 000c 01D1     		bne	.L203
1506:.\Generated_Source\PSoC4/CyLFClk.c ****             }
 1859              		.loc 1 1506 0
 1860 000e 0238     		sub	r0, r0, #2
 1861 0010 1CE0     		b	.L208
 1862              	.L203:
1508:.\Generated_Source\PSoC4/CyLFClk.c ****             {
 1863              		.loc 1 1508 0
 1864 0012 201C     		mov	r0, r4
 1865 0014 FFF7FEFF 		bl	CySysWdtGetMode
 1866              	.LVL169:
 1867 0018 0228     		cmp	r0, #2
 1868 001a 19D1     		bne	.L201
1510:.\Generated_Source\PSoC4/CyLFClk.c ****                 CySysWdtClearInterrupt(CY_SYS_WDT_COUNTER0_MASK);
 1869              		.loc 1 1510 0
 1870 001c 0630     		add	r0, r0, #6
 1871 001e FFF7FEFF 		bl	CySysWdtResetCounters
 1872              	.LVL170:
1511:.\Generated_Source\PSoC4/CyLFClk.c ****             }
 1873              		.loc 1 1511 0
 1874 0022 0120     		mov	r0, #1
 1875 0024 12E0     		b	.L208
 1876              	.LVL171:
 1877              	.L202:
1518:.\Generated_Source\PSoC4/CyLFClk.c ****         {
 1878              		.loc 1 1518 0
 1879 0026 0128     		cmp	r0, #1
 1880 0028 12D1     		bne	.L201
1520:.\Generated_Source\PSoC4/CyLFClk.c ****             {
 1881              		.loc 1 1520 0
 1882 002a FFF7FEFF 		bl	CySysWdtGetMode
 1883              	.LVL172:
 1884 002e 0328     		cmp	r0, #3
 1885 0030 01D1     		bne	.L207
1522:.\Generated_Source\PSoC4/CyLFClk.c ****             }
 1886              		.loc 1 1522 0
 1887 0032 FD30     		add	r0, r0, #253
 1888 0034 0AE0     		b	.L208
 1889              	.L207:
1524:.\Generated_Source\PSoC4/CyLFClk.c ****             {
 1890              		.loc 1 1524 0
 1891 0036 201C     		mov	r0, r4
 1892 0038 FFF7FEFF 		bl	CySysWdtGetMode
 1893              	.LVL173:
ARM GAS  C:\Users\Vit\AppData\Local\Temp\ccnJL0JJ.s 			page 66


 1894 003c 0228     		cmp	r0, #2
 1895 003e 07D1     		bne	.L201
1526:.\Generated_Source\PSoC4/CyLFClk.c ****                 CySysWdtClearInterrupt(CY_SYS_WDT_COUNTER1_MASK);
 1896              		.loc 1 1526 0
 1897 0040 8020     		mov	r0, #128
 1898 0042 0001     		lsl	r0, r0, #4
 1899 0044 FFF7FEFF 		bl	CySysWdtResetCounters
 1900              	.LVL174:
1527:.\Generated_Source\PSoC4/CyLFClk.c ****             }
 1901              		.loc 1 1527 0
 1902 0048 8020     		mov	r0, #128
 1903 004a 4000     		lsl	r0, r0, #1
 1904              	.L208:
 1905 004c FFF7FEFF 		bl	CySysWdtClearInterrupt
 1906              	.LVL175:
 1907              	.L201:
1538:.\Generated_Source\PSoC4/CyLFClk.c **** 
 1908              		.loc 1 1538 0
 1909              		@ sp needed
 1910              	.LVL176:
 1911 0050 10BD     		pop	{r4, pc}
 1912              		.cfi_endproc
 1913              	.LFE30:
 1914              		.size	CySysWatchdogFeed, .-CySysWatchdogFeed
 1915              		.section	.rodata
 1916              		.align	2
 1917              		.set	.LANCHOR1,. + 0
 1918              		.type	counterIntMaskTbl, %object
 1919              		.size	counterIntMaskTbl, 12
 1920              	counterIntMaskTbl:
 1921 0000 04000000 		.word	4
 1922 0004 00040000 		.word	1024
 1923 0008 00000400 		.word	262144
 1924              		.data
 1925              		.align	2
 1926              		.set	.LANCHOR2,. + 0
 1927              		.type	wdtIsrMask, %object
 1928              		.size	wdtIsrMask, 4
 1929              	wdtIsrMask:
 1930 0000 04040400 		.word	263172
 1931              		.bss
 1932              		.align	2
 1933              		.set	.LANCHOR0,. + 0
 1934              		.type	lfclkPosedgeEnabledWdtCounter.4836, %object
 1935              		.size	lfclkPosedgeEnabledWdtCounter.4836, 4
 1936              	lfclkPosedgeEnabledWdtCounter.4836:
 1937 0000 00000000 		.space	4
 1938              		.type	lfclkPosedgeWdtCounter0Enabled, %object
 1939              		.size	lfclkPosedgeWdtCounter0Enabled, 4
 1940              	lfclkPosedgeWdtCounter0Enabled:
 1941 0004 00000000 		.space	4
 1942              		.type	lfclkPosedgeWdtCounter0Mode, %object
 1943              		.size	lfclkPosedgeWdtCounter0Mode, 4
 1944              	lfclkPosedgeWdtCounter0Mode:
 1945 0008 00000000 		.space	4
 1946              		.type	cySysWdtCallback, %object
 1947              		.size	cySysWdtCallback, 12
ARM GAS  C:\Users\Vit\AppData\Local\Temp\ccnJL0JJ.s 			page 67


 1948              	cySysWdtCallback:
 1949 000c 00000000 		.space	12
 1949      00000000 
 1949      00000000 
 1950              		.type	disableServicedIsr, %object
 1951              		.size	disableServicedIsr, 4
 1952              	disableServicedIsr:
 1953 0018 00000000 		.space	4
 1954              		.text
 1955              	.Letext0:
 1956              		.file 2 ".\\Generated_Source\\PSoC4\\cytypes.h"
 1957              		.file 3 ".\\Generated_Source\\PSoC4\\CyLFClk.h"
 1958              		.file 4 ".\\Generated_Source\\PSoC4\\CyLib.h"