ARM GAS  C:\Users\Vit\AppData\Local\Temp\ccnJL0JJ.s 			page 1


   1              		.cpu cortex-m0
   2              		.fpu softvfp
   3              		.eabi_attribute 20, 1
   4              		.eabi_attribute 21, 1
   5              		.eabi_attribute 23, 3
   6              		.eabi_attribute 24, 1
   7              		.eabi_attribute 25, 1
   8              		.eabi_attribute 26, 1
   9              		.eabi_attribute 30, 4
  10              		.eabi_attribute 34, 0
  11              		.eabi_attribute 18, 4
  12              		.code	16
  13              		.file	"CyLFClk.c"
  14              		.text
  15              	.Ltext0:
  16              		.cfi_sections	.debug_frame
  17              		.section	.text.CySysClkIloStart,"ax",%progbits
  18              		.align	1
  19              		.global	CySysClkIloStart
  20              		.code	16
  21              		.thumb_func
  22              		.type	CySysClkIloStart, %function
  23              	CySysClkIloStart:
  24              	.LFB0:
  25              		.file 1 ".\\Generated_Source\\PSoC4\\CyLFClk.c"
   1:.\Generated_Source\PSoC4/CyLFClk.c **** /*******************************************************************************
   2:.\Generated_Source\PSoC4/CyLFClk.c **** * File Name: .c
   3:.\Generated_Source\PSoC4/CyLFClk.c **** * Version 1.0
   4:.\Generated_Source\PSoC4/CyLFClk.c **** *
   5:.\Generated_Source\PSoC4/CyLFClk.c **** * Description:
   6:.\Generated_Source\PSoC4/CyLFClk.c **** *  This file provides the source code to API for the cy_lfclk Component.
   7:.\Generated_Source\PSoC4/CyLFClk.c **** *
   8:.\Generated_Source\PSoC4/CyLFClk.c **** ********************************************************************************
   9:.\Generated_Source\PSoC4/CyLFClk.c **** * Copyright 2008-2015, Cypress Semiconductor Corporation.  All rights reserved.
  10:.\Generated_Source\PSoC4/CyLFClk.c **** * You may use this file only in accordance with the license, terms, conditions,
  11:.\Generated_Source\PSoC4/CyLFClk.c **** * disclaimers, and limitations in the end user license agreement accompanying
  12:.\Generated_Source\PSoC4/CyLFClk.c **** * the software package with which this file was provided.
  13:.\Generated_Source\PSoC4/CyLFClk.c **** *******************************************************************************/
  14:.\Generated_Source\PSoC4/CyLFClk.c **** 
  15:.\Generated_Source\PSoC4/CyLFClk.c **** 
  16:.\Generated_Source\PSoC4/CyLFClk.c **** #include "CyLFClk.h"
  17:.\Generated_Source\PSoC4/CyLFClk.c **** #include "CyLib.h"
  18:.\Generated_Source\PSoC4/CyLFClk.c **** 
  19:.\Generated_Source\PSoC4/CyLFClk.c **** 
  20:.\Generated_Source\PSoC4/CyLFClk.c **** #if (CY_IP_WCO)
  21:.\Generated_Source\PSoC4/CyLFClk.c ****     static uint32 CySysClkGetLfclkSource(void);
  22:.\Generated_Source\PSoC4/CyLFClk.c **** #endif /* (CY_IP_WCO) */
  23:.\Generated_Source\PSoC4/CyLFClk.c **** 
  24:.\Generated_Source\PSoC4/CyLFClk.c **** #if(CY_IP_SRSSV2)
  25:.\Generated_Source\PSoC4/CyLFClk.c ****     /* CySysClkLfclkPosedgeCatch() / CySysClkLfclkPosedgeRestore() */
  26:.\Generated_Source\PSoC4/CyLFClk.c ****     static uint32 lfclkPosedgeWdtCounter0Enabled = 0u;
  27:.\Generated_Source\PSoC4/CyLFClk.c ****     static uint32 lfclkPosedgeWdtCounter0Mode    = CY_SYS_WDT_MODE_NONE;
  28:.\Generated_Source\PSoC4/CyLFClk.c **** 
  29:.\Generated_Source\PSoC4/CyLFClk.c ****     static volatile uint32 disableServicedIsr = 0uL;
  30:.\Generated_Source\PSoC4/CyLFClk.c ****     static volatile uint32 wdtIsrMask = CY_SYS_WDT_COUNTER0_INT |\
  31:.\Generated_Source\PSoC4/CyLFClk.c ****                                         CY_SYS_WDT_COUNTER1_INT |\
  32:.\Generated_Source\PSoC4/CyLFClk.c ****                                         CY_SYS_WDT_COUNTER2_INT;
ARM GAS  C:\Users\Vit\AppData\Local\Temp\ccnJL0JJ.s 			page 2


  33:.\Generated_Source\PSoC4/CyLFClk.c **** 
  34:.\Generated_Source\PSoC4/CyLFClk.c ****     static const uint32 counterIntMaskTbl[CY_WDT_NUM_OF_WDT] = {CY_SYS_WDT_COUNTER0_INT,
  35:.\Generated_Source\PSoC4/CyLFClk.c ****                                                                 CY_SYS_WDT_COUNTER1_INT,
  36:.\Generated_Source\PSoC4/CyLFClk.c ****                                                                 CY_SYS_WDT_COUNTER2_INT};
  37:.\Generated_Source\PSoC4/CyLFClk.c **** 
  38:.\Generated_Source\PSoC4/CyLFClk.c ****     static void CySysClkLfclkPosedgeCatch(void);
  39:.\Generated_Source\PSoC4/CyLFClk.c ****     static void CySysClkLfclkPosedgeRestore(void);
  40:.\Generated_Source\PSoC4/CyLFClk.c **** 
  41:.\Generated_Source\PSoC4/CyLFClk.c ****     static uint32 CySysWdtLocked(void);
  42:.\Generated_Source\PSoC4/CyLFClk.c ****     static uint32 CySysClkIloEnabled(void);
  43:.\Generated_Source\PSoC4/CyLFClk.c **** #endif /* (CY_IP_SRSSV2) */
  44:.\Generated_Source\PSoC4/CyLFClk.c **** 
  45:.\Generated_Source\PSoC4/CyLFClk.c **** #if(CY_IP_SRSSV2)
  46:.\Generated_Source\PSoC4/CyLFClk.c ****     static cyWdtCallback cySysWdtCallback[CY_WDT_NUM_OF_WDT] = {(void *)0, (void *)0, (void *)0};
  47:.\Generated_Source\PSoC4/CyLFClk.c **** #else
  48:.\Generated_Source\PSoC4/CyLFClk.c ****     static cyWdtCallback cySysWdtCallback = (void *)0;
  49:.\Generated_Source\PSoC4/CyLFClk.c **** #endif /* (CY_IP_SRSSV2) */
  50:.\Generated_Source\PSoC4/CyLFClk.c **** 
  51:.\Generated_Source\PSoC4/CyLFClk.c **** /*******************************************************************************
  52:.\Generated_Source\PSoC4/CyLFClk.c **** * Function Name: CySysClkIloStart
  53:.\Generated_Source\PSoC4/CyLFClk.c **** ********************************************************************************
  54:.\Generated_Source\PSoC4/CyLFClk.c **** *
  55:.\Generated_Source\PSoC4/CyLFClk.c **** * Summary:
  56:.\Generated_Source\PSoC4/CyLFClk.c **** *  Enables ILO. Refer to the device datasheet for the ILO startup time.
  57:.\Generated_Source\PSoC4/CyLFClk.c **** *
  58:.\Generated_Source\PSoC4/CyLFClk.c **** * Parameters:
  59:.\Generated_Source\PSoC4/CyLFClk.c **** *  None
  60:.\Generated_Source\PSoC4/CyLFClk.c **** *
  61:.\Generated_Source\PSoC4/CyLFClk.c **** * Return:
  62:.\Generated_Source\PSoC4/CyLFClk.c **** *  None
  63:.\Generated_Source\PSoC4/CyLFClk.c **** *
  64:.\Generated_Source\PSoC4/CyLFClk.c **** *******************************************************************************/
  65:.\Generated_Source\PSoC4/CyLFClk.c **** void CySysClkIloStart(void)
  66:.\Generated_Source\PSoC4/CyLFClk.c **** {
  26              		.loc 1 66 0
  27              		.cfi_startproc
  67:.\Generated_Source\PSoC4/CyLFClk.c ****     CY_SYS_CLK_ILO_CONFIG_REG |= CY_SYS_CLK_ILO_CONFIG_ENABLE;
  28              		.loc 1 67 0
  29 0000 8021     		mov	r1, #128
  30 0002 034A     		ldr	r2, .L2
  31 0004 0906     		lsl	r1, r1, #24
  32 0006 1368     		ldr	r3, [r2]
  68:.\Generated_Source\PSoC4/CyLFClk.c **** }
  33              		.loc 1 68 0
  34              		@ sp needed
  67:.\Generated_Source\PSoC4/CyLFClk.c ****     CY_SYS_CLK_ILO_CONFIG_REG |= CY_SYS_CLK_ILO_CONFIG_ENABLE;
  35              		.loc 1 67 0
  36 0008 0B43     		orr	r3, r1
  37 000a 1360     		str	r3, [r2]
  38              		.loc 1 68 0
  39 000c 7047     		bx	lr
  40              	.L3:
  41 000e C046     		.align	2
  42              	.L2:
  43 0010 04010B40 		.word	1074462980
  44              		.cfi_endproc
  45              	.LFE0:
ARM GAS  C:\Users\Vit\AppData\Local\Temp\ccnJL0JJ.s 			page 3


  46              		.size	CySysClkIloStart, .-CySysClkIloStart
  47              		.section	.text.CySysWdtLock,"ax",%progbits
  48              		.align	1
  49              		.global	CySysWdtLock
  50              		.code	16
  51              		.thumb_func
  52              		.type	CySysWdtLock, %function
  53              	CySysWdtLock:
  54              	.LFB3:
  69:.\Generated_Source\PSoC4/CyLFClk.c **** 
  70:.\Generated_Source\PSoC4/CyLFClk.c **** 
  71:.\Generated_Source\PSoC4/CyLFClk.c **** /*******************************************************************************
  72:.\Generated_Source\PSoC4/CyLFClk.c **** * Function Name: CySysClkIloStop
  73:.\Generated_Source\PSoC4/CyLFClk.c **** ********************************************************************************
  74:.\Generated_Source\PSoC4/CyLFClk.c **** *
  75:.\Generated_Source\PSoC4/CyLFClk.c **** * Summary:
  76:.\Generated_Source\PSoC4/CyLFClk.c **** *  Disables ILO.
  77:.\Generated_Source\PSoC4/CyLFClk.c **** *
  78:.\Generated_Source\PSoC4/CyLFClk.c **** * Parameters:
  79:.\Generated_Source\PSoC4/CyLFClk.c **** *  None.
  80:.\Generated_Source\PSoC4/CyLFClk.c **** *
  81:.\Generated_Source\PSoC4/CyLFClk.c **** * Return:
  82:.\Generated_Source\PSoC4/CyLFClk.c **** *  None.
  83:.\Generated_Source\PSoC4/CyLFClk.c **** *
  84:.\Generated_Source\PSoC4/CyLFClk.c **** * Side Effects:
  85:.\Generated_Source\PSoC4/CyLFClk.c **** *  This function has no effect if WDT is locked (CySysWdtLock() is
  86:.\Generated_Source\PSoC4/CyLFClk.c **** *  called). Call CySysWdtUnlock() to unlock WDT and stop ILO.
  87:.\Generated_Source\PSoC4/CyLFClk.c **** *
  88:.\Generated_Source\PSoC4/CyLFClk.c **** *  PSoC 4100 / PSoC 4200: Note that ILO is required for WDT's operation.
  89:.\Generated_Source\PSoC4/CyLFClk.c **** *  ILO is required for WDT operation.
  90:.\Generated_Source\PSoC4/CyLFClk.c **** *
  91:.\Generated_Source\PSoC4/CyLFClk.c **** *  PSoC 4100-BL / PSoC 4200-BL and PSoC 4100M / PSoC 4200M:
  92:.\Generated_Source\PSoC4/CyLFClk.c **** *  Stopping ILO affects the peripheral clocked by LFCLK, if
  93:.\Generated_Source\PSoC4/CyLFClk.c **** *  LFCLK is configured to be sourced by ILO.
  94:.\Generated_Source\PSoC4/CyLFClk.c **** *
  95:.\Generated_Source\PSoC4/CyLFClk.c **** *******************************************************************************/
  96:.\Generated_Source\PSoC4/CyLFClk.c **** void CySysClkIloStop(void)
  97:.\Generated_Source\PSoC4/CyLFClk.c **** {
  98:.\Generated_Source\PSoC4/CyLFClk.c ****     #if(CY_IP_SRSSV2)
  99:.\Generated_Source\PSoC4/CyLFClk.c ****         uint8  interruptState;
 100:.\Generated_Source\PSoC4/CyLFClk.c **** 
 101:.\Generated_Source\PSoC4/CyLFClk.c ****         /* Do nothing if WDT is locked or ILO is disabled */
 102:.\Generated_Source\PSoC4/CyLFClk.c ****         if (0u == CySysWdtLocked())
 103:.\Generated_Source\PSoC4/CyLFClk.c ****         {
 104:.\Generated_Source\PSoC4/CyLFClk.c ****             if (0u != CySysClkIloEnabled())
 105:.\Generated_Source\PSoC4/CyLFClk.c ****             {
 106:.\Generated_Source\PSoC4/CyLFClk.c **** 
 107:.\Generated_Source\PSoC4/CyLFClk.c ****             #if (CY_IP_WCO)
 108:.\Generated_Source\PSoC4/CyLFClk.c ****                 if (CY_SYS_CLK_LFCLK_SRC_ILO == CySysClkGetLfclkSource())
 109:.\Generated_Source\PSoC4/CyLFClk.c ****                 {
 110:.\Generated_Source\PSoC4/CyLFClk.c ****             #endif /* (CY_IP_WCO) */
 111:.\Generated_Source\PSoC4/CyLFClk.c **** 
 112:.\Generated_Source\PSoC4/CyLFClk.c ****                 interruptState = CyEnterCriticalSection();
 113:.\Generated_Source\PSoC4/CyLFClk.c ****                 CySysClkLfclkPosedgeCatch();
 114:.\Generated_Source\PSoC4/CyLFClk.c ****                 CY_SYS_CLK_ILO_CONFIG_REG &= ( uint32 ) ( ~( uint32 )CY_SYS_CLK_ILO_CONFIG_ENABLE);
 115:.\Generated_Source\PSoC4/CyLFClk.c ****                 CySysClkLfclkPosedgeRestore();
 116:.\Generated_Source\PSoC4/CyLFClk.c ****                 CyExitCriticalSection(interruptState);
ARM GAS  C:\Users\Vit\AppData\Local\Temp\ccnJL0JJ.s 			page 4


 117:.\Generated_Source\PSoC4/CyLFClk.c **** 
 118:.\Generated_Source\PSoC4/CyLFClk.c ****             #if (CY_IP_WCO)
 119:.\Generated_Source\PSoC4/CyLFClk.c ****                 }
 120:.\Generated_Source\PSoC4/CyLFClk.c ****                 else /* Safe to disable - shortened pulse does not impact peripheral */
 121:.\Generated_Source\PSoC4/CyLFClk.c ****                 {
 122:.\Generated_Source\PSoC4/CyLFClk.c ****                     CY_SYS_CLK_ILO_CONFIG_REG &= ( uint32 ) ( ~( uint32 )CY_SYS_CLK_ILO_CONFIG_ENAB
 123:.\Generated_Source\PSoC4/CyLFClk.c ****                 }
 124:.\Generated_Source\PSoC4/CyLFClk.c ****             #endif /* (CY_IP_WCO) */
 125:.\Generated_Source\PSoC4/CyLFClk.c **** 
 126:.\Generated_Source\PSoC4/CyLFClk.c ****             }
 127:.\Generated_Source\PSoC4/CyLFClk.c ****         }
 128:.\Generated_Source\PSoC4/CyLFClk.c ****     #else
 129:.\Generated_Source\PSoC4/CyLFClk.c ****         CY_SYS_CLK_ILO_CONFIG_REG &= ( uint32 ) ( ~( uint32 )CY_SYS_CLK_ILO_CONFIG_ENABLE);
 130:.\Generated_Source\PSoC4/CyLFClk.c ****     #endif /* (CY_IP_SRSSV2) */
 131:.\Generated_Source\PSoC4/CyLFClk.c **** }
 132:.\Generated_Source\PSoC4/CyLFClk.c **** 
 133:.\Generated_Source\PSoC4/CyLFClk.c **** #if(CY_IP_SRSSV2)
 134:.\Generated_Source\PSoC4/CyLFClk.c ****     /*******************************************************************************
 135:.\Generated_Source\PSoC4/CyLFClk.c ****     * Function Name: CySysClkIloEnabled
 136:.\Generated_Source\PSoC4/CyLFClk.c ****     ********************************************************************************
 137:.\Generated_Source\PSoC4/CyLFClk.c ****     *
 138:.\Generated_Source\PSoC4/CyLFClk.c ****     * Summary:
 139:.\Generated_Source\PSoC4/CyLFClk.c ****     *  Reports the ILO enable state.
 140:.\Generated_Source\PSoC4/CyLFClk.c ****     *
 141:.\Generated_Source\PSoC4/CyLFClk.c ****     * Parameters:
 142:.\Generated_Source\PSoC4/CyLFClk.c ****     *  None.
 143:.\Generated_Source\PSoC4/CyLFClk.c ****     *
 144:.\Generated_Source\PSoC4/CyLFClk.c ****     * Return:
 145:.\Generated_Source\PSoC4/CyLFClk.c ****     *  1 if ILO is enabled, and 0 if ILO is disabled.
 146:.\Generated_Source\PSoC4/CyLFClk.c ****     *
 147:.\Generated_Source\PSoC4/CyLFClk.c ****     *******************************************************************************/
 148:.\Generated_Source\PSoC4/CyLFClk.c ****     static uint32 CySysClkIloEnabled(void)
 149:.\Generated_Source\PSoC4/CyLFClk.c ****     {
 150:.\Generated_Source\PSoC4/CyLFClk.c ****         /* Prohibits writing to WDT registers and ILO/WCO registers when not equal to 0 */
 151:.\Generated_Source\PSoC4/CyLFClk.c ****         return ((0u != (CY_SYS_CLK_ILO_CONFIG_REG & (uint32)(CY_SYS_CLK_ILO_CONFIG_ENABLE))) ?
 152:.\Generated_Source\PSoC4/CyLFClk.c ****             (uint32) 1u :
 153:.\Generated_Source\PSoC4/CyLFClk.c ****             (uint32) 0u);
 154:.\Generated_Source\PSoC4/CyLFClk.c ****     }
 155:.\Generated_Source\PSoC4/CyLFClk.c **** #endif /* (CY_IP_SRSSV2) */
 156:.\Generated_Source\PSoC4/CyLFClk.c **** 
 157:.\Generated_Source\PSoC4/CyLFClk.c **** 
 158:.\Generated_Source\PSoC4/CyLFClk.c **** /*******************************************************************************
 159:.\Generated_Source\PSoC4/CyLFClk.c **** * Function Name: CySysClkGetLfclkSource
 160:.\Generated_Source\PSoC4/CyLFClk.c **** ********************************************************************************
 161:.\Generated_Source\PSoC4/CyLFClk.c **** *
 162:.\Generated_Source\PSoC4/CyLFClk.c **** * Summary:
 163:.\Generated_Source\PSoC4/CyLFClk.c **** *  Gets the clock source for the LFCLK clock.
 164:.\Generated_Source\PSoC4/CyLFClk.c **** *  The function is applicable only for PSoC 4100-BL and PSoC 4200-BL.
 165:.\Generated_Source\PSoC4/CyLFClk.c **** *
 166:.\Generated_Source\PSoC4/CyLFClk.c **** * Parameters:
 167:.\Generated_Source\PSoC4/CyLFClk.c **** *  None.
 168:.\Generated_Source\PSoC4/CyLFClk.c **** *
 169:.\Generated_Source\PSoC4/CyLFClk.c **** * Return:
 170:.\Generated_Source\PSoC4/CyLFClk.c **** *  The LFCLK source:
 171:.\Generated_Source\PSoC4/CyLFClk.c **** *   CY_SYS_CLK_LFCLK_SRC_ILO    Internal Low Frequency (32 kHz) Oscillator (ILO)
 172:.\Generated_Source\PSoC4/CyLFClk.c **** *   CY_SYS_CLK_LFCLK_SRC_WCO    Low Frequency Watch Crystal Oscillator (WCO)
 173:.\Generated_Source\PSoC4/CyLFClk.c **** *
ARM GAS  C:\Users\Vit\AppData\Local\Temp\ccnJL0JJ.s 			page 5


 174:.\Generated_Source\PSoC4/CyLFClk.c **** *******************************************************************************/
 175:.\Generated_Source\PSoC4/CyLFClk.c **** #if (CY_IP_WCO)
 176:.\Generated_Source\PSoC4/CyLFClk.c ****     static uint32 CySysClkGetLfclkSource(void)
 177:.\Generated_Source\PSoC4/CyLFClk.c ****     {
 178:.\Generated_Source\PSoC4/CyLFClk.c ****         uint32 lfclkSource;
 179:.\Generated_Source\PSoC4/CyLFClk.c ****         lfclkSource = CY_SYS_WDT_CONFIG_REG & CY_SYS_CLK_LFCLK_SEL_MASK;
 180:.\Generated_Source\PSoC4/CyLFClk.c ****         return (lfclkSource);
 181:.\Generated_Source\PSoC4/CyLFClk.c ****     }
 182:.\Generated_Source\PSoC4/CyLFClk.c **** #endif /* (CY_IP_WCO) */
 183:.\Generated_Source\PSoC4/CyLFClk.c **** 
 184:.\Generated_Source\PSoC4/CyLFClk.c **** 
 185:.\Generated_Source\PSoC4/CyLFClk.c **** /*******************************************************************************
 186:.\Generated_Source\PSoC4/CyLFClk.c **** * Function Name: CySysClkSetLfclkSource
 187:.\Generated_Source\PSoC4/CyLFClk.c **** ********************************************************************************
 188:.\Generated_Source\PSoC4/CyLFClk.c **** *
 189:.\Generated_Source\PSoC4/CyLFClk.c **** * Summary:
 190:.\Generated_Source\PSoC4/CyLFClk.c **** *  Sets the clock source for the LFCLK clock.
 191:.\Generated_Source\PSoC4/CyLFClk.c **** *
 192:.\Generated_Source\PSoC4/CyLFClk.c **** *  The switch between LFCLK sources must be done between the positive edges of
 193:.\Generated_Source\PSoC4/CyLFClk.c **** *  LFCLK, because the glitch risk is around the LFCLK positive edge. To ensure
 194:.\Generated_Source\PSoC4/CyLFClk.c **** *  that the switch can be done safely, the WDT counter value is read until it
 195:.\Generated_Source\PSoC4/CyLFClk.c **** *  changes.
 196:.\Generated_Source\PSoC4/CyLFClk.c **** *
 197:.\Generated_Source\PSoC4/CyLFClk.c **** *  That means that the positive edge just finished and the switch is performed.
 198:.\Generated_Source\PSoC4/CyLFClk.c **** *  The enabled WDT counter is used for that purpose. If no counters are enabled,
 199:.\Generated_Source\PSoC4/CyLFClk.c **** *  counter 0 is enabled. And after the LFCLK source is switched, counter 0
 200:.\Generated_Source\PSoC4/CyLFClk.c **** *  configuration is restored.
 201:.\Generated_Source\PSoC4/CyLFClk.c **** *
 202:.\Generated_Source\PSoC4/CyLFClk.c **** *  The function is applicable only for PSoC 4100-BL and PSoC 4200-BL.
 203:.\Generated_Source\PSoC4/CyLFClk.c **** *
 204:.\Generated_Source\PSoC4/CyLFClk.c **** * Parameters:
 205:.\Generated_Source\PSoC4/CyLFClk.c **** *  source: One of the available LFCLK sources.
 206:.\Generated_Source\PSoC4/CyLFClk.c **** *   CY_SYS_CLK_LFCLK_SRC_ILO    Internal Low Frequency (32 kHz) Oscillator (ILO)
 207:.\Generated_Source\PSoC4/CyLFClk.c **** *   CY_SYS_CLK_LFCLK_SRC_WCO    Low Frequency Watch Crystal Oscillator (WCO)
 208:.\Generated_Source\PSoC4/CyLFClk.c **** *
 209:.\Generated_Source\PSoC4/CyLFClk.c **** * Return:
 210:.\Generated_Source\PSoC4/CyLFClk.c **** *  None
 211:.\Generated_Source\PSoC4/CyLFClk.c **** *
 212:.\Generated_Source\PSoC4/CyLFClk.c **** * Side Effects:
 213:.\Generated_Source\PSoC4/CyLFClk.c **** *  This function has no effect if WDT is locked (CySysWdtLock() is
 214:.\Generated_Source\PSoC4/CyLFClk.c **** *  called). Call CySysWdtUnlock() to unlock WDT.
 215:.\Generated_Source\PSoC4/CyLFClk.c **** *
 216:.\Generated_Source\PSoC4/CyLFClk.c **** *  Both the current source and the new source must be running and stable before
 217:.\Generated_Source\PSoC4/CyLFClk.c **** *  calling this function.
 218:.\Generated_Source\PSoC4/CyLFClk.c **** *
 219:.\Generated_Source\PSoC4/CyLFClk.c **** *  Changing the LFCLK clock source may change the LFCLK clock frequency and
 220:.\Generated_Source\PSoC4/CyLFClk.c **** *  affect the functionality that uses this clock. For example, watchdog timer
 221:.\Generated_Source\PSoC4/CyLFClk.c **** *  "uses this clock" or "this clock uses" (WDT) is clocked by LFCLK.
 222:.\Generated_Source\PSoC4/CyLFClk.c **** *
 223:.\Generated_Source\PSoC4/CyLFClk.c **** *******************************************************************************/
 224:.\Generated_Source\PSoC4/CyLFClk.c **** #if (CY_IP_WCO)
 225:.\Generated_Source\PSoC4/CyLFClk.c ****     void CySysClkSetLfclkSource(uint32 source)
 226:.\Generated_Source\PSoC4/CyLFClk.c ****     {
 227:.\Generated_Source\PSoC4/CyLFClk.c ****         uint8  interruptState;
 228:.\Generated_Source\PSoC4/CyLFClk.c **** 
 229:.\Generated_Source\PSoC4/CyLFClk.c ****         if (CySysClkGetLfclkSource() != source)
 230:.\Generated_Source\PSoC4/CyLFClk.c ****         {
ARM GAS  C:\Users\Vit\AppData\Local\Temp\ccnJL0JJ.s 			page 6


 231:.\Generated_Source\PSoC4/CyLFClk.c ****             interruptState = CyEnterCriticalSection();
 232:.\Generated_Source\PSoC4/CyLFClk.c **** 
 233:.\Generated_Source\PSoC4/CyLFClk.c ****             CySysClkLfclkPosedgeCatch();
 234:.\Generated_Source\PSoC4/CyLFClk.c **** 
 235:.\Generated_Source\PSoC4/CyLFClk.c ****             CY_SYS_WDT_CONFIG_REG = (CY_SYS_WDT_CONFIG_REG & (uint32)(~CY_SYS_CLK_LFCLK_SEL_MASK)) 
 236:.\Generated_Source\PSoC4/CyLFClk.c ****                                     (source & CY_SYS_CLK_LFCLK_SEL_MASK);
 237:.\Generated_Source\PSoC4/CyLFClk.c **** 
 238:.\Generated_Source\PSoC4/CyLFClk.c ****             CySysClkLfclkPosedgeRestore();
 239:.\Generated_Source\PSoC4/CyLFClk.c **** 
 240:.\Generated_Source\PSoC4/CyLFClk.c ****             CyExitCriticalSection(interruptState);
 241:.\Generated_Source\PSoC4/CyLFClk.c ****         }
 242:.\Generated_Source\PSoC4/CyLFClk.c ****     }
 243:.\Generated_Source\PSoC4/CyLFClk.c **** #endif /* (CY_IP_WCO) */
 244:.\Generated_Source\PSoC4/CyLFClk.c **** 
 245:.\Generated_Source\PSoC4/CyLFClk.c **** 
 246:.\Generated_Source\PSoC4/CyLFClk.c **** #if (CY_IP_WCO)
 247:.\Generated_Source\PSoC4/CyLFClk.c ****     /*******************************************************************************
 248:.\Generated_Source\PSoC4/CyLFClk.c ****     * Function Name: CySysClkWcoStart
 249:.\Generated_Source\PSoC4/CyLFClk.c ****     ********************************************************************************
 250:.\Generated_Source\PSoC4/CyLFClk.c ****     *
 251:.\Generated_Source\PSoC4/CyLFClk.c ****     * Summary:
 252:.\Generated_Source\PSoC4/CyLFClk.c ****     *  Enables Watch Crystal Oscillator (WCO). WCO is used as a source for
 253:.\Generated_Source\PSoC4/CyLFClk.c ****     *  LFCLK.  Similar to ILO, WCO is also available in all modes except Hibernate
 254:.\Generated_Source\PSoC4/CyLFClk.c ****     *  and Stop modes.
 255:.\Generated_Source\PSoC4/CyLFClk.c ****     *
 256:.\Generated_Source\PSoC4/CyLFClk.c ****     *  WCO is always enabled in High Power Mode (HPM). Refer to the device
 257:.\Generated_Source\PSoC4/CyLFClk.c ****     *  datasheet for the  WCO startup time. Once WCO becomes stable it can be
 258:.\Generated_Source\PSoC4/CyLFClk.c ****     *  switched to Low Power Mode (LPM). Note that oscillator can be unstable
 259:.\Generated_Source\PSoC4/CyLFClk.c ****     *  during a switch and hence its output should not be used at that moment.
 260:.\Generated_Source\PSoC4/CyLFClk.c ****     *
 261:.\Generated_Source\PSoC4/CyLFClk.c ****     *  The CySysClkWcoSetPowerMode() function configures the WCO power mode.
 262:.\Generated_Source\PSoC4/CyLFClk.c ****     *
 263:.\Generated_Source\PSoC4/CyLFClk.c ****     * Parameters:
 264:.\Generated_Source\PSoC4/CyLFClk.c ****     *  None.
 265:.\Generated_Source\PSoC4/CyLFClk.c ****     *
 266:.\Generated_Source\PSoC4/CyLFClk.c ****     * Return:
 267:.\Generated_Source\PSoC4/CyLFClk.c ****     *  None.
 268:.\Generated_Source\PSoC4/CyLFClk.c ****     *
 269:.\Generated_Source\PSoC4/CyLFClk.c ****     *******************************************************************************/
 270:.\Generated_Source\PSoC4/CyLFClk.c ****     void CySysClkWcoStart(void)
 271:.\Generated_Source\PSoC4/CyLFClk.c ****     {
 272:.\Generated_Source\PSoC4/CyLFClk.c ****         CySysClkWcoSetHighPowerMode();
 273:.\Generated_Source\PSoC4/CyLFClk.c ****         CY_SYS_CLK_WCO_CONFIG_REG |= CY_SYS_CLK_WCO_CONFIG_LPM_ENABLE;
 274:.\Generated_Source\PSoC4/CyLFClk.c ****     }
 275:.\Generated_Source\PSoC4/CyLFClk.c **** 
 276:.\Generated_Source\PSoC4/CyLFClk.c **** 
 277:.\Generated_Source\PSoC4/CyLFClk.c ****     /*******************************************************************************
 278:.\Generated_Source\PSoC4/CyLFClk.c ****     * Function Name: CySysClkWcoStop
 279:.\Generated_Source\PSoC4/CyLFClk.c ****     ********************************************************************************
 280:.\Generated_Source\PSoC4/CyLFClk.c ****     *
 281:.\Generated_Source\PSoC4/CyLFClk.c ****     * Summary:
 282:.\Generated_Source\PSoC4/CyLFClk.c ****     *  Disables the 32KHz Crystal Oscillator.
 283:.\Generated_Source\PSoC4/CyLFClk.c ****     *
 284:.\Generated_Source\PSoC4/CyLFClk.c ****     * Parameters:
 285:.\Generated_Source\PSoC4/CyLFClk.c ****     *  None.
 286:.\Generated_Source\PSoC4/CyLFClk.c ****     *
 287:.\Generated_Source\PSoC4/CyLFClk.c ****     * Return:
ARM GAS  C:\Users\Vit\AppData\Local\Temp\ccnJL0JJ.s 			page 7


 288:.\Generated_Source\PSoC4/CyLFClk.c ****     *  None.
 289:.\Generated_Source\PSoC4/CyLFClk.c ****     *
 290:.\Generated_Source\PSoC4/CyLFClk.c ****     *******************************************************************************/
 291:.\Generated_Source\PSoC4/CyLFClk.c ****     void  CySysClkWcoStop(void)
 292:.\Generated_Source\PSoC4/CyLFClk.c ****     {
 293:.\Generated_Source\PSoC4/CyLFClk.c ****         uint8  interruptState;
 294:.\Generated_Source\PSoC4/CyLFClk.c **** 
 295:.\Generated_Source\PSoC4/CyLFClk.c ****         if (0u != CySysClkWcoEnabled())
 296:.\Generated_Source\PSoC4/CyLFClk.c ****         {
 297:.\Generated_Source\PSoC4/CyLFClk.c **** 
 298:.\Generated_Source\PSoC4/CyLFClk.c ****             if (CY_SYS_CLK_LFCLK_SRC_WCO == CySysClkGetLfclkSource())
 299:.\Generated_Source\PSoC4/CyLFClk.c ****             {
 300:.\Generated_Source\PSoC4/CyLFClk.c ****                 interruptState = CyEnterCriticalSection();
 301:.\Generated_Source\PSoC4/CyLFClk.c ****                 CySysClkLfclkPosedgeCatch();
 302:.\Generated_Source\PSoC4/CyLFClk.c ****                 CY_SYS_CLK_WCO_CONFIG_REG &= (uint32) ~CY_SYS_CLK_WCO_CONFIG_LPM_ENABLE;
 303:.\Generated_Source\PSoC4/CyLFClk.c ****                 CySysClkLfclkPosedgeRestore();
 304:.\Generated_Source\PSoC4/CyLFClk.c ****                 CyExitCriticalSection(interruptState);
 305:.\Generated_Source\PSoC4/CyLFClk.c ****             }
 306:.\Generated_Source\PSoC4/CyLFClk.c ****             else /* Safe to disable - shortened pulse does not impact peripheral */
 307:.\Generated_Source\PSoC4/CyLFClk.c ****             {
 308:.\Generated_Source\PSoC4/CyLFClk.c ****                 CY_SYS_CLK_WCO_CONFIG_REG &= (uint32) ~CY_SYS_CLK_WCO_CONFIG_LPM_ENABLE;
 309:.\Generated_Source\PSoC4/CyLFClk.c ****             }
 310:.\Generated_Source\PSoC4/CyLFClk.c ****         } /* Otherwise do nothing. WCO configuration cannot be changed. */
 311:.\Generated_Source\PSoC4/CyLFClk.c ****     }
 312:.\Generated_Source\PSoC4/CyLFClk.c **** 
 313:.\Generated_Source\PSoC4/CyLFClk.c **** 
 314:.\Generated_Source\PSoC4/CyLFClk.c ****     /*******************************************************************************
 315:.\Generated_Source\PSoC4/CyLFClk.c ****     * Function Name: CySysClkWcoEnabled
 316:.\Generated_Source\PSoC4/CyLFClk.c ****     ********************************************************************************
 317:.\Generated_Source\PSoC4/CyLFClk.c ****     *
 318:.\Generated_Source\PSoC4/CyLFClk.c ****     * Summary:
 319:.\Generated_Source\PSoC4/CyLFClk.c ****     *  Reports the WCO enable state.
 320:.\Generated_Source\PSoC4/CyLFClk.c ****     *
 321:.\Generated_Source\PSoC4/CyLFClk.c ****     * Parameters:
 322:.\Generated_Source\PSoC4/CyLFClk.c ****     *  None.
 323:.\Generated_Source\PSoC4/CyLFClk.c ****     *
 324:.\Generated_Source\PSoC4/CyLFClk.c ****     * Return:
 325:.\Generated_Source\PSoC4/CyLFClk.c ****     *  1 if WCO is enabled, and 0 if WCO is disabled.
 326:.\Generated_Source\PSoC4/CyLFClk.c ****     *
 327:.\Generated_Source\PSoC4/CyLFClk.c ****     *******************************************************************************/
 328:.\Generated_Source\PSoC4/CyLFClk.c ****     uint32 CySysClkWcoEnabled(void)
 329:.\Generated_Source\PSoC4/CyLFClk.c ****     {
 330:.\Generated_Source\PSoC4/CyLFClk.c ****         return ((0u != (CY_SYS_CLK_WCO_CONFIG_REG & (uint32)(CY_SYS_CLK_WCO_CONFIG_LPM_ENABLE))) ?
 331:.\Generated_Source\PSoC4/CyLFClk.c ****                 (uint32) 1u :
 332:.\Generated_Source\PSoC4/CyLFClk.c ****                 (uint32) 0u);
 333:.\Generated_Source\PSoC4/CyLFClk.c ****     }
 334:.\Generated_Source\PSoC4/CyLFClk.c **** 
 335:.\Generated_Source\PSoC4/CyLFClk.c **** 
 336:.\Generated_Source\PSoC4/CyLFClk.c ****     /*******************************************************************************
 337:.\Generated_Source\PSoC4/CyLFClk.c ****     * Function Name: CySysClkWcoSetPowerMode
 338:.\Generated_Source\PSoC4/CyLFClk.c ****     ********************************************************************************
 339:.\Generated_Source\PSoC4/CyLFClk.c ****     *
 340:.\Generated_Source\PSoC4/CyLFClk.c ****     * Summary:
 341:.\Generated_Source\PSoC4/CyLFClk.c ****     *  Sets the power mode for the 32 KHz WCO.
 342:.\Generated_Source\PSoC4/CyLFClk.c ****     *
 343:.\Generated_Source\PSoC4/CyLFClk.c ****     * Parameters:
 344:.\Generated_Source\PSoC4/CyLFClk.c ****     *  uint32 mode:
ARM GAS  C:\Users\Vit\AppData\Local\Temp\ccnJL0JJ.s 			page 8


 345:.\Generated_Source\PSoC4/CyLFClk.c ****     *   CY_SYS_CLK_WCO_HPM  - The High Power mode
 346:.\Generated_Source\PSoC4/CyLFClk.c ****     *   CY_SYS_CLK_WCO_LPM  - The Low Power mode(not applicable for
 347:.\Generated_Source\PSoC4/CyLFClk.c ****     *                         PSoC 4100M / PSoC 4200M devices)
 348:.\Generated_Source\PSoC4/CyLFClk.c ****     *
 349:.\Generated_Source\PSoC4/CyLFClk.c ****     * Return:
 350:.\Generated_Source\PSoC4/CyLFClk.c ****     *  A previous power mode. The same as the parameters.
 351:.\Generated_Source\PSoC4/CyLFClk.c ****     *
 352:.\Generated_Source\PSoC4/CyLFClk.c ****     * Note:
 353:.\Generated_Source\PSoC4/CyLFClk.c ****     *  The WCO Low power mode is not applicable for the PSoC 4100M/PSoC 4200M
 354:.\Generated_Source\PSoC4/CyLFClk.c ****     *  devices.
 355:.\Generated_Source\PSoC4/CyLFClk.c ****     *
 356:.\Generated_Source\PSoC4/CyLFClk.c ****     *******************************************************************************/
 357:.\Generated_Source\PSoC4/CyLFClk.c ****     uint32 CySysClkWcoSetPowerMode(uint32 mode)
 358:.\Generated_Source\PSoC4/CyLFClk.c ****     {
 359:.\Generated_Source\PSoC4/CyLFClk.c ****         uint32 status;
 360:.\Generated_Source\PSoC4/CyLFClk.c **** 
 361:.\Generated_Source\PSoC4/CyLFClk.c ****         status = CY_SYS_CLK_WCO_CONFIG_REG & CY_SYS_CLK_WCO_CONFIG_LPM_EN;
 362:.\Generated_Source\PSoC4/CyLFClk.c **** 
 363:.\Generated_Source\PSoC4/CyLFClk.c ****         switch(mode)
 364:.\Generated_Source\PSoC4/CyLFClk.c ****         {
 365:.\Generated_Source\PSoC4/CyLFClk.c ****         case CY_SYS_CLK_WCO_HPM:
 366:.\Generated_Source\PSoC4/CyLFClk.c ****                 CySysClkWcoSetHighPowerMode();
 367:.\Generated_Source\PSoC4/CyLFClk.c ****             break;
 368:.\Generated_Source\PSoC4/CyLFClk.c **** 
 369:.\Generated_Source\PSoC4/CyLFClk.c ****         #if(!CY_PSOC4_4100M && !CY_PSOC4_4200M)
 370:.\Generated_Source\PSoC4/CyLFClk.c ****             case CY_SYS_CLK_WCO_LPM:
 371:.\Generated_Source\PSoC4/CyLFClk.c ****                     CySysClkWcoSetLowPowerMode();
 372:.\Generated_Source\PSoC4/CyLFClk.c ****                 break;
 373:.\Generated_Source\PSoC4/CyLFClk.c ****         #endif /* (!CY_PSOC4_4100M && !CY_PSOC4_4200M) */
 374:.\Generated_Source\PSoC4/CyLFClk.c **** 
 375:.\Generated_Source\PSoC4/CyLFClk.c ****         default:
 376:.\Generated_Source\PSoC4/CyLFClk.c ****             CYASSERT(0u != 0u);
 377:.\Generated_Source\PSoC4/CyLFClk.c ****             break;
 378:.\Generated_Source\PSoC4/CyLFClk.c ****         }
 379:.\Generated_Source\PSoC4/CyLFClk.c **** 
 380:.\Generated_Source\PSoC4/CyLFClk.c ****         return (status);
 381:.\Generated_Source\PSoC4/CyLFClk.c ****     }
 382:.\Generated_Source\PSoC4/CyLFClk.c **** 
 383:.\Generated_Source\PSoC4/CyLFClk.c **** #endif  /* (CY_IP_WCO) */
 384:.\Generated_Source\PSoC4/CyLFClk.c **** 
 385:.\Generated_Source\PSoC4/CyLFClk.c **** 
 386:.\Generated_Source\PSoC4/CyLFClk.c **** #if(CY_IP_SRSSV2)
 387:.\Generated_Source\PSoC4/CyLFClk.c **** 
 388:.\Generated_Source\PSoC4/CyLFClk.c **** 
 389:.\Generated_Source\PSoC4/CyLFClk.c ****     /*******************************************************************************
 390:.\Generated_Source\PSoC4/CyLFClk.c ****     * Function Name: CySysWdtLock
 391:.\Generated_Source\PSoC4/CyLFClk.c ****     ********************************************************************************
 392:.\Generated_Source\PSoC4/CyLFClk.c ****     *
 393:.\Generated_Source\PSoC4/CyLFClk.c ****     * Summary:
 394:.\Generated_Source\PSoC4/CyLFClk.c ****     *  Locks out configuration changes to the Watchdog timer registers and ILO
 395:.\Generated_Source\PSoC4/CyLFClk.c ****     *  configuration register.
 396:.\Generated_Source\PSoC4/CyLFClk.c ****     *
 397:.\Generated_Source\PSoC4/CyLFClk.c ****     * Parameters:
 398:.\Generated_Source\PSoC4/CyLFClk.c ****     *  None.
 399:.\Generated_Source\PSoC4/CyLFClk.c ****     *
 400:.\Generated_Source\PSoC4/CyLFClk.c ****     * Return:
 401:.\Generated_Source\PSoC4/CyLFClk.c ****     *  None.
ARM GAS  C:\Users\Vit\AppData\Local\Temp\ccnJL0JJ.s 			page 9


 402:.\Generated_Source\PSoC4/CyLFClk.c ****     *
 403:.\Generated_Source\PSoC4/CyLFClk.c ****     * Side effects:
 404:.\Generated_Source\PSoC4/CyLFClk.c ****     *  After this function is called, ILO clock can't be disabled until
 405:.\Generated_Source\PSoC4/CyLFClk.c ****     *  CySysWdtUnlock() is called.
 406:.\Generated_Source\PSoC4/CyLFClk.c ****     *
 407:.\Generated_Source\PSoC4/CyLFClk.c ****     *******************************************************************************/
 408:.\Generated_Source\PSoC4/CyLFClk.c ****     void CySysWdtLock(void)
 409:.\Generated_Source\PSoC4/CyLFClk.c ****     {
  55              		.loc 1 409 0
  56              		.cfi_startproc
  57 0000 08B5     		push	{r3, lr}
  58              		.cfi_def_cfa_offset 8
  59              		.cfi_offset 3, -8
  60              		.cfi_offset 14, -4
 410:.\Generated_Source\PSoC4/CyLFClk.c ****         uint8 interruptState;
 411:.\Generated_Source\PSoC4/CyLFClk.c ****         interruptState = CyEnterCriticalSection();
  61              		.loc 1 411 0
  62 0002 FFF7FEFF 		bl	CyEnterCriticalSection
  63              	.LVL0:
 412:.\Generated_Source\PSoC4/CyLFClk.c **** 
 413:.\Generated_Source\PSoC4/CyLFClk.c ****         CY_SYS_CLK_SELECT_REG = (CY_SYS_CLK_SELECT_REG & (uint32)(~CY_SYS_WDT_CLK_LOCK_BITS_MASK)) 
  64              		.loc 1 413 0
  65 0006 C021     		mov	r1, #192
  66 0008 034A     		ldr	r2, .L5
  67 000a 0902     		lsl	r1, r1, #8
  68 000c 1368     		ldr	r3, [r2]
 414:.\Generated_Source\PSoC4/CyLFClk.c ****                  CY_SYS_WDT_CLK_LOCK_BITS_MASK;
 415:.\Generated_Source\PSoC4/CyLFClk.c **** 
 416:.\Generated_Source\PSoC4/CyLFClk.c ****         CyExitCriticalSection(interruptState);
 417:.\Generated_Source\PSoC4/CyLFClk.c ****     }
  69              		.loc 1 417 0
  70              		@ sp needed
 413:.\Generated_Source\PSoC4/CyLFClk.c ****                  CY_SYS_WDT_CLK_LOCK_BITS_MASK;
  71              		.loc 1 413 0
  72 000e 0B43     		orr	r3, r1
  73 0010 1360     		str	r3, [r2]
 416:.\Generated_Source\PSoC4/CyLFClk.c ****     }
  74              		.loc 1 416 0
  75 0012 FFF7FEFF 		bl	CyExitCriticalSection
  76              	.LVL1:
  77              		.loc 1 417 0
  78 0016 08BD     		pop	{r3, pc}
  79              	.L6:
  80              		.align	2
  81              	.L5:
  82 0018 00010B40 		.word	1074462976
  83              		.cfi_endproc
  84              	.LFE3:
  85              		.size	CySysWdtLock, .-CySysWdtLock
  86              		.section	.text.CySysWdtUnlock,"ax",%progbits
  87              		.align	1
  88              		.global	CySysWdtUnlock
  89              		.code	16
  90              		.thumb_func
  91              		.type	CySysWdtUnlock, %function
  92              	CySysWdtUnlock:
  93              	.LFB5:
ARM GAS  C:\Users\Vit\AppData\Local\Temp\ccnJL0JJ.s 			page 10


 418:.\Generated_Source\PSoC4/CyLFClk.c **** 
 419:.\Generated_Source\PSoC4/CyLFClk.c **** 
 420:.\Generated_Source\PSoC4/CyLFClk.c ****     /*******************************************************************************
 421:.\Generated_Source\PSoC4/CyLFClk.c ****     * Function Name: CySysWdtLocked
 422:.\Generated_Source\PSoC4/CyLFClk.c ****     ********************************************************************************
 423:.\Generated_Source\PSoC4/CyLFClk.c ****     *
 424:.\Generated_Source\PSoC4/CyLFClk.c ****     * Summary:
 425:.\Generated_Source\PSoC4/CyLFClk.c ****     *  Reports the WDT lock state.
 426:.\Generated_Source\PSoC4/CyLFClk.c ****     *
 427:.\Generated_Source\PSoC4/CyLFClk.c ****     * Parameters:
 428:.\Generated_Source\PSoC4/CyLFClk.c ****     *  None
 429:.\Generated_Source\PSoC4/CyLFClk.c ****     *
 430:.\Generated_Source\PSoC4/CyLFClk.c ****     * Return:
 431:.\Generated_Source\PSoC4/CyLFClk.c ****     *  1 - WDT is locked, and 0 - WDT is unlocked.
 432:.\Generated_Source\PSoC4/CyLFClk.c ****     *
 433:.\Generated_Source\PSoC4/CyLFClk.c ****     *******************************************************************************/
 434:.\Generated_Source\PSoC4/CyLFClk.c ****     static uint32 CySysWdtLocked(void)
 435:.\Generated_Source\PSoC4/CyLFClk.c ****     {
 436:.\Generated_Source\PSoC4/CyLFClk.c ****         /* Prohibits writing to WDT registers and ILO/WCO registers when not equal 0 */
 437:.\Generated_Source\PSoC4/CyLFClk.c ****         return ((0u != (CY_SYS_CLK_SELECT_REG & (uint32)(CY_SYS_WDT_CLK_LOCK_BITS_MASK))) ? (uint32
 438:.\Generated_Source\PSoC4/CyLFClk.c ****     }
 439:.\Generated_Source\PSoC4/CyLFClk.c **** 
 440:.\Generated_Source\PSoC4/CyLFClk.c **** 
 441:.\Generated_Source\PSoC4/CyLFClk.c ****     /*******************************************************************************
 442:.\Generated_Source\PSoC4/CyLFClk.c ****     * Function Name: CySysWdtUnlock
 443:.\Generated_Source\PSoC4/CyLFClk.c ****     ********************************************************************************
 444:.\Generated_Source\PSoC4/CyLFClk.c ****     *
 445:.\Generated_Source\PSoC4/CyLFClk.c ****     * Summary:
 446:.\Generated_Source\PSoC4/CyLFClk.c ****     *  Unlocks the Watchdog Timer configuration register.
 447:.\Generated_Source\PSoC4/CyLFClk.c ****     *
 448:.\Generated_Source\PSoC4/CyLFClk.c ****     * Parameters:
 449:.\Generated_Source\PSoC4/CyLFClk.c ****     *  None.
 450:.\Generated_Source\PSoC4/CyLFClk.c ****     *
 451:.\Generated_Source\PSoC4/CyLFClk.c ****     * Return:
 452:.\Generated_Source\PSoC4/CyLFClk.c ****     *  None.
 453:.\Generated_Source\PSoC4/CyLFClk.c ****     *
 454:.\Generated_Source\PSoC4/CyLFClk.c ****     *******************************************************************************/
 455:.\Generated_Source\PSoC4/CyLFClk.c ****     void CySysWdtUnlock(void)
 456:.\Generated_Source\PSoC4/CyLFClk.c ****     {
  94              		.loc 1 456 0
  95              		.cfi_startproc
  96 0000 10B5     		push	{r4, lr}
  97              		.cfi_def_cfa_offset 8
  98              		.cfi_offset 4, -8
  99              		.cfi_offset 14, -4
 457:.\Generated_Source\PSoC4/CyLFClk.c ****         uint8 interruptState;
 458:.\Generated_Source\PSoC4/CyLFClk.c ****         interruptState = CyEnterCriticalSection();
 459:.\Generated_Source\PSoC4/CyLFClk.c **** 
 460:.\Generated_Source\PSoC4/CyLFClk.c ****         /* Removing WDT lock requires two writes */
 461:.\Generated_Source\PSoC4/CyLFClk.c ****         CY_SYS_CLK_SELECT_REG = ((CY_SYS_CLK_SELECT_REG & (uint32)(~CY_SYS_WDT_CLK_LOCK_BITS_MASK))
 100              		.loc 1 461 0
 101 0002 8024     		mov	r4, #128
 458:.\Generated_Source\PSoC4/CyLFClk.c **** 
 102              		.loc 1 458 0
 103 0004 FFF7FEFF 		bl	CyEnterCriticalSection
 104              	.LVL2:
 105              		.loc 1 461 0
ARM GAS  C:\Users\Vit\AppData\Local\Temp\ccnJL0JJ.s 			page 11


 106 0008 0749     		ldr	r1, .L8
 107 000a 084B     		ldr	r3, .L8+4
 108 000c 0A68     		ldr	r2, [r1]
 109 000e E401     		lsl	r4, r4, #7
 110 0010 1A40     		and	r2, r3
 111 0012 2243     		orr	r2, r4
 112 0014 0A60     		str	r2, [r1]
 462:.\Generated_Source\PSoC4/CyLFClk.c ****                 CY_SYS_WDT_CLK_LOCK_BIT0);
 463:.\Generated_Source\PSoC4/CyLFClk.c **** 
 464:.\Generated_Source\PSoC4/CyLFClk.c ****         CY_SYS_CLK_SELECT_REG = ((CY_SYS_CLK_SELECT_REG & (uint32)(~CY_SYS_WDT_CLK_LOCK_BITS_MASK))
 113              		.loc 1 464 0
 114 0016 0A68     		ldr	r2, [r1]
 465:.\Generated_Source\PSoC4/CyLFClk.c ****                 CY_SYS_WDT_CLK_LOCK_BIT1);
 466:.\Generated_Source\PSoC4/CyLFClk.c **** 
 467:.\Generated_Source\PSoC4/CyLFClk.c ****         CyExitCriticalSection(interruptState);
 468:.\Generated_Source\PSoC4/CyLFClk.c ****     }
 115              		.loc 1 468 0
 116              		@ sp needed
 464:.\Generated_Source\PSoC4/CyLFClk.c ****                 CY_SYS_WDT_CLK_LOCK_BIT1);
 117              		.loc 1 464 0
 118 0018 1340     		and	r3, r2
 119 001a 8022     		mov	r2, #128
 120 001c 1202     		lsl	r2, r2, #8
 121 001e 1343     		orr	r3, r2
 122 0020 0B60     		str	r3, [r1]
 467:.\Generated_Source\PSoC4/CyLFClk.c ****     }
 123              		.loc 1 467 0
 124 0022 FFF7FEFF 		bl	CyExitCriticalSection
 125              	.LVL3:
 126              		.loc 1 468 0
 127 0026 10BD     		pop	{r4, pc}
 128              	.L9:
 129              		.align	2
 130              	.L8:
 131 0028 00010B40 		.word	1074462976
 132 002c FF3FFFFF 		.word	-49153
 133              		.cfi_endproc
 134              	.LFE5:
 135              		.size	CySysWdtUnlock, .-CySysWdtUnlock
 136              		.section	.text.CySysWdtGetEnabledStatus,"ax",%progbits
 137              		.align	1
 138              		.global	CySysWdtGetEnabledStatus
 139              		.code	16
 140              		.thumb_func
 141              		.type	CySysWdtGetEnabledStatus, %function
 142              	CySysWdtGetEnabledStatus:
 143              	.LFB6:
 469:.\Generated_Source\PSoC4/CyLFClk.c **** 
 470:.\Generated_Source\PSoC4/CyLFClk.c **** 
 471:.\Generated_Source\PSoC4/CyLFClk.c ****     /*******************************************************************************
 472:.\Generated_Source\PSoC4/CyLFClk.c ****     * Function Name: CySysWdtGetEnabledStatus
 473:.\Generated_Source\PSoC4/CyLFClk.c ****     ********************************************************************************
 474:.\Generated_Source\PSoC4/CyLFClk.c ****     *
 475:.\Generated_Source\PSoC4/CyLFClk.c ****     * Summary:
 476:.\Generated_Source\PSoC4/CyLFClk.c ****     *  Reads the enabled status of one of the three WDT counters.
 477:.\Generated_Source\PSoC4/CyLFClk.c ****     *
 478:.\Generated_Source\PSoC4/CyLFClk.c ****     * Parameters:
ARM GAS  C:\Users\Vit\AppData\Local\Temp\ccnJL0JJ.s 			page 12


 479:.\Generated_Source\PSoC4/CyLFClk.c ****     *  counterNum: Valid range [0-2].  the number of the WDT counter.
 480:.\Generated_Source\PSoC4/CyLFClk.c ****     *
 481:.\Generated_Source\PSoC4/CyLFClk.c ****     * Return:
 482:.\Generated_Source\PSoC4/CyLFClk.c ****     *  The status of the WDT counter:
 483:.\Generated_Source\PSoC4/CyLFClk.c ****     *   0 - The counter is disabled.
 484:.\Generated_Source\PSoC4/CyLFClk.c ****     *   1 - The counter is enabled.
 485:.\Generated_Source\PSoC4/CyLFClk.c ****     *
 486:.\Generated_Source\PSoC4/CyLFClk.c ****     * Side Effects:
 487:.\Generated_Source\PSoC4/CyLFClk.c ****     *  This function returns an actual WDT counter status from the status register. It may
 488:.\Generated_Source\PSoC4/CyLFClk.c ****     *  take up to 3 LFCLK cycles for the WDT status register to contain actual data
 489:.\Generated_Source\PSoC4/CyLFClk.c ****     *  after the WDT counter is enabled.
 490:.\Generated_Source\PSoC4/CyLFClk.c ****     *
 491:.\Generated_Source\PSoC4/CyLFClk.c ****     *
 492:.\Generated_Source\PSoC4/CyLFClk.c ****     *******************************************************************************/
 493:.\Generated_Source\PSoC4/CyLFClk.c ****     uint32 CySysWdtGetEnabledStatus(uint32 counterNum)
 494:.\Generated_Source\PSoC4/CyLFClk.c ****     {
 144              		.loc 1 494 0
 145              		.cfi_startproc
 146              	.LVL4:
 147 0000 10B5     		push	{r4, lr}
 148              		.cfi_def_cfa_offset 8
 149              		.cfi_offset 4, -8
 150              		.cfi_offset 14, -4
 151              		.loc 1 494 0
 152 0002 041E     		sub	r4, r0, #0
 495:.\Generated_Source\PSoC4/CyLFClk.c ****         CYASSERT(counterNum < CY_SYS_WDT_COUNTERS_MAX);
 153              		.loc 1 495 0
 154 0004 022C     		cmp	r4, #2
 155 0006 02D9     		bls	.L11
 156              		.loc 1 495 0 is_stmt 0 discriminator 1
 157 0008 0020     		mov	r0, #0
 158              	.LVL5:
 159 000a FFF7FEFF 		bl	CyHalt
 160              	.LVL6:
 161              	.L11:
 496:.\Generated_Source\PSoC4/CyLFClk.c ****         return ((CY_SYS_WDT_CONTROL_REG >> ((CY_SYS_WDT_CNT_SHIFT * counterNum) + CY_SYS_WDT_CNT_ST
 162              		.loc 1 496 0 is_stmt 1
 163 000e 044B     		ldr	r3, .L13
 164 0010 E400     		lsl	r4, r4, #3
 165              	.LVL7:
 166 0012 1868     		ldr	r0, [r3]
 167 0014 0134     		add	r4, r4, #1
 168 0016 E040     		lsr	r0, r0, r4
 169 0018 0123     		mov	r3, #1
 497:.\Generated_Source\PSoC4/CyLFClk.c ****     }
 170              		.loc 1 497 0
 171              		@ sp needed
 496:.\Generated_Source\PSoC4/CyLFClk.c ****         return ((CY_SYS_WDT_CONTROL_REG >> ((CY_SYS_WDT_CNT_SHIFT * counterNum) + CY_SYS_WDT_CNT_ST
 172              		.loc 1 496 0
 173 001a 1840     		and	r0, r3
 174              		.loc 1 497 0
 175 001c 10BD     		pop	{r4, pc}
 176              	.L14:
 177 001e C046     		.align	2
 178              	.L13:
 179 0020 10020B40 		.word	1074463248
 180              		.cfi_endproc
ARM GAS  C:\Users\Vit\AppData\Local\Temp\ccnJL0JJ.s 			page 13


 181              	.LFE6:
 182              		.size	CySysWdtGetEnabledStatus, .-CySysWdtGetEnabledStatus
 183              		.section	.text.CySysWdtSetMode,"ax",%progbits
 184              		.align	1
 185              		.global	CySysWdtSetMode
 186              		.code	16
 187              		.thumb_func
 188              		.type	CySysWdtSetMode, %function
 189              	CySysWdtSetMode:
 190              	.LFB7:
 498:.\Generated_Source\PSoC4/CyLFClk.c **** 
 499:.\Generated_Source\PSoC4/CyLFClk.c **** 
 500:.\Generated_Source\PSoC4/CyLFClk.c ****     /*******************************************************************************
 501:.\Generated_Source\PSoC4/CyLFClk.c ****     * Function Name: CySysWdtSetMode
 502:.\Generated_Source\PSoC4/CyLFClk.c ****     ********************************************************************************
 503:.\Generated_Source\PSoC4/CyLFClk.c ****     *
 504:.\Generated_Source\PSoC4/CyLFClk.c ****     * Summary:
 505:.\Generated_Source\PSoC4/CyLFClk.c ****     *   Writes the mode of one of the three WDT counters.
 506:.\Generated_Source\PSoC4/CyLFClk.c ****     *
 507:.\Generated_Source\PSoC4/CyLFClk.c ****     * Parameters:
 508:.\Generated_Source\PSoC4/CyLFClk.c ****     *   counterNum: Valid range [0-2].  The number of the WDT counter.
 509:.\Generated_Source\PSoC4/CyLFClk.c ****     *   mode:       Mode of operation for the counter.
 510:.\Generated_Source\PSoC4/CyLFClk.c ****     *       Define                     Mode
 511:.\Generated_Source\PSoC4/CyLFClk.c ****     *        CY_SYS_WDT_MODE_NONE       Free running
 512:.\Generated_Source\PSoC4/CyLFClk.c ****     *        CY_SYS_WDT_MODE_INT        The interrupt generated on match for counter 0
 513:.\Generated_Source\PSoC4/CyLFClk.c ****     *                                   and 1, and on bit toggle for counter 2.
 514:.\Generated_Source\PSoC4/CyLFClk.c ****     *        CY_SYS_WDT_MODE_RESET      Reset on match (valid for counter 0 and 1
 515:.\Generated_Source\PSoC4/CyLFClk.c ****     *                                   only)
 516:.\Generated_Source\PSoC4/CyLFClk.c ****     *        CY_SYS_WDT_MODE_INT_RESET  Generate an interrupt.  Generate a reset on
 517:.\Generated_Source\PSoC4/CyLFClk.c ****     *                                   the 3rd non-handled interrupt.
 518:.\Generated_Source\PSoC4/CyLFClk.c ****     *                                   (valid for counter 0 and 1 only)
 519:.\Generated_Source\PSoC4/CyLFClk.c ****     * Return:
 520:.\Generated_Source\PSoC4/CyLFClk.c ****     *   None.
 521:.\Generated_Source\PSoC4/CyLFClk.c ****     *
 522:.\Generated_Source\PSoC4/CyLFClk.c ****     * Side Effects:
 523:.\Generated_Source\PSoC4/CyLFClk.c ****     *   WDT counter counterNum should be disabled to set a mode. Otherwise, this
 524:.\Generated_Source\PSoC4/CyLFClk.c ****     *   function call has no effect. If the specified counter is enabled,
 525:.\Generated_Source\PSoC4/CyLFClk.c ****     *   call the CySysWdtDisable() function with the corresponding parameter to
 526:.\Generated_Source\PSoC4/CyLFClk.c ****     *   disable the specified counter and wait for it to stop.
 527:.\Generated_Source\PSoC4/CyLFClk.c ****     *
 528:.\Generated_Source\PSoC4/CyLFClk.c ****     *******************************************************************************/
 529:.\Generated_Source\PSoC4/CyLFClk.c ****     void CySysWdtSetMode(uint32 counterNum, uint32 mode)
 530:.\Generated_Source\PSoC4/CyLFClk.c ****     {
 191              		.loc 1 530 0
 192              		.cfi_startproc
 193              	.LVL8:
 194 0000 38B5     		push	{r3, r4, r5, lr}
 195              		.cfi_def_cfa_offset 16
 196              		.cfi_offset 3, -16
 197              		.cfi_offset 4, -12
 198              		.cfi_offset 5, -8
 199              		.cfi_offset 14, -4
 200              		.loc 1 530 0
 201 0002 041C     		mov	r4, r0
 202 0004 0D1C     		mov	r5, r1
 531:.\Generated_Source\PSoC4/CyLFClk.c ****         uint32 configRegValue;
 532:.\Generated_Source\PSoC4/CyLFClk.c **** 
ARM GAS  C:\Users\Vit\AppData\Local\Temp\ccnJL0JJ.s 			page 14


 533:.\Generated_Source\PSoC4/CyLFClk.c ****         CYASSERT(counterNum < CY_SYS_WDT_COUNTERS_MAX);
 203              		.loc 1 533 0
 204 0006 0228     		cmp	r0, #2
 205 0008 02D9     		bls	.L16
 206              		.loc 1 533 0 is_stmt 0 discriminator 1
 207 000a 0020     		mov	r0, #0
 208              	.LVL9:
 209 000c FFF7FEFF 		bl	CyHalt
 210              	.LVL10:
 211              	.L16:
 534:.\Generated_Source\PSoC4/CyLFClk.c **** 
 535:.\Generated_Source\PSoC4/CyLFClk.c ****         if(0u == CySysWdtGetEnabledStatus(counterNum))
 212              		.loc 1 535 0 is_stmt 1
 213 0010 201C     		mov	r0, r4
 214 0012 FFF7FEFF 		bl	CySysWdtGetEnabledStatus
 215              	.LVL11:
 216 0016 0028     		cmp	r0, #0
 217 0018 0AD1     		bne	.L15
 218              	.LVL12:
 219              	.LBB4:
 220              	.LBB5:
 536:.\Generated_Source\PSoC4/CyLFClk.c ****         {
 537:.\Generated_Source\PSoC4/CyLFClk.c ****             configRegValue = CY_SYS_WDT_CONFIG_REG &
 538:.\Generated_Source\PSoC4/CyLFClk.c ****                                 (uint32)~((uint32)(CY_SYS_WDT_MODE_MASK << (counterNum * CY_SYS_WDT
 221              		.loc 1 538 0
 222 001a 0321     		mov	r1, #3
 223 001c 081C     		mov	r0, r1
 224 001e E400     		lsl	r4, r4, #3
 225              	.LVL13:
 226 0020 A040     		lsl	r0, r0, r4
 539:.\Generated_Source\PSoC4/CyLFClk.c ****             configRegValue |= (uint32)((mode & CY_SYS_WDT_MODE_MASK) << (counterNum * CY_SYS_WDT_CN
 227              		.loc 1 539 0
 228 0022 2940     		and	r1, r5
 229 0024 A140     		lsl	r1, r1, r4
 537:.\Generated_Source\PSoC4/CyLFClk.c ****                                 (uint32)~((uint32)(CY_SYS_WDT_MODE_MASK << (counterNum * CY_SYS_WDT
 230              		.loc 1 537 0
 231 0026 034A     		ldr	r2, .L18
 232 0028 1368     		ldr	r3, [r2]
 233 002a 8343     		bic	r3, r0
 234              	.LVL14:
 235              		.loc 1 539 0
 236 002c 1943     		orr	r1, r3
 237              	.LVL15:
 540:.\Generated_Source\PSoC4/CyLFClk.c ****             CY_SYS_WDT_CONFIG_REG = configRegValue;
 238              		.loc 1 540 0
 239 002e 1160     		str	r1, [r2]
 240              	.LVL16:
 241              	.L15:
 242              	.LBE5:
 243              	.LBE4:
 541:.\Generated_Source\PSoC4/CyLFClk.c ****         }
 542:.\Generated_Source\PSoC4/CyLFClk.c ****     }
 244              		.loc 1 542 0
 245              		@ sp needed
 246              	.LVL17:
 247 0030 38BD     		pop	{r3, r4, r5, pc}
 248              	.L19:
ARM GAS  C:\Users\Vit\AppData\Local\Temp\ccnJL0JJ.s 			page 15


 249 0032 C046     		.align	2
 250              	.L18:
 251 0034 0C020B40 		.word	1074463244
 252              		.cfi_endproc
 253              	.LFE7:
 254              		.size	CySysWdtSetMode, .-CySysWdtSetMode
 255              		.section	.text.CySysWdtGetMode,"ax",%progbits
 256              		.align	1
 257              		.global	CySysWdtGetMode
 258              		.code	16
 259              		.thumb_func
 260              		.type	CySysWdtGetMode, %function
 261              	CySysWdtGetMode:
 262              	.LFB8:
 543:.\Generated_Source\PSoC4/CyLFClk.c **** 
 544:.\Generated_Source\PSoC4/CyLFClk.c **** 
 545:.\Generated_Source\PSoC4/CyLFClk.c ****     /*******************************************************************************
 546:.\Generated_Source\PSoC4/CyLFClk.c ****     * Function Name: CySysWdtGetMode
 547:.\Generated_Source\PSoC4/CyLFClk.c ****     ********************************************************************************
 548:.\Generated_Source\PSoC4/CyLFClk.c ****     *
 549:.\Generated_Source\PSoC4/CyLFClk.c ****     * Summary:
 550:.\Generated_Source\PSoC4/CyLFClk.c ****     *  Reads the mode of one of the three WDT counters.
 551:.\Generated_Source\PSoC4/CyLFClk.c ****     *
 552:.\Generated_Source\PSoC4/CyLFClk.c ****     * Parameters:
 553:.\Generated_Source\PSoC4/CyLFClk.c ****     *  counterNum: Valid range [0-2].  The number of the WDT counter.
 554:.\Generated_Source\PSoC4/CyLFClk.c ****     *
 555:.\Generated_Source\PSoC4/CyLFClk.c ****     * Return:
 556:.\Generated_Source\PSoC4/CyLFClk.c ****     *  The mode of the counter.  The same enumerated values as the mode parameter used in
 557:.\Generated_Source\PSoC4/CyLFClk.c ****     *  CySysWdtSetMode().
 558:.\Generated_Source\PSoC4/CyLFClk.c ****     *
 559:.\Generated_Source\PSoC4/CyLFClk.c ****     *******************************************************************************/
 560:.\Generated_Source\PSoC4/CyLFClk.c ****     uint32 CySysWdtGetMode(uint32 counterNum)
 561:.\Generated_Source\PSoC4/CyLFClk.c ****     {
 263              		.loc 1 561 0
 264              		.cfi_startproc
 265              	.LVL18:
 562:.\Generated_Source\PSoC4/CyLFClk.c ****         return ((CY_SYS_WDT_CONFIG_REG >> (counterNum * CY_SYS_WDT_CNT_SHIFT)) & CY_SYS_WDT_MODE_MA
 266              		.loc 1 562 0
 267 0000 034B     		ldr	r3, .L21
 268 0002 C000     		lsl	r0, r0, #3
 269              	.LVL19:
 270 0004 1B68     		ldr	r3, [r3]
 563:.\Generated_Source\PSoC4/CyLFClk.c ****     }
 271              		.loc 1 563 0
 272              		@ sp needed
 562:.\Generated_Source\PSoC4/CyLFClk.c ****         return ((CY_SYS_WDT_CONFIG_REG >> (counterNum * CY_SYS_WDT_CNT_SHIFT)) & CY_SYS_WDT_MODE_MA
 273              		.loc 1 562 0
 274 0006 C340     		lsr	r3, r3, r0
 275 0008 181C     		mov	r0, r3
 276 000a 0323     		mov	r3, #3
 277 000c 1840     		and	r0, r3
 278              		.loc 1 563 0
 279 000e 7047     		bx	lr
 280              	.L22:
 281              		.align	2
 282              	.L21:
 283 0010 0C020B40 		.word	1074463244
ARM GAS  C:\Users\Vit\AppData\Local\Temp\ccnJL0JJ.s 			page 16


 284              		.cfi_endproc
 285              	.LFE8:
 286              		.size	CySysWdtGetMode, .-CySysWdtGetMode
 287              		.section	.text.CySysWdtSetClearOnMatch,"ax",%progbits
 288              		.align	1
 289              		.global	CySysWdtSetClearOnMatch
 290              		.code	16
 291              		.thumb_func
 292              		.type	CySysWdtSetClearOnMatch, %function
 293              	CySysWdtSetClearOnMatch:
 294              	.LFB9:
 564:.\Generated_Source\PSoC4/CyLFClk.c **** 
 565:.\Generated_Source\PSoC4/CyLFClk.c **** 
 566:.\Generated_Source\PSoC4/CyLFClk.c ****     /*******************************************************************************
 567:.\Generated_Source\PSoC4/CyLFClk.c ****     * Function Name: CySysWdtSetClearOnMatch
 568:.\Generated_Source\PSoC4/CyLFClk.c ****     ********************************************************************************
 569:.\Generated_Source\PSoC4/CyLFClk.c ****     *
 570:.\Generated_Source\PSoC4/CyLFClk.c ****     * Summary:
 571:.\Generated_Source\PSoC4/CyLFClk.c ****     *  Configures the WDT counter "clear on match" setting.  If configured to "clear
 572:.\Generated_Source\PSoC4/CyLFClk.c ****     *  on match", the counter counts from 0 to MatchValue giving it a
 573:.\Generated_Source\PSoC4/CyLFClk.c ****     *  period of (MatchValue + 1).
 574:.\Generated_Source\PSoC4/CyLFClk.c ****     *
 575:.\Generated_Source\PSoC4/CyLFClk.c ****     * Parameters:
 576:.\Generated_Source\PSoC4/CyLFClk.c ****     *  counterNum:
 577:.\Generated_Source\PSoC4/CyLFClk.c ****     *   Valid range [0-1].  The number of the WDT counter.  The match values are not
 578:.\Generated_Source\PSoC4/CyLFClk.c ****     *   supported by counter 2.
 579:.\Generated_Source\PSoC4/CyLFClk.c ****     *
 580:.\Generated_Source\PSoC4/CyLFClk.c ****     * enable:
 581:.\Generated_Source\PSoC4/CyLFClk.c ****     *   0 to disable, 1 to enable
 582:.\Generated_Source\PSoC4/CyLFClk.c ****     *
 583:.\Generated_Source\PSoC4/CyLFClk.c ****     * Return:
 584:.\Generated_Source\PSoC4/CyLFClk.c ****     *   None.
 585:.\Generated_Source\PSoC4/CyLFClk.c ****     *
 586:.\Generated_Source\PSoC4/CyLFClk.c ****     * Side Effects:
 587:.\Generated_Source\PSoC4/CyLFClk.c ****     *   WDT counter counterNum should be disabled. Otherwise this function call
 588:.\Generated_Source\PSoC4/CyLFClk.c ****     *   has no effect. If the specified counter is enabled, call the CySysWdtDisable()
 589:.\Generated_Source\PSoC4/CyLFClk.c ****     *   function with the corresponding parameter to disable the specified counter and
 590:.\Generated_Source\PSoC4/CyLFClk.c ****     *   wait for it to stop. This may take up to three LFCLK cycles.
 591:.\Generated_Source\PSoC4/CyLFClk.c ****     *
 592:.\Generated_Source\PSoC4/CyLFClk.c ****     *******************************************************************************/
 593:.\Generated_Source\PSoC4/CyLFClk.c ****     void CySysWdtSetClearOnMatch(uint32 counterNum, uint32 enable)
 594:.\Generated_Source\PSoC4/CyLFClk.c ****     {
 295              		.loc 1 594 0
 296              		.cfi_startproc
 297              	.LVL20:
 298 0000 38B5     		push	{r3, r4, r5, lr}
 299              		.cfi_def_cfa_offset 16
 300              		.cfi_offset 3, -16
 301              		.cfi_offset 4, -12
 302              		.cfi_offset 5, -8
 303              		.cfi_offset 14, -4
 304              		.loc 1 594 0
 305 0002 041C     		mov	r4, r0
 306 0004 0D1C     		mov	r5, r1
 595:.\Generated_Source\PSoC4/CyLFClk.c ****         uint32 configRegValue;
 596:.\Generated_Source\PSoC4/CyLFClk.c **** 
 597:.\Generated_Source\PSoC4/CyLFClk.c ****         CYASSERT((counterNum == CY_SYS_WDT_COUNTER0) ||
ARM GAS  C:\Users\Vit\AppData\Local\Temp\ccnJL0JJ.s 			page 17


 307              		.loc 1 597 0
 308 0006 0128     		cmp	r0, #1
 309 0008 02D9     		bls	.L24
 310              		.loc 1 597 0 is_stmt 0 discriminator 1
 311 000a 0020     		mov	r0, #0
 312              	.LVL21:
 313 000c FFF7FEFF 		bl	CyHalt
 314              	.LVL22:
 315              	.L24:
 598:.\Generated_Source\PSoC4/CyLFClk.c ****                  (counterNum == CY_SYS_WDT_COUNTER1));
 599:.\Generated_Source\PSoC4/CyLFClk.c **** 
 600:.\Generated_Source\PSoC4/CyLFClk.c ****         if(0u == CySysWdtGetEnabledStatus(counterNum))
 316              		.loc 1 600 0 is_stmt 1
 317 0010 201C     		mov	r0, r4
 318 0012 FFF7FEFF 		bl	CySysWdtGetEnabledStatus
 319              	.LVL23:
 320 0016 0028     		cmp	r0, #0
 321 0018 0AD1     		bne	.L23
 601:.\Generated_Source\PSoC4/CyLFClk.c ****         {
 602:.\Generated_Source\PSoC4/CyLFClk.c ****             configRegValue = CY_SYS_WDT_CONFIG_REG &
 603:.\Generated_Source\PSoC4/CyLFClk.c ****                 (uint32)~((uint32)((uint32)1u << ((counterNum * CY_SYS_WDT_CNT_SHIFT) + CY_SYS_WDT_
 322              		.loc 1 603 0
 323 001a E400     		lsl	r4, r4, #3
 324              	.LVL24:
 325 001c 0234     		add	r4, r4, #2
 326 001e 0121     		mov	r1, #1
 604:.\Generated_Source\PSoC4/CyLFClk.c **** 
 605:.\Generated_Source\PSoC4/CyLFClk.c ****             configRegValue
 606:.\Generated_Source\PSoC4/CyLFClk.c ****                 |= (uint32)(enable << ((counterNum * CY_SYS_WDT_CNT_SHIFT) + CY_SYS_WDT_CNT_MATCH_C
 327              		.loc 1 606 0
 328 0020 A540     		lsl	r5, r5, r4
 329              	.LVL25:
 603:.\Generated_Source\PSoC4/CyLFClk.c **** 
 330              		.loc 1 603 0
 331 0022 A140     		lsl	r1, r1, r4
 332              		.loc 1 606 0
 333 0024 2C1C     		mov	r4, r5
 602:.\Generated_Source\PSoC4/CyLFClk.c ****                 (uint32)~((uint32)((uint32)1u << ((counterNum * CY_SYS_WDT_CNT_SHIFT) + CY_SYS_WDT_
 334              		.loc 1 602 0
 335 0026 034A     		ldr	r2, .L26
 336 0028 1368     		ldr	r3, [r2]
 337 002a 8B43     		bic	r3, r1
 338              	.LVL26:
 339              		.loc 1 606 0
 340 002c 1C43     		orr	r4, r3
 341              	.LVL27:
 607:.\Generated_Source\PSoC4/CyLFClk.c **** 
 608:.\Generated_Source\PSoC4/CyLFClk.c ****             CY_SYS_WDT_CONFIG_REG = configRegValue;
 342              		.loc 1 608 0
 343 002e 1460     		str	r4, [r2]
 344              	.LVL28:
 345              	.L23:
 609:.\Generated_Source\PSoC4/CyLFClk.c ****         }
 610:.\Generated_Source\PSoC4/CyLFClk.c ****     }
 346              		.loc 1 610 0
 347              		@ sp needed
 348 0030 38BD     		pop	{r3, r4, r5, pc}
ARM GAS  C:\Users\Vit\AppData\Local\Temp\ccnJL0JJ.s 			page 18


 349              	.L27:
 350 0032 C046     		.align	2
 351              	.L26:
 352 0034 0C020B40 		.word	1074463244
 353              		.cfi_endproc
 354              	.LFE9:
 355              		.size	CySysWdtSetClearOnMatch, .-CySysWdtSetClearOnMatch
 356              		.section	.text.CySysWdtGetClearOnMatch,"ax",%progbits
 357              		.align	1
 358              		.global	CySysWdtGetClearOnMatch
 359              		.code	16
 360              		.thumb_func
 361              		.type	CySysWdtGetClearOnMatch, %function
 362              	CySysWdtGetClearOnMatch:
 363              	.LFB10:
 611:.\Generated_Source\PSoC4/CyLFClk.c **** 
 612:.\Generated_Source\PSoC4/CyLFClk.c **** 
 613:.\Generated_Source\PSoC4/CyLFClk.c ****     /*******************************************************************************
 614:.\Generated_Source\PSoC4/CyLFClk.c ****     * Function Name: CySysWdtGetClearOnMatch
 615:.\Generated_Source\PSoC4/CyLFClk.c ****     ********************************************************************************
 616:.\Generated_Source\PSoC4/CyLFClk.c ****     *
 617:.\Generated_Source\PSoC4/CyLFClk.c ****     * Summary:
 618:.\Generated_Source\PSoC4/CyLFClk.c ****     *  Reads the "clear on match" setting for the specified counter.
 619:.\Generated_Source\PSoC4/CyLFClk.c ****     *
 620:.\Generated_Source\PSoC4/CyLFClk.c ****     * Parameters:
 621:.\Generated_Source\PSoC4/CyLFClk.c ****     *   counterNum: Valid range [0-1].  The number of the WDT counter.  The match values are
 622:.\Generated_Source\PSoC4/CyLFClk.c ****     *               not supported by counter 2.
 623:.\Generated_Source\PSoC4/CyLFClk.c ****     *
 624:.\Generated_Source\PSoC4/CyLFClk.c ****     * Return:
 625:.\Generated_Source\PSoC4/CyLFClk.c ****     *   The "clear on match" status: 1 if enabled, 0 if disabled
 626:.\Generated_Source\PSoC4/CyLFClk.c ****     *
 627:.\Generated_Source\PSoC4/CyLFClk.c ****     *******************************************************************************/
 628:.\Generated_Source\PSoC4/CyLFClk.c ****     uint32 CySysWdtGetClearOnMatch(uint32 counterNum)
 629:.\Generated_Source\PSoC4/CyLFClk.c ****     {
 364              		.loc 1 629 0
 365              		.cfi_startproc
 366              	.LVL29:
 367 0000 10B5     		push	{r4, lr}
 368              		.cfi_def_cfa_offset 8
 369              		.cfi_offset 4, -8
 370              		.cfi_offset 14, -4
 371              		.loc 1 629 0
 372 0002 041E     		sub	r4, r0, #0
 630:.\Generated_Source\PSoC4/CyLFClk.c ****         CYASSERT((counterNum == CY_SYS_WDT_COUNTER0) ||
 373              		.loc 1 630 0
 374 0004 012C     		cmp	r4, #1
 375 0006 02D9     		bls	.L29
 376              		.loc 1 630 0 is_stmt 0 discriminator 1
 377 0008 0020     		mov	r0, #0
 378              	.LVL30:
 379 000a FFF7FEFF 		bl	CyHalt
 380              	.LVL31:
 381              	.L29:
 631:.\Generated_Source\PSoC4/CyLFClk.c ****                  (counterNum == CY_SYS_WDT_COUNTER1));
 632:.\Generated_Source\PSoC4/CyLFClk.c **** 
 633:.\Generated_Source\PSoC4/CyLFClk.c ****         return (uint32)((CY_SYS_WDT_CONFIG_REG >>
 382              		.loc 1 633 0 is_stmt 1
ARM GAS  C:\Users\Vit\AppData\Local\Temp\ccnJL0JJ.s 			page 19


 383 000e 044B     		ldr	r3, .L30
 634:.\Generated_Source\PSoC4/CyLFClk.c ****                         ((counterNum * CY_SYS_WDT_CNT_SHIFT) + CY_SYS_WDT_CNT_MATCH_CLR_SHIFT)) & 0
 384              		.loc 1 634 0
 385 0010 E400     		lsl	r4, r4, #3
 386              	.LVL32:
 633:.\Generated_Source\PSoC4/CyLFClk.c ****                         ((counterNum * CY_SYS_WDT_CNT_SHIFT) + CY_SYS_WDT_CNT_MATCH_CLR_SHIFT)) & 0
 387              		.loc 1 633 0
 388 0012 1868     		ldr	r0, [r3]
 389              		.loc 1 634 0
 390 0014 0234     		add	r4, r4, #2
 633:.\Generated_Source\PSoC4/CyLFClk.c ****                         ((counterNum * CY_SYS_WDT_CNT_SHIFT) + CY_SYS_WDT_CNT_MATCH_CLR_SHIFT)) & 0
 391              		.loc 1 633 0
 392 0016 E040     		lsr	r0, r0, r4
 393 0018 0123     		mov	r3, #1
 635:.\Generated_Source\PSoC4/CyLFClk.c ****     }
 394              		.loc 1 635 0
 395              		@ sp needed
 633:.\Generated_Source\PSoC4/CyLFClk.c ****                         ((counterNum * CY_SYS_WDT_CNT_SHIFT) + CY_SYS_WDT_CNT_MATCH_CLR_SHIFT)) & 0
 396              		.loc 1 633 0
 397 001a 1840     		and	r0, r3
 398              		.loc 1 635 0
 399 001c 10BD     		pop	{r4, pc}
 400              	.L31:
 401 001e C046     		.align	2
 402              	.L30:
 403 0020 0C020B40 		.word	1074463244
 404              		.cfi_endproc
 405              	.LFE10:
 406              		.size	CySysWdtGetClearOnMatch, .-CySysWdtGetClearOnMatch
 407              		.section	.text.CySysWdtEnable,"ax",%progbits
 408              		.align	1
 409              		.global	CySysWdtEnable
 410              		.code	16
 411              		.thumb_func
 412              		.type	CySysWdtEnable, %function
 413              	CySysWdtEnable:
 414              	.LFB11:
 636:.\Generated_Source\PSoC4/CyLFClk.c **** 
 637:.\Generated_Source\PSoC4/CyLFClk.c **** 
 638:.\Generated_Source\PSoC4/CyLFClk.c ****     /*******************************************************************************
 639:.\Generated_Source\PSoC4/CyLFClk.c ****     * Function Name: CySysWdtEnable
 640:.\Generated_Source\PSoC4/CyLFClk.c ****     ********************************************************************************
 641:.\Generated_Source\PSoC4/CyLFClk.c ****     *
 642:.\Generated_Source\PSoC4/CyLFClk.c ****     * Summary:
 643:.\Generated_Source\PSoC4/CyLFClk.c ****     *  Enables the specified WDT counters.  All the counters specified in the mask
 644:.\Generated_Source\PSoC4/CyLFClk.c ****     *  are enabled.
 645:.\Generated_Source\PSoC4/CyLFClk.c ****     *
 646:.\Generated_Source\PSoC4/CyLFClk.c ****     * Parameters:
 647:.\Generated_Source\PSoC4/CyLFClk.c ****     *  counterMask: The mask of all counters to enable.
 648:.\Generated_Source\PSoC4/CyLFClk.c ****     *       Define                       Counter
 649:.\Generated_Source\PSoC4/CyLFClk.c ****     *      CY_SYS_WDT_COUNTER0_MASK      0
 650:.\Generated_Source\PSoC4/CyLFClk.c ****     *      CY_SYS_WDT_COUNTER1_MASK      1
 651:.\Generated_Source\PSoC4/CyLFClk.c ****     *      CY_SYS_WDT_COUNTER2_MASK      2
 652:.\Generated_Source\PSoC4/CyLFClk.c ****     *
 653:.\Generated_Source\PSoC4/CyLFClk.c ****     * Return:
 654:.\Generated_Source\PSoC4/CyLFClk.c ****     *  None
 655:.\Generated_Source\PSoC4/CyLFClk.c ****     *
ARM GAS  C:\Users\Vit\AppData\Local\Temp\ccnJL0JJ.s 			page 20


 656:.\Generated_Source\PSoC4/CyLFClk.c ****     * Side Effects:
 657:.\Generated_Source\PSoC4/CyLFClk.c ****     *  Enabling or disabling WDT requires 3 LFCLK cycles to come into effect.
 658:.\Generated_Source\PSoC4/CyLFClk.c ****     *  Therefore, the WDT enable state must not be changed more than once in
 659:.\Generated_Source\PSoC4/CyLFClk.c ****     *  that period.
 660:.\Generated_Source\PSoC4/CyLFClk.c ****     *
 661:.\Generated_Source\PSoC4/CyLFClk.c ****     *  After WDT is enabled, it is illegal to write WDT configuration (WDT_CONFIG)
 662:.\Generated_Source\PSoC4/CyLFClk.c ****     *  and control (WDT_CONTROL) registers. This means that all WDT functions that
 663:.\Generated_Source\PSoC4/CyLFClk.c ****     *  contain 'write' in the name (with the exception of CySysWdtSetMatch()
 664:.\Generated_Source\PSoC4/CyLFClk.c ****     *  function) are illegal to call once WDT enabled.
 665:.\Generated_Source\PSoC4/CyLFClk.c ****     *
 666:.\Generated_Source\PSoC4/CyLFClk.c ****     *  PSoC 4100 / PSoC 4200:
 667:.\Generated_Source\PSoC4/CyLFClk.c ****     *  This function enables ILO.
 668:.\Generated_Source\PSoC4/CyLFClk.c ****     *
 669:.\Generated_Source\PSoC4/CyLFClk.c ****     *  PSoC 4100-BL / PSoC 4200-BL and PSoC 4100M / PSoC 4200M:
 670:.\Generated_Source\PSoC4/CyLFClk.c ****     *  LFLCK should be configured before calling this function. The desired
 671:.\Generated_Source\PSoC4/CyLFClk.c ****     *  source should be enabled and configured to be the source for LFCLK.
 672:.\Generated_Source\PSoC4/CyLFClk.c ****     *
 673:.\Generated_Source\PSoC4/CyLFClk.c ****     *******************************************************************************/
 674:.\Generated_Source\PSoC4/CyLFClk.c ****     void CySysWdtEnable(uint32 counterMask)
 675:.\Generated_Source\PSoC4/CyLFClk.c ****     {
 415              		.loc 1 675 0
 416              		.cfi_startproc
 417              	.LVL33:
 418 0000 10B5     		push	{r4, lr}
 419              		.cfi_def_cfa_offset 8
 420              		.cfi_offset 4, -8
 421              		.cfi_offset 14, -4
 422              		.loc 1 675 0
 423 0002 041C     		mov	r4, r0
 676:.\Generated_Source\PSoC4/CyLFClk.c ****         #if (!CY_IP_WCO)
 677:.\Generated_Source\PSoC4/CyLFClk.c ****             CySysClkIloStart();
 424              		.loc 1 677 0
 425 0004 FFF7FEFF 		bl	CySysClkIloStart
 426              	.LVL34:
 678:.\Generated_Source\PSoC4/CyLFClk.c ****         #endif /* (!CY_IP_WCO) */
 679:.\Generated_Source\PSoC4/CyLFClk.c **** 
 680:.\Generated_Source\PSoC4/CyLFClk.c ****         CY_SYS_WDT_CONTROL_REG |= counterMask;
 427              		.loc 1 680 0
 428 0008 094B     		ldr	r3, .L51
 429 000a 1A68     		ldr	r2, [r3]
 430 000c 2243     		orr	r2, r4
 431 000e 1A60     		str	r2, [r3]
 681:.\Generated_Source\PSoC4/CyLFClk.c **** 
 682:.\Generated_Source\PSoC4/CyLFClk.c ****         if(0u != (counterMask & CY_SYS_WDT_COUNTER0_MASK))
 432              		.loc 1 682 0
 433 0010 E207     		lsl	r2, r4, #31
 434 0012 02D5     		bpl	.L33
 435              	.L34:
 436              	.LVL35:
 437              	.LBB14:
 438              	.LBB15:
 496:.\Generated_Source\PSoC4/CyLFClk.c ****     }
 439              		.loc 1 496 0 discriminator 1
 440 0014 1A68     		ldr	r2, [r3]
 441              	.LBE15:
 442              	.LBE14:
 683:.\Generated_Source\PSoC4/CyLFClk.c ****         {
ARM GAS  C:\Users\Vit\AppData\Local\Temp\ccnJL0JJ.s 			page 21


 684:.\Generated_Source\PSoC4/CyLFClk.c ****             while (0u == CySysWdtGetEnabledStatus(CY_SYS_WDT_COUNTER0))
 443              		.loc 1 684 0 discriminator 1
 444 0016 9207     		lsl	r2, r2, #30
 445 0018 FCD5     		bpl	.L34
 446              	.LVL36:
 447              	.L33:
 685:.\Generated_Source\PSoC4/CyLFClk.c ****             {
 686:.\Generated_Source\PSoC4/CyLFClk.c ****                 /* Wait for changes to come into effect */
 687:.\Generated_Source\PSoC4/CyLFClk.c ****             }
 688:.\Generated_Source\PSoC4/CyLFClk.c ****         }
 689:.\Generated_Source\PSoC4/CyLFClk.c **** 
 690:.\Generated_Source\PSoC4/CyLFClk.c ****         if(0u != (counterMask & CY_SYS_WDT_COUNTER1_MASK))
 448              		.loc 1 690 0
 449 001a E205     		lsl	r2, r4, #23
 450 001c 02D5     		bpl	.L35
 451              	.L36:
 452              	.LVL37:
 453              	.LBB16:
 454              	.LBB17:
 496:.\Generated_Source\PSoC4/CyLFClk.c ****     }
 455              		.loc 1 496 0 discriminator 1
 456 001e 1A68     		ldr	r2, [r3]
 457              	.LBE17:
 458              	.LBE16:
 691:.\Generated_Source\PSoC4/CyLFClk.c ****         {
 692:.\Generated_Source\PSoC4/CyLFClk.c ****             while (0u == CySysWdtGetEnabledStatus(CY_SYS_WDT_COUNTER1))
 459              		.loc 1 692 0 discriminator 1
 460 0020 9205     		lsl	r2, r2, #22
 461 0022 FCD5     		bpl	.L36
 462              	.LVL38:
 463              	.L35:
 693:.\Generated_Source\PSoC4/CyLFClk.c ****             {
 694:.\Generated_Source\PSoC4/CyLFClk.c ****                 /* Wait for changes to come into effect */
 695:.\Generated_Source\PSoC4/CyLFClk.c ****             }
 696:.\Generated_Source\PSoC4/CyLFClk.c ****         }
 697:.\Generated_Source\PSoC4/CyLFClk.c **** 
 698:.\Generated_Source\PSoC4/CyLFClk.c ****         if(0u != (counterMask & CY_SYS_WDT_COUNTER2_MASK))
 464              		.loc 1 698 0
 465 0024 E203     		lsl	r2, r4, #15
 466 0026 02D5     		bpl	.L32
 467              	.L38:
 468              	.LVL39:
 469              	.LBB18:
 470              	.LBB19:
 471              	.LBB20:
 472              	.LBB21:
 496:.\Generated_Source\PSoC4/CyLFClk.c ****     }
 473              		.loc 1 496 0
 474 0028 1A68     		ldr	r2, [r3]
 475              	.LBE21:
 476              	.LBE20:
 699:.\Generated_Source\PSoC4/CyLFClk.c ****         {
 700:.\Generated_Source\PSoC4/CyLFClk.c ****             while (0u == CySysWdtGetEnabledStatus(CY_SYS_WDT_COUNTER2))
 477              		.loc 1 700 0
 478 002a 9203     		lsl	r2, r2, #14
 479 002c FCD5     		bpl	.L38
 480              	.LVL40:
ARM GAS  C:\Users\Vit\AppData\Local\Temp\ccnJL0JJ.s 			page 22


 481              	.L32:
 482              	.LBE19:
 483              	.LBE18:
 701:.\Generated_Source\PSoC4/CyLFClk.c ****             {
 702:.\Generated_Source\PSoC4/CyLFClk.c ****                 /* Wait for changes to come into effect */
 703:.\Generated_Source\PSoC4/CyLFClk.c ****             }
 704:.\Generated_Source\PSoC4/CyLFClk.c ****         }
 705:.\Generated_Source\PSoC4/CyLFClk.c ****     }
 484              		.loc 1 705 0
 485              		@ sp needed
 486              	.LVL41:
 487 002e 10BD     		pop	{r4, pc}
 488              	.L52:
 489              		.align	2
 490              	.L51:
 491 0030 10020B40 		.word	1074463248
 492              		.cfi_endproc
 493              	.LFE11:
 494              		.size	CySysWdtEnable, .-CySysWdtEnable
 495              		.section	.text.CySysWdtDisable,"ax",%progbits
 496              		.align	1
 497              		.global	CySysWdtDisable
 498              		.code	16
 499              		.thumb_func
 500              		.type	CySysWdtDisable, %function
 501              	CySysWdtDisable:
 502              	.LFB12:
 706:.\Generated_Source\PSoC4/CyLFClk.c **** 
 707:.\Generated_Source\PSoC4/CyLFClk.c **** 
 708:.\Generated_Source\PSoC4/CyLFClk.c ****     /*******************************************************************************
 709:.\Generated_Source\PSoC4/CyLFClk.c ****     * Function Name: CySysWdtDisable
 710:.\Generated_Source\PSoC4/CyLFClk.c ****     ********************************************************************************
 711:.\Generated_Source\PSoC4/CyLFClk.c ****     *
 712:.\Generated_Source\PSoC4/CyLFClk.c ****     * Summary:
 713:.\Generated_Source\PSoC4/CyLFClk.c ****     *  Disables the specified WDT counters. All the counters specified in the mask
 714:.\Generated_Source\PSoC4/CyLFClk.c ****     *  are disabled. The function waits for the changes to come into effect.
 715:.\Generated_Source\PSoC4/CyLFClk.c ****     *
 716:.\Generated_Source\PSoC4/CyLFClk.c ****     * Parameters:
 717:.\Generated_Source\PSoC4/CyLFClk.c ****     *  uint32 counterMask: The mask of all counters to disable
 718:.\Generated_Source\PSoC4/CyLFClk.c ****     *    Define                       Counter
 719:.\Generated_Source\PSoC4/CyLFClk.c ****     *   CY_SYS_WDT_COUNTER0_MASK      0
 720:.\Generated_Source\PSoC4/CyLFClk.c ****     *   CY_SYS_WDT_COUNTER1_MASK      1
 721:.\Generated_Source\PSoC4/CyLFClk.c ****     *   CY_SYS_WDT_COUNTER2_MASK      2
 722:.\Generated_Source\PSoC4/CyLFClk.c ****     *
 723:.\Generated_Source\PSoC4/CyLFClk.c ****     * Return:
 724:.\Generated_Source\PSoC4/CyLFClk.c ****     *   None.
 725:.\Generated_Source\PSoC4/CyLFClk.c ****     *
 726:.\Generated_Source\PSoC4/CyLFClk.c ****     *******************************************************************************/
 727:.\Generated_Source\PSoC4/CyLFClk.c ****     void CySysWdtDisable(uint32 counterMask)
 728:.\Generated_Source\PSoC4/CyLFClk.c ****     {
 503              		.loc 1 728 0
 504              		.cfi_startproc
 505              	.LVL42:
 506              	.LBB30:
 507              	.LBB31:
 437:.\Generated_Source\PSoC4/CyLFClk.c ****     }
 508              		.loc 1 437 0
ARM GAS  C:\Users\Vit\AppData\Local\Temp\ccnJL0JJ.s 			page 23


 509 0000 0C4B     		ldr	r3, .L67
 510 0002 1A68     		ldr	r2, [r3]
 511 0004 C023     		mov	r3, #192
 512 0006 1B02     		lsl	r3, r3, #8
 513 0008 1A42     		tst	r2, r3
 514 000a 12D1     		bne	.L53
 515              	.LBE31:
 516              	.LBE30:
 729:.\Generated_Source\PSoC4/CyLFClk.c ****         if (0uL == CySysWdtLocked())
 730:.\Generated_Source\PSoC4/CyLFClk.c ****         {
 731:.\Generated_Source\PSoC4/CyLFClk.c ****             CY_SYS_WDT_CONTROL_REG &= ~counterMask;
 517              		.loc 1 731 0
 518 000c 0A4B     		ldr	r3, .L67+4
 519 000e 1A68     		ldr	r2, [r3]
 520 0010 8243     		bic	r2, r0
 521 0012 1A60     		str	r2, [r3]
 732:.\Generated_Source\PSoC4/CyLFClk.c **** 
 733:.\Generated_Source\PSoC4/CyLFClk.c ****             if(0u != (counterMask & CY_SYS_WDT_COUNTER0_MASK))
 522              		.loc 1 733 0
 523 0014 C207     		lsl	r2, r0, #31
 524 0016 02D5     		bpl	.L60
 525              	.L55:
 526              	.LVL43:
 527              	.LBB32:
 528              	.LBB33:
 496:.\Generated_Source\PSoC4/CyLFClk.c ****     }
 529              		.loc 1 496 0 discriminator 1
 530 0018 1A68     		ldr	r2, [r3]
 531              	.LBE33:
 532              	.LBE32:
 734:.\Generated_Source\PSoC4/CyLFClk.c ****             {
 735:.\Generated_Source\PSoC4/CyLFClk.c ****                 while (0u != CySysWdtGetEnabledStatus(CY_SYS_WDT_COUNTER0))
 533              		.loc 1 735 0 discriminator 1
 534 001a 9207     		lsl	r2, r2, #30
 535 001c FCD4     		bmi	.L55
 536              	.LVL44:
 537              	.L60:
 736:.\Generated_Source\PSoC4/CyLFClk.c ****                 {
 737:.\Generated_Source\PSoC4/CyLFClk.c ****                     /* Wait for changes to come into effect */
 738:.\Generated_Source\PSoC4/CyLFClk.c ****                 }
 739:.\Generated_Source\PSoC4/CyLFClk.c ****             }
 740:.\Generated_Source\PSoC4/CyLFClk.c **** 
 741:.\Generated_Source\PSoC4/CyLFClk.c ****             if(0u != (counterMask & CY_SYS_WDT_COUNTER1_MASK))
 538              		.loc 1 741 0
 539 001e C205     		lsl	r2, r0, #23
 540 0020 02D5     		bpl	.L56
 541              	.L57:
 542              	.LVL45:
 543              	.LBB34:
 544              	.LBB35:
 496:.\Generated_Source\PSoC4/CyLFClk.c ****     }
 545              		.loc 1 496 0 discriminator 1
 546 0022 1A68     		ldr	r2, [r3]
 547              	.LBE35:
 548              	.LBE34:
 742:.\Generated_Source\PSoC4/CyLFClk.c ****             {
 743:.\Generated_Source\PSoC4/CyLFClk.c ****                 while (0u != CySysWdtGetEnabledStatus(CY_SYS_WDT_COUNTER1))
ARM GAS  C:\Users\Vit\AppData\Local\Temp\ccnJL0JJ.s 			page 24


 549              		.loc 1 743 0 discriminator 1
 550 0024 9205     		lsl	r2, r2, #22
 551 0026 FCD4     		bmi	.L57
 552              	.LVL46:
 553              	.L56:
 744:.\Generated_Source\PSoC4/CyLFClk.c ****                 {
 745:.\Generated_Source\PSoC4/CyLFClk.c ****                     /* Wait for changes to come into effect */
 746:.\Generated_Source\PSoC4/CyLFClk.c ****                 }
 747:.\Generated_Source\PSoC4/CyLFClk.c ****             }
 748:.\Generated_Source\PSoC4/CyLFClk.c **** 
 749:.\Generated_Source\PSoC4/CyLFClk.c ****             if(0u != (counterMask & CY_SYS_WDT_COUNTER2_MASK))
 554              		.loc 1 749 0
 555 0028 C203     		lsl	r2, r0, #15
 556 002a 02D5     		bpl	.L53
 557              	.L59:
 558              	.LVL47:
 559              	.LBB36:
 560              	.LBB37:
 496:.\Generated_Source\PSoC4/CyLFClk.c ****     }
 561              		.loc 1 496 0 discriminator 1
 562 002c 1A68     		ldr	r2, [r3]
 563              	.LBE37:
 564              	.LBE36:
 750:.\Generated_Source\PSoC4/CyLFClk.c ****             {
 751:.\Generated_Source\PSoC4/CyLFClk.c ****                 while (0u != CySysWdtGetEnabledStatus(CY_SYS_WDT_COUNTER2))
 565              		.loc 1 751 0 discriminator 1
 566 002e 9203     		lsl	r2, r2, #14
 567 0030 FCD4     		bmi	.L59
 568              	.LVL48:
 569              	.L53:
 752:.\Generated_Source\PSoC4/CyLFClk.c ****                 {
 753:.\Generated_Source\PSoC4/CyLFClk.c ****                     /* Wait for changes to come into effect */
 754:.\Generated_Source\PSoC4/CyLFClk.c ****                 }
 755:.\Generated_Source\PSoC4/CyLFClk.c ****             }
 756:.\Generated_Source\PSoC4/CyLFClk.c ****         }
 757:.\Generated_Source\PSoC4/CyLFClk.c ****     }
 570              		.loc 1 757 0
 571              		@ sp needed
 572 0032 7047     		bx	lr
 573              	.L68:
 574              		.align	2
 575              	.L67:
 576 0034 00010B40 		.word	1074462976
 577 0038 10020B40 		.word	1074463248
 578              		.cfi_endproc
 579              	.LFE12:
 580              		.size	CySysWdtDisable, .-CySysWdtDisable
 581              		.section	.text.CySysWdtSetCascade,"ax",%progbits
 582              		.align	1
 583              		.global	CySysWdtSetCascade
 584              		.code	16
 585              		.thumb_func
 586              		.type	CySysWdtSetCascade, %function
 587              	CySysWdtSetCascade:
 588              	.LFB13:
 758:.\Generated_Source\PSoC4/CyLFClk.c **** 
 759:.\Generated_Source\PSoC4/CyLFClk.c **** 
ARM GAS  C:\Users\Vit\AppData\Local\Temp\ccnJL0JJ.s 			page 25


 760:.\Generated_Source\PSoC4/CyLFClk.c ****     /*******************************************************************************
 761:.\Generated_Source\PSoC4/CyLFClk.c ****     * Function Name: CySysWdtSetCascade
 762:.\Generated_Source\PSoC4/CyLFClk.c ****     ********************************************************************************
 763:.\Generated_Source\PSoC4/CyLFClk.c ****     *
 764:.\Generated_Source\PSoC4/CyLFClk.c ****     * Summary:
 765:.\Generated_Source\PSoC4/CyLFClk.c ****     *   Writes the two WDT cascade values based on the combination of mask values
 766:.\Generated_Source\PSoC4/CyLFClk.c ****     *   specified.
 767:.\Generated_Source\PSoC4/CyLFClk.c ****     *
 768:.\Generated_Source\PSoC4/CyLFClk.c ****     * Parameters:
 769:.\Generated_Source\PSoC4/CyLFClk.c ****     *   cascadeMask: The mask value used to set or clear the cascade values.
 770:.\Generated_Source\PSoC4/CyLFClk.c ****     *   Define                     Cascade
 771:.\Generated_Source\PSoC4/CyLFClk.c ****     *   CY_SYS_WDT_CASCADE_NONE    Neither
 772:.\Generated_Source\PSoC4/CyLFClk.c ****     *   CY_SYS_WDT_CASCADE_01      Cascade 01
 773:.\Generated_Source\PSoC4/CyLFClk.c ****     *   CY_SYS_WDT_CASCADE_12      Cascade 12
 774:.\Generated_Source\PSoC4/CyLFClk.c ****     *
 775:.\Generated_Source\PSoC4/CyLFClk.c ****     *   To set both cascade modes, two defines should be ORed:
 776:.\Generated_Source\PSoC4/CyLFClk.c ****     *   (CY_SYS_WDT_CASCADE_01 | CY_SYS_WDT_CASCADE_12)
 777:.\Generated_Source\PSoC4/CyLFClk.c ****     *
 778:.\Generated_Source\PSoC4/CyLFClk.c ****     * Return:
 779:.\Generated_Source\PSoC4/CyLFClk.c ****     *   None.
 780:.\Generated_Source\PSoC4/CyLFClk.c ****     *
 781:.\Generated_Source\PSoC4/CyLFClk.c ****     * Side effects:
 782:.\Generated_Source\PSoC4/CyLFClk.c ****     *   If only one cascade mask is specified, the second cascade is disabled.
 783:.\Generated_Source\PSoC4/CyLFClk.c ****     *   To set both cascade modes, two defines should be ORed:
 784:.\Generated_Source\PSoC4/CyLFClk.c ****     *    (CY_SYS_WDT_CASCADE_01 | CY_SYS_WDT_CASCADE_12).
 785:.\Generated_Source\PSoC4/CyLFClk.c ****     *
 786:.\Generated_Source\PSoC4/CyLFClk.c ****     *   WDT counters that are part of the specified cascade should be disabled.
 787:.\Generated_Source\PSoC4/CyLFClk.c ****     *   Otherwise this function call has no effect. If the specified
 788:.\Generated_Source\PSoC4/CyLFClk.c ****     *   counter is enabled, call CySysWdtDisable() function with the corresponding
 789:.\Generated_Source\PSoC4/CyLFClk.c ****     *   parameter to disable the specified counter and wait for it to stop. This may
 790:.\Generated_Source\PSoC4/CyLFClk.c ****     *   take up to 3 LFCLK cycles.
 791:.\Generated_Source\PSoC4/CyLFClk.c ****     *
 792:.\Generated_Source\PSoC4/CyLFClk.c ****     *******************************************************************************/
 793:.\Generated_Source\PSoC4/CyLFClk.c ****     void CySysWdtSetCascade(uint32 cascadeMask)
 794:.\Generated_Source\PSoC4/CyLFClk.c ****     {
 589              		.loc 1 794 0
 590              		.cfi_startproc
 591              	.LVL49:
 592              	.LBB44:
 593              	.LBB45:
 496:.\Generated_Source\PSoC4/CyLFClk.c ****     }
 594              		.loc 1 496 0
 595 0000 094A     		ldr	r2, .L71
 596              	.LBE45:
 597              	.LBE44:
 598              		.loc 1 794 0
 599 0002 10B5     		push	{r4, lr}
 600              		.cfi_def_cfa_offset 8
 601              		.cfi_offset 4, -8
 602              		.cfi_offset 14, -4
 603              	.LBB48:
 604              	.LBB46:
 496:.\Generated_Source\PSoC4/CyLFClk.c ****     }
 605              		.loc 1 496 0
 606 0004 1168     		ldr	r1, [r2]
 607              	.LVL50:
 608              	.LBE46:
ARM GAS  C:\Users\Vit\AppData\Local\Temp\ccnJL0JJ.s 			page 26


 609              	.LBE48:
 610              	.LBB49:
 611              	.LBB50:
 612 0006 1368     		ldr	r3, [r2]
 613              	.LVL51:
 614              	.LBE50:
 615              	.LBE49:
 616              	.LBB52:
 617              	.LBB53:
 618 0008 1268     		ldr	r2, [r2]
 619              	.LVL52:
 620              	.LBE53:
 621              	.LBE52:
 622              	.LBB55:
 623              	.LBB51:
 624 000a 5C0A     		lsr	r4, r3, #9
 625              	.LBE51:
 626              	.LBE55:
 627              	.LBB56:
 628              	.LBB47:
 629 000c 4B08     		lsr	r3, r1, #1
 630              	.LVL53:
 631              	.LBE47:
 632              	.LBE56:
 795:.\Generated_Source\PSoC4/CyLFClk.c ****         uint32 configRegValue;
 796:.\Generated_Source\PSoC4/CyLFClk.c ****         uint32 countersEnableStatus;
 797:.\Generated_Source\PSoC4/CyLFClk.c **** 
 798:.\Generated_Source\PSoC4/CyLFClk.c ****         countersEnableStatus = CySysWdtGetEnabledStatus(CY_SYS_WDT_COUNTER0) |
 633              		.loc 1 798 0
 634 000e 2343     		orr	r3, r4
 635              	.LBB57:
 636              	.LBB54:
 496:.\Generated_Source\PSoC4/CyLFClk.c ****     }
 637              		.loc 1 496 0
 638 0010 520C     		lsr	r2, r2, #17
 639              	.LBE54:
 640              	.LBE57:
 641              		.loc 1 798 0
 642 0012 1343     		orr	r3, r2
 799:.\Generated_Source\PSoC4/CyLFClk.c ****                             CySysWdtGetEnabledStatus(CY_SYS_WDT_COUNTER1) |
 800:.\Generated_Source\PSoC4/CyLFClk.c ****                             CySysWdtGetEnabledStatus(CY_SYS_WDT_COUNTER2);
 801:.\Generated_Source\PSoC4/CyLFClk.c **** 
 802:.\Generated_Source\PSoC4/CyLFClk.c ****         if (0u == countersEnableStatus)
 643              		.loc 1 802 0
 644 0014 DB07     		lsl	r3, r3, #31
 645 0016 05D4     		bmi	.L69
 803:.\Generated_Source\PSoC4/CyLFClk.c ****         {
 804:.\Generated_Source\PSoC4/CyLFClk.c ****             configRegValue = CY_SYS_WDT_CONFIG_REG;
 646              		.loc 1 804 0
 647 0018 044A     		ldr	r2, .L71+4
 805:.\Generated_Source\PSoC4/CyLFClk.c ****             configRegValue &= ((uint32)(~(CY_SYS_WDT_CASCADE_01|CY_SYS_WDT_CASCADE_12)));
 648              		.loc 1 805 0
 649 001a 054B     		ldr	r3, .L71+8
 804:.\Generated_Source\PSoC4/CyLFClk.c ****             configRegValue &= ((uint32)(~(CY_SYS_WDT_CASCADE_01|CY_SYS_WDT_CASCADE_12)));
 650              		.loc 1 804 0
 651 001c 1168     		ldr	r1, [r2]
 652              	.LVL54:
ARM GAS  C:\Users\Vit\AppData\Local\Temp\ccnJL0JJ.s 			page 27


 653              		.loc 1 805 0
 654 001e 0B40     		and	r3, r1
 655              	.LVL55:
 806:.\Generated_Source\PSoC4/CyLFClk.c ****             configRegValue |= cascadeMask;
 656              		.loc 1 806 0
 657 0020 1843     		orr	r0, r3
 658              	.LVL56:
 807:.\Generated_Source\PSoC4/CyLFClk.c ****             CY_SYS_WDT_CONFIG_REG = configRegValue;
 659              		.loc 1 807 0
 660 0022 1060     		str	r0, [r2]
 661              	.LVL57:
 662              	.L69:
 808:.\Generated_Source\PSoC4/CyLFClk.c ****         }
 809:.\Generated_Source\PSoC4/CyLFClk.c ****     }
 663              		.loc 1 809 0
 664              		@ sp needed
 665 0024 10BD     		pop	{r4, pc}
 666              	.L72:
 667 0026 C046     		.align	2
 668              	.L71:
 669 0028 10020B40 		.word	1074463248
 670 002c 0C020B40 		.word	1074463244
 671 0030 F7F7FFFF 		.word	-2057
 672              		.cfi_endproc
 673              	.LFE13:
 674              		.size	CySysWdtSetCascade, .-CySysWdtSetCascade
 675              		.section	.text.CySysWdtGetCascade,"ax",%progbits
 676              		.align	1
 677              		.global	CySysWdtGetCascade
 678              		.code	16
 679              		.thumb_func
 680              		.type	CySysWdtGetCascade, %function
 681              	CySysWdtGetCascade:
 682              	.LFB14:
 810:.\Generated_Source\PSoC4/CyLFClk.c **** 
 811:.\Generated_Source\PSoC4/CyLFClk.c **** 
 812:.\Generated_Source\PSoC4/CyLFClk.c ****     /*******************************************************************************
 813:.\Generated_Source\PSoC4/CyLFClk.c ****     * Function Name: CySysWdtGetCascade
 814:.\Generated_Source\PSoC4/CyLFClk.c ****     ********************************************************************************
 815:.\Generated_Source\PSoC4/CyLFClk.c ****     *
 816:.\Generated_Source\PSoC4/CyLFClk.c ****     * Summary:
 817:.\Generated_Source\PSoC4/CyLFClk.c ****     *   Reads the two WDT cascade values returning a mask of the bits set.
 818:.\Generated_Source\PSoC4/CyLFClk.c ****     *
 819:.\Generated_Source\PSoC4/CyLFClk.c ****     * Parameters:
 820:.\Generated_Source\PSoC4/CyLFClk.c ****     *   None.
 821:.\Generated_Source\PSoC4/CyLFClk.c ****     *
 822:.\Generated_Source\PSoC4/CyLFClk.c ****     * Return:
 823:.\Generated_Source\PSoC4/CyLFClk.c ****     *   The mask of the cascade values set.
 824:.\Generated_Source\PSoC4/CyLFClk.c ****     *   Define                     Cascade
 825:.\Generated_Source\PSoC4/CyLFClk.c ****     *   CY_SYS_WDT_CASCADE_NONE    Neither
 826:.\Generated_Source\PSoC4/CyLFClk.c ****     *   CY_SYS_WDT_CASCADE_01      Cascade 01
 827:.\Generated_Source\PSoC4/CyLFClk.c ****     *   CY_SYS_WDT_CASCADE_12      Cascade 12
 828:.\Generated_Source\PSoC4/CyLFClk.c ****     *
 829:.\Generated_Source\PSoC4/CyLFClk.c ****     *******************************************************************************/
 830:.\Generated_Source\PSoC4/CyLFClk.c ****     uint32 CySysWdtGetCascade(void)
 831:.\Generated_Source\PSoC4/CyLFClk.c ****     {
 683              		.loc 1 831 0
ARM GAS  C:\Users\Vit\AppData\Local\Temp\ccnJL0JJ.s 			page 28


 684              		.cfi_startproc
 832:.\Generated_Source\PSoC4/CyLFClk.c ****         return (CY_SYS_WDT_CONFIG_REG & (CY_SYS_WDT_CASCADE_01 | CY_SYS_WDT_CASCADE_12));
 685              		.loc 1 832 0
 686 0000 024B     		ldr	r3, .L74
 833:.\Generated_Source\PSoC4/CyLFClk.c ****     }
 687              		.loc 1 833 0
 688              		@ sp needed
 832:.\Generated_Source\PSoC4/CyLFClk.c ****         return (CY_SYS_WDT_CONFIG_REG & (CY_SYS_WDT_CASCADE_01 | CY_SYS_WDT_CASCADE_12));
 689              		.loc 1 832 0
 690 0002 1868     		ldr	r0, [r3]
 691 0004 024B     		ldr	r3, .L74+4
 692 0006 1840     		and	r0, r3
 693              		.loc 1 833 0
 694 0008 7047     		bx	lr
 695              	.L75:
 696 000a C046     		.align	2
 697              	.L74:
 698 000c 0C020B40 		.word	1074463244
 699 0010 08080000 		.word	2056
 700              		.cfi_endproc
 701              	.LFE14:
 702              		.size	CySysWdtGetCascade, .-CySysWdtGetCascade
 703              		.section	.text.CySysWdtSetMatch,"ax",%progbits
 704              		.align	1
 705              		.global	CySysWdtSetMatch
 706              		.code	16
 707              		.thumb_func
 708              		.type	CySysWdtSetMatch, %function
 709              	CySysWdtSetMatch:
 710              	.LFB15:
 834:.\Generated_Source\PSoC4/CyLFClk.c **** 
 835:.\Generated_Source\PSoC4/CyLFClk.c **** 
 836:.\Generated_Source\PSoC4/CyLFClk.c ****     /*******************************************************************************
 837:.\Generated_Source\PSoC4/CyLFClk.c ****     * Function Name: CySysWdtSetMatch
 838:.\Generated_Source\PSoC4/CyLFClk.c ****     ********************************************************************************
 839:.\Generated_Source\PSoC4/CyLFClk.c ****     *
 840:.\Generated_Source\PSoC4/CyLFClk.c ****     * Summary:
 841:.\Generated_Source\PSoC4/CyLFClk.c ****     *  Configures the WDT counter match comparison value.
 842:.\Generated_Source\PSoC4/CyLFClk.c ****     *
 843:.\Generated_Source\PSoC4/CyLFClk.c ****     * Parameters:
 844:.\Generated_Source\PSoC4/CyLFClk.c ****     *  counterNum:
 845:.\Generated_Source\PSoC4/CyLFClk.c ****     *   Valid range [0-1]. The number of the WDT counter. The match values are not
 846:.\Generated_Source\PSoC4/CyLFClk.c ****     *   supported by counter 2.
 847:.\Generated_Source\PSoC4/CyLFClk.c ****     *
 848:.\Generated_Source\PSoC4/CyLFClk.c ****     *  match:
 849:.\Generated_Source\PSoC4/CyLFClk.c ****     *   Valid range [0-65535]. The value to be used to match against the counter.
 850:.\Generated_Source\PSoC4/CyLFClk.c ****     *
 851:.\Generated_Source\PSoC4/CyLFClk.c ****     * Return:
 852:.\Generated_Source\PSoC4/CyLFClk.c ****     *   None.
 853:.\Generated_Source\PSoC4/CyLFClk.c ****     *
 854:.\Generated_Source\PSoC4/CyLFClk.c ****     *******************************************************************************/
 855:.\Generated_Source\PSoC4/CyLFClk.c ****     void CySysWdtSetMatch(uint32 counterNum, uint32 match)
 856:.\Generated_Source\PSoC4/CyLFClk.c ****     {
 711              		.loc 1 856 0
 712              		.cfi_startproc
 713              	.LVL58:
 714 0000 38B5     		push	{r3, r4, r5, lr}
ARM GAS  C:\Users\Vit\AppData\Local\Temp\ccnJL0JJ.s 			page 29


 715              		.cfi_def_cfa_offset 16
 716              		.cfi_offset 3, -16
 717              		.cfi_offset 4, -12
 718              		.cfi_offset 5, -8
 719              		.cfi_offset 14, -4
 720              		.loc 1 856 0
 721 0002 051C     		mov	r5, r0
 722 0004 0C1C     		mov	r4, r1
 857:.\Generated_Source\PSoC4/CyLFClk.c ****         uint32 regValue;
 858:.\Generated_Source\PSoC4/CyLFClk.c **** 
 859:.\Generated_Source\PSoC4/CyLFClk.c ****         CYASSERT((counterNum == CY_SYS_WDT_COUNTER0) ||
 723              		.loc 1 859 0
 724 0006 0128     		cmp	r0, #1
 725 0008 02D9     		bls	.L77
 726              		.loc 1 859 0 is_stmt 0 discriminator 1
 727 000a 0020     		mov	r0, #0
 728              	.LVL59:
 729 000c FFF7FEFF 		bl	CyHalt
 730              	.LVL60:
 731              	.L77:
 860:.\Generated_Source\PSoC4/CyLFClk.c ****                  (counterNum == CY_SYS_WDT_COUNTER1));
 861:.\Generated_Source\PSoC4/CyLFClk.c **** 
 862:.\Generated_Source\PSoC4/CyLFClk.c ****         /* Wait for previous changes to come into effect */
 863:.\Generated_Source\PSoC4/CyLFClk.c ****         CyDelayUs(CY_SYS_WDT_3LFCLK_DELAY_US);
 732              		.loc 1 863 0 is_stmt 1
 733 0010 C920     		mov	r0, #201
 734 0012 FFF7FEFF 		bl	CyDelayUs
 735              	.LVL61:
 864:.\Generated_Source\PSoC4/CyLFClk.c **** 
 865:.\Generated_Source\PSoC4/CyLFClk.c ****         regValue = CY_SYS_WDT_MATCH_REG;
 866:.\Generated_Source\PSoC4/CyLFClk.c ****         regValue &= (uint32)~((uint32)(CY_SYS_WDT_LOWER_16BITS_MASK << (counterNum * CY_SYS_WDT_CNT
 867:.\Generated_Source\PSoC4/CyLFClk.c ****         CY_SYS_WDT_MATCH_REG = (regValue | (match << (counterNum * CY_SYS_WDT_CNT_MATCH_SHIFT)));
 736              		.loc 1 867 0
 737 0016 201C     		mov	r0, r4
 866:.\Generated_Source\PSoC4/CyLFClk.c ****         CY_SYS_WDT_MATCH_REG = (regValue | (match << (counterNum * CY_SYS_WDT_CNT_MATCH_SHIFT)));
 738              		.loc 1 866 0
 739 0018 064A     		ldr	r2, .L78
 740 001a 2D01     		lsl	r5, r5, #4
 741              	.LVL62:
 742 001c AA40     		lsl	r2, r2, r5
 743              		.loc 1 867 0
 744 001e A840     		lsl	r0, r0, r5
 865:.\Generated_Source\PSoC4/CyLFClk.c ****         regValue &= (uint32)~((uint32)(CY_SYS_WDT_LOWER_16BITS_MASK << (counterNum * CY_SYS_WDT_CNT
 745              		.loc 1 865 0
 746 0020 0549     		ldr	r1, .L78+4
 868:.\Generated_Source\PSoC4/CyLFClk.c **** 
 869:.\Generated_Source\PSoC4/CyLFClk.c ****         /* Make sure match synchronization has started */
 870:.\Generated_Source\PSoC4/CyLFClk.c ****         CyDelayUs(CY_SYS_WDT_1LFCLK_DELAY_US);
 871:.\Generated_Source\PSoC4/CyLFClk.c ****     }
 747              		.loc 1 871 0
 748              		@ sp needed
 865:.\Generated_Source\PSoC4/CyLFClk.c ****         regValue &= (uint32)~((uint32)(CY_SYS_WDT_LOWER_16BITS_MASK << (counterNum * CY_SYS_WDT_CNT
 749              		.loc 1 865 0
 750 0022 0B68     		ldr	r3, [r1]
 751              	.LVL63:
 866:.\Generated_Source\PSoC4/CyLFClk.c ****         CY_SYS_WDT_MATCH_REG = (regValue | (match << (counterNum * CY_SYS_WDT_CNT_MATCH_SHIFT)));
 752              		.loc 1 866 0
ARM GAS  C:\Users\Vit\AppData\Local\Temp\ccnJL0JJ.s 			page 30


 753 0024 9343     		bic	r3, r2
 754              	.LVL64:
 867:.\Generated_Source\PSoC4/CyLFClk.c **** 
 755              		.loc 1 867 0
 756 0026 0343     		orr	r3, r0
 757              	.LVL65:
 758 0028 0B60     		str	r3, [r1]
 870:.\Generated_Source\PSoC4/CyLFClk.c ****     }
 759              		.loc 1 870 0
 760 002a 4320     		mov	r0, #67
 761 002c FFF7FEFF 		bl	CyDelayUs
 762              	.LVL66:
 763              	.LVL67:
 764              		.loc 1 871 0
 765 0030 38BD     		pop	{r3, r4, r5, pc}
 766              	.L79:
 767 0032 C046     		.align	2
 768              	.L78:
 769 0034 FFFF0000 		.word	65535
 770 0038 08020B40 		.word	1074463240
 771              		.cfi_endproc
 772              	.LFE15:
 773              		.size	CySysWdtSetMatch, .-CySysWdtSetMatch
 774              		.section	.text.CySysWdtSetToggleBit,"ax",%progbits
 775              		.align	1
 776              		.global	CySysWdtSetToggleBit
 777              		.code	16
 778              		.thumb_func
 779              		.type	CySysWdtSetToggleBit, %function
 780              	CySysWdtSetToggleBit:
 781              	.LFB16:
 872:.\Generated_Source\PSoC4/CyLFClk.c **** 
 873:.\Generated_Source\PSoC4/CyLFClk.c **** 
 874:.\Generated_Source\PSoC4/CyLFClk.c ****     /*******************************************************************************
 875:.\Generated_Source\PSoC4/CyLFClk.c ****     * Function Name: CySysWdtSetToggleBit
 876:.\Generated_Source\PSoC4/CyLFClk.c ****     ********************************************************************************
 877:.\Generated_Source\PSoC4/CyLFClk.c ****     *
 878:.\Generated_Source\PSoC4/CyLFClk.c ****     * Summary:
 879:.\Generated_Source\PSoC4/CyLFClk.c ****     *  Configures which bit in WDT counter 2 to monitor for a toggle. When that
 880:.\Generated_Source\PSoC4/CyLFClk.c ****     *  bit toggles, an interrupt is generated if the mode for counter 2 has
 881:.\Generated_Source\PSoC4/CyLFClk.c ****     *  enabled interrupts.
 882:.\Generated_Source\PSoC4/CyLFClk.c ****     *
 883:.\Generated_Source\PSoC4/CyLFClk.c ****     * Parameters:
 884:.\Generated_Source\PSoC4/CyLFClk.c ****     *  bit:
 885:.\Generated_Source\PSoC4/CyLFClk.c ****     *   Valid range [0-31].  Counter 2 bit to monitor for a toggle.
 886:.\Generated_Source\PSoC4/CyLFClk.c ****     *
 887:.\Generated_Source\PSoC4/CyLFClk.c ****     * Return:
 888:.\Generated_Source\PSoC4/CyLFClk.c ****     *   None.
 889:.\Generated_Source\PSoC4/CyLFClk.c ****     *
 890:.\Generated_Source\PSoC4/CyLFClk.c ****     * Side effects:
 891:.\Generated_Source\PSoC4/CyLFClk.c ****     *   WDT Counter 2 should be disabled. Otherwise this function call has no
 892:.\Generated_Source\PSoC4/CyLFClk.c ****     *   effect.
 893:.\Generated_Source\PSoC4/CyLFClk.c ****     *
 894:.\Generated_Source\PSoC4/CyLFClk.c ****     *   If the specified counter is enabled, call the CySysWdtDisable() function with
 895:.\Generated_Source\PSoC4/CyLFClk.c ****     *   the corresponding parameter to disable the specified counter and wait for it to
 896:.\Generated_Source\PSoC4/CyLFClk.c ****     *   stop. This may take up to 3 LFCLK cycles.
 897:.\Generated_Source\PSoC4/CyLFClk.c ****     *
ARM GAS  C:\Users\Vit\AppData\Local\Temp\ccnJL0JJ.s 			page 31


 898:.\Generated_Source\PSoC4/CyLFClk.c ****     *******************************************************************************/
 899:.\Generated_Source\PSoC4/CyLFClk.c ****     void CySysWdtSetToggleBit(uint32 bits)
 900:.\Generated_Source\PSoC4/CyLFClk.c ****     {
 782              		.loc 1 900 0
 783              		.cfi_startproc
 784              	.LVL68:
 785              	.LBB60:
 786              	.LBB61:
 496:.\Generated_Source\PSoC4/CyLFClk.c ****     }
 787              		.loc 1 496 0
 788 0000 064B     		ldr	r3, .L82
 789 0002 1B68     		ldr	r3, [r3]
 790              	.LBE61:
 791              	.LBE60:
 901:.\Generated_Source\PSoC4/CyLFClk.c ****         uint32 configRegValue;
 902:.\Generated_Source\PSoC4/CyLFClk.c **** 
 903:.\Generated_Source\PSoC4/CyLFClk.c ****         if (0u == CySysWdtGetEnabledStatus(CY_SYS_WDT_COUNTER2))
 792              		.loc 1 903 0
 793 0004 9B03     		lsl	r3, r3, #14
 794 0006 08D4     		bmi	.L80
 904:.\Generated_Source\PSoC4/CyLFClk.c ****         {
 905:.\Generated_Source\PSoC4/CyLFClk.c ****             configRegValue = CY_SYS_WDT_CONFIG_REG;
 795              		.loc 1 905 0
 796 0008 0549     		ldr	r1, .L82+4
 906:.\Generated_Source\PSoC4/CyLFClk.c ****             configRegValue &= (uint32)(~((uint32)(CY_SYS_WDT_CONFIG_BITS2_MASK << CY_SYS_WDT_CONFIG
 797              		.loc 1 906 0
 798 000a 064B     		ldr	r3, .L82+8
 905:.\Generated_Source\PSoC4/CyLFClk.c ****             configRegValue &= (uint32)(~((uint32)(CY_SYS_WDT_CONFIG_BITS2_MASK << CY_SYS_WDT_CONFIG
 799              		.loc 1 905 0
 800 000c 0A68     		ldr	r2, [r1]
 801              	.LVL69:
 802              		.loc 1 906 0
 803 000e 1340     		and	r3, r2
 804              	.LVL70:
 907:.\Generated_Source\PSoC4/CyLFClk.c ****             configRegValue |= ((bits & CY_SYS_WDT_CONFIG_BITS2_MASK) << CY_SYS_WDT_CONFIG_BITS2_POS
 805              		.loc 1 907 0
 806 0010 1F22     		mov	r2, #31
 807 0012 1040     		and	r0, r2
 808              	.LVL71:
 809 0014 0006     		lsl	r0, r0, #24
 810 0016 1843     		orr	r0, r3
 811              	.LVL72:
 908:.\Generated_Source\PSoC4/CyLFClk.c ****             CY_SYS_WDT_CONFIG_REG = configRegValue;
 812              		.loc 1 908 0
 813 0018 0860     		str	r0, [r1]
 814              	.LVL73:
 815              	.L80:
 909:.\Generated_Source\PSoC4/CyLFClk.c ****         }
 910:.\Generated_Source\PSoC4/CyLFClk.c ****     }
 816              		.loc 1 910 0
 817              		@ sp needed
 818 001a 7047     		bx	lr
 819              	.L83:
 820              		.align	2
 821              	.L82:
 822 001c 10020B40 		.word	1074463248
 823 0020 0C020B40 		.word	1074463244
ARM GAS  C:\Users\Vit\AppData\Local\Temp\ccnJL0JJ.s 			page 32


 824 0024 FFFFFFE0 		.word	-520093697
 825              		.cfi_endproc
 826              	.LFE16:
 827              		.size	CySysWdtSetToggleBit, .-CySysWdtSetToggleBit
 828              		.section	.text.CySysWdtGetToggleBit,"ax",%progbits
 829              		.align	1
 830              		.global	CySysWdtGetToggleBit
 831              		.code	16
 832              		.thumb_func
 833              		.type	CySysWdtGetToggleBit, %function
 834              	CySysWdtGetToggleBit:
 835              	.LFB17:
 911:.\Generated_Source\PSoC4/CyLFClk.c **** 
 912:.\Generated_Source\PSoC4/CyLFClk.c **** 
 913:.\Generated_Source\PSoC4/CyLFClk.c ****     /*******************************************************************************
 914:.\Generated_Source\PSoC4/CyLFClk.c ****     * Function Name: CySysWdtGetToggleBit
 915:.\Generated_Source\PSoC4/CyLFClk.c ****     ********************************************************************************
 916:.\Generated_Source\PSoC4/CyLFClk.c ****     *
 917:.\Generated_Source\PSoC4/CyLFClk.c ****     * Summary:
 918:.\Generated_Source\PSoC4/CyLFClk.c ****     *  Reads which bit in WDT counter 2 is monitored for a toggle.
 919:.\Generated_Source\PSoC4/CyLFClk.c ****     *
 920:.\Generated_Source\PSoC4/CyLFClk.c ****     * Parameters:
 921:.\Generated_Source\PSoC4/CyLFClk.c ****     *  None.
 922:.\Generated_Source\PSoC4/CyLFClk.c ****     *
 923:.\Generated_Source\PSoC4/CyLFClk.c ****     * Return:
 924:.\Generated_Source\PSoC4/CyLFClk.c ****     *  The bit that is monitored (range of 0 to 31)
 925:.\Generated_Source\PSoC4/CyLFClk.c ****     *
 926:.\Generated_Source\PSoC4/CyLFClk.c ****     *******************************************************************************/
 927:.\Generated_Source\PSoC4/CyLFClk.c ****     uint32 CySysWdtGetToggleBit(void)
 928:.\Generated_Source\PSoC4/CyLFClk.c ****     {
 836              		.loc 1 928 0
 837              		.cfi_startproc
 929:.\Generated_Source\PSoC4/CyLFClk.c ****         return ((CY_SYS_WDT_CONFIG_REG >> CY_SYS_WDT_CONFIG_BITS2_POS) & CY_SYS_WDT_CONFIG_BITS2_MA
 838              		.loc 1 929 0
 839 0000 024B     		ldr	r3, .L85
 930:.\Generated_Source\PSoC4/CyLFClk.c ****     }
 840              		.loc 1 930 0
 841              		@ sp needed
 929:.\Generated_Source\PSoC4/CyLFClk.c ****         return ((CY_SYS_WDT_CONFIG_REG >> CY_SYS_WDT_CONFIG_BITS2_POS) & CY_SYS_WDT_CONFIG_BITS2_MA
 842              		.loc 1 929 0
 843 0002 1868     		ldr	r0, [r3]
 844 0004 C000     		lsl	r0, r0, #3
 845 0006 C00E     		lsr	r0, r0, #27
 846              		.loc 1 930 0
 847 0008 7047     		bx	lr
 848              	.L86:
 849 000a C046     		.align	2
 850              	.L85:
 851 000c 0C020B40 		.word	1074463244
 852              		.cfi_endproc
 853              	.LFE17:
 854              		.size	CySysWdtGetToggleBit, .-CySysWdtGetToggleBit
 855              		.section	.text.CySysWdtGetMatch,"ax",%progbits
 856              		.align	1
 857              		.global	CySysWdtGetMatch
 858              		.code	16
 859              		.thumb_func
ARM GAS  C:\Users\Vit\AppData\Local\Temp\ccnJL0JJ.s 			page 33


 860              		.type	CySysWdtGetMatch, %function
 861              	CySysWdtGetMatch:
 862              	.LFB18:
 931:.\Generated_Source\PSoC4/CyLFClk.c **** 
 932:.\Generated_Source\PSoC4/CyLFClk.c **** 
 933:.\Generated_Source\PSoC4/CyLFClk.c ****     /*******************************************************************************
 934:.\Generated_Source\PSoC4/CyLFClk.c ****     * Function Name: CySysWdtGetMatch
 935:.\Generated_Source\PSoC4/CyLFClk.c ****     ********************************************************************************
 936:.\Generated_Source\PSoC4/CyLFClk.c ****     *
 937:.\Generated_Source\PSoC4/CyLFClk.c ****     * Summary:
 938:.\Generated_Source\PSoC4/CyLFClk.c ****     *  Reads the WDT counter match comparison value.
 939:.\Generated_Source\PSoC4/CyLFClk.c ****     *
 940:.\Generated_Source\PSoC4/CyLFClk.c ****     * Parameters:
 941:.\Generated_Source\PSoC4/CyLFClk.c ****     *  counterNum: Valid range [0-1].  The number of the WDT counter.  The match values
 942:.\Generated_Source\PSoC4/CyLFClk.c ****     *               are not supported by counter 2.
 943:.\Generated_Source\PSoC4/CyLFClk.c ****     *
 944:.\Generated_Source\PSoC4/CyLFClk.c ****     * Return:
 945:.\Generated_Source\PSoC4/CyLFClk.c ****     *  A 16-bit match value.
 946:.\Generated_Source\PSoC4/CyLFClk.c ****     *
 947:.\Generated_Source\PSoC4/CyLFClk.c ****     *******************************************************************************/
 948:.\Generated_Source\PSoC4/CyLFClk.c ****     uint32 CySysWdtGetMatch(uint32 counterNum)
 949:.\Generated_Source\PSoC4/CyLFClk.c ****     {
 863              		.loc 1 949 0
 864              		.cfi_startproc
 865              	.LVL74:
 866 0000 10B5     		push	{r4, lr}
 867              		.cfi_def_cfa_offset 8
 868              		.cfi_offset 4, -8
 869              		.cfi_offset 14, -4
 870              		.loc 1 949 0
 871 0002 041E     		sub	r4, r0, #0
 950:.\Generated_Source\PSoC4/CyLFClk.c ****         CYASSERT((counterNum == CY_SYS_WDT_COUNTER0) ||
 872              		.loc 1 950 0
 873 0004 012C     		cmp	r4, #1
 874 0006 02D9     		bls	.L88
 875              		.loc 1 950 0 is_stmt 0 discriminator 1
 876 0008 0020     		mov	r0, #0
 877              	.LVL75:
 878 000a FFF7FEFF 		bl	CyHalt
 879              	.LVL76:
 880              	.L88:
 951:.\Generated_Source\PSoC4/CyLFClk.c ****                  (counterNum == CY_SYS_WDT_COUNTER1));
 952:.\Generated_Source\PSoC4/CyLFClk.c **** 
 953:.\Generated_Source\PSoC4/CyLFClk.c ****         return ((uint32)(CY_SYS_WDT_MATCH_REG >> (counterNum * CY_SYS_WDT_CNT_MATCH_SHIFT)) & CY_SY
 881              		.loc 1 953 0 is_stmt 1
 882 000e 034B     		ldr	r3, .L89
 883 0010 2401     		lsl	r4, r4, #4
 884              	.LVL77:
 885 0012 1B68     		ldr	r3, [r3]
 954:.\Generated_Source\PSoC4/CyLFClk.c ****     }
 886              		.loc 1 954 0
 887              		@ sp needed
 953:.\Generated_Source\PSoC4/CyLFClk.c ****     }
 888              		.loc 1 953 0
 889 0014 E340     		lsr	r3, r3, r4
 890 0016 98B2     		uxth	r0, r3
 891              		.loc 1 954 0
ARM GAS  C:\Users\Vit\AppData\Local\Temp\ccnJL0JJ.s 			page 34


 892 0018 10BD     		pop	{r4, pc}
 893              	.L90:
 894 001a C046     		.align	2
 895              	.L89:
 896 001c 08020B40 		.word	1074463240
 897              		.cfi_endproc
 898              	.LFE18:
 899              		.size	CySysWdtGetMatch, .-CySysWdtGetMatch
 900              		.section	.text.CySysWdtGetCount,"ax",%progbits
 901              		.align	1
 902              		.global	CySysWdtGetCount
 903              		.code	16
 904              		.thumb_func
 905              		.type	CySysWdtGetCount, %function
 906              	CySysWdtGetCount:
 907              	.LFB19:
 955:.\Generated_Source\PSoC4/CyLFClk.c **** 
 956:.\Generated_Source\PSoC4/CyLFClk.c **** 
 957:.\Generated_Source\PSoC4/CyLFClk.c ****     /*******************************************************************************
 958:.\Generated_Source\PSoC4/CyLFClk.c ****     * Function Name: CySysWdtGetCount
 959:.\Generated_Source\PSoC4/CyLFClk.c ****     ********************************************************************************
 960:.\Generated_Source\PSoC4/CyLFClk.c ****     *
 961:.\Generated_Source\PSoC4/CyLFClk.c ****     * Summary:
 962:.\Generated_Source\PSoC4/CyLFClk.c ****     *  Reads the current WDT counter value.
 963:.\Generated_Source\PSoC4/CyLFClk.c ****     *
 964:.\Generated_Source\PSoC4/CyLFClk.c ****     * Parameters:
 965:.\Generated_Source\PSoC4/CyLFClk.c ****     *  counterNum: Valid range [0-2].  The number of the WDT counter.
 966:.\Generated_Source\PSoC4/CyLFClk.c ****     *
 967:.\Generated_Source\PSoC4/CyLFClk.c ****     * Return:
 968:.\Generated_Source\PSoC4/CyLFClk.c ****     *  A live counter value.  Counter 0 and 1 are 16 bit counters and counter
 969:.\Generated_Source\PSoC4/CyLFClk.c ****     *  2 is a 32 bit counter.
 970:.\Generated_Source\PSoC4/CyLFClk.c ****     *
 971:.\Generated_Source\PSoC4/CyLFClk.c ****     *******************************************************************************/
 972:.\Generated_Source\PSoC4/CyLFClk.c ****     uint32 CySysWdtGetCount(uint32 counterNum)
 973:.\Generated_Source\PSoC4/CyLFClk.c ****     {
 908              		.loc 1 973 0
 909              		.cfi_startproc
 910              	.LVL78:
 911 0000 08B5     		push	{r3, lr}
 912              		.cfi_def_cfa_offset 8
 913              		.cfi_offset 3, -8
 914              		.cfi_offset 14, -4
 974:.\Generated_Source\PSoC4/CyLFClk.c ****         uint32 regValue = 0u;
 975:.\Generated_Source\PSoC4/CyLFClk.c **** 
 976:.\Generated_Source\PSoC4/CyLFClk.c ****         switch(counterNum)
 915              		.loc 1 976 0
 916 0002 0128     		cmp	r0, #1
 917 0004 0AD0     		beq	.L93
 918 0006 0028     		cmp	r0, #0
 919 0008 04D0     		beq	.L94
 920 000a 0228     		cmp	r0, #2
 921 000c 0AD1     		bne	.L98
 977:.\Generated_Source\PSoC4/CyLFClk.c ****         {
 978:.\Generated_Source\PSoC4/CyLFClk.c ****             /* WDT Counter 0 */
 979:.\Generated_Source\PSoC4/CyLFClk.c ****             case 0u:
 980:.\Generated_Source\PSoC4/CyLFClk.c ****                 regValue = CY_SYS_WDT_CTRLOW_REG & CY_SYS_WDT_LOWER_16BITS_MASK;
 981:.\Generated_Source\PSoC4/CyLFClk.c ****             break;
ARM GAS  C:\Users\Vit\AppData\Local\Temp\ccnJL0JJ.s 			page 35


 982:.\Generated_Source\PSoC4/CyLFClk.c **** 
 983:.\Generated_Source\PSoC4/CyLFClk.c ****             /* WDT Counter 1 */
 984:.\Generated_Source\PSoC4/CyLFClk.c ****             case 1u:
 985:.\Generated_Source\PSoC4/CyLFClk.c ****                 regValue = (CY_SYS_WDT_CTRLOW_REG >> CY_SYS_WDT_CNT_MATCH_SHIFT) & CY_SYS_WDT_LOWER
 986:.\Generated_Source\PSoC4/CyLFClk.c ****             break;
 987:.\Generated_Source\PSoC4/CyLFClk.c **** 
 988:.\Generated_Source\PSoC4/CyLFClk.c ****             /* WDT Counter 2 */
 989:.\Generated_Source\PSoC4/CyLFClk.c ****             case 2u:
 990:.\Generated_Source\PSoC4/CyLFClk.c ****                 regValue = CY_SYS_WDT_CTRHIGH_REG;
 922              		.loc 1 990 0
 923 000e 084B     		ldr	r3, .L99
 924 0010 1868     		ldr	r0, [r3]
 925              	.LVL79:
 991:.\Generated_Source\PSoC4/CyLFClk.c ****             break;
 926              		.loc 1 991 0
 927 0012 0BE0     		b	.L96
 928              	.LVL80:
 929              	.L94:
 980:.\Generated_Source\PSoC4/CyLFClk.c ****             break;
 930              		.loc 1 980 0
 931 0014 074B     		ldr	r3, .L99+4
 932 0016 1868     		ldr	r0, [r3]
 933              	.LVL81:
 934 0018 80B2     		uxth	r0, r0
 935              	.LVL82:
 981:.\Generated_Source\PSoC4/CyLFClk.c **** 
 936              		.loc 1 981 0
 937 001a 07E0     		b	.L96
 938              	.LVL83:
 939              	.L93:
 985:.\Generated_Source\PSoC4/CyLFClk.c ****             break;
 940              		.loc 1 985 0
 941 001c 054B     		ldr	r3, .L99+4
 942 001e 1868     		ldr	r0, [r3]
 943              	.LVL84:
 944 0020 000C     		lsr	r0, r0, #16
 945              	.LVL85:
 986:.\Generated_Source\PSoC4/CyLFClk.c **** 
 946              		.loc 1 986 0
 947 0022 03E0     		b	.L96
 948              	.LVL86:
 949              	.L98:
 992:.\Generated_Source\PSoC4/CyLFClk.c **** 
 993:.\Generated_Source\PSoC4/CyLFClk.c ****             default:
 994:.\Generated_Source\PSoC4/CyLFClk.c ****                 CYASSERT(0u != 0u);
 950              		.loc 1 994 0 discriminator 1
 951 0024 0020     		mov	r0, #0
 952              	.LVL87:
 953 0026 FFF7FEFF 		bl	CyHalt
 954              	.LVL88:
 974:.\Generated_Source\PSoC4/CyLFClk.c **** 
 955              		.loc 1 974 0 discriminator 1
 956 002a 0020     		mov	r0, #0
 957              	.LVL89:
 958              	.L96:
 995:.\Generated_Source\PSoC4/CyLFClk.c ****             break;
 996:.\Generated_Source\PSoC4/CyLFClk.c ****         }
ARM GAS  C:\Users\Vit\AppData\Local\Temp\ccnJL0JJ.s 			page 36


 997:.\Generated_Source\PSoC4/CyLFClk.c **** 
 998:.\Generated_Source\PSoC4/CyLFClk.c ****         return (regValue);
 999:.\Generated_Source\PSoC4/CyLFClk.c ****     }
 959              		.loc 1 999 0
 960              		@ sp needed
 961 002c 08BD     		pop	{r3, pc}
 962              	.L100:
 963 002e C046     		.align	2
 964              	.L99:
 965 0030 04020B40 		.word	1074463236
 966 0034 00020B40 		.word	1074463232
 967              		.cfi_endproc
 968              	.LFE19:
 969              		.size	CySysWdtGetCount, .-CySysWdtGetCount
 970              		.section	.text.CySysClkIloStop,"ax",%progbits
 971              		.align	1
 972              		.global	CySysClkIloStop
 973              		.code	16
 974              		.thumb_func
 975              		.type	CySysClkIloStop, %function
 976              	CySysClkIloStop:
 977              	.LFB1:
  97:.\Generated_Source\PSoC4/CyLFClk.c ****     #if(CY_IP_SRSSV2)
 978              		.loc 1 97 0
 979              		.cfi_startproc
 980              	.LBB78:
 981              	.LBB79:
 437:.\Generated_Source\PSoC4/CyLFClk.c ****     }
 982              		.loc 1 437 0
 983 0000 274B     		ldr	r3, .L118
 984              	.LBE79:
 985              	.LBE78:
  97:.\Generated_Source\PSoC4/CyLFClk.c ****     #if(CY_IP_SRSSV2)
 986              		.loc 1 97 0
 987 0002 F7B5     		push	{r0, r1, r2, r4, r5, r6, r7, lr}
 988              		.cfi_def_cfa_offset 32
 989              		.cfi_offset 0, -32
 990              		.cfi_offset 1, -28
 991              		.cfi_offset 2, -24
 992              		.cfi_offset 4, -20
 993              		.cfi_offset 5, -16
 994              		.cfi_offset 6, -12
 995              		.cfi_offset 7, -8
 996              		.cfi_offset 14, -4
 997              	.LBB81:
 998              	.LBB80:
 437:.\Generated_Source\PSoC4/CyLFClk.c ****     }
 999              		.loc 1 437 0
 1000 0004 1A68     		ldr	r2, [r3]
 1001 0006 C023     		mov	r3, #192
 1002 0008 1B02     		lsl	r3, r3, #8
 1003 000a 1A40     		and	r2, r3
 1004 000c 0092     		str	r2, [sp]
 1005 000e 45D1     		bne	.L101
 1006              	.LBE80:
 1007              	.LBE81:
 1008              	.LBB82:
ARM GAS  C:\Users\Vit\AppData\Local\Temp\ccnJL0JJ.s 			page 37


 1009              	.LBB83:
 151:.\Generated_Source\PSoC4/CyLFClk.c ****             (uint32) 1u :
 1010              		.loc 1 151 0
 1011 0010 244F     		ldr	r7, .L118+4
 1012 0012 3B68     		ldr	r3, [r7]
 152:.\Generated_Source\PSoC4/CyLFClk.c ****             (uint32) 0u);
 1013              		.loc 1 152 0
 1014 0014 002B     		cmp	r3, #0
 1015 0016 41DA     		bge	.L101
 1016              	.LBE83:
 1017              	.LBE82:
 112:.\Generated_Source\PSoC4/CyLFClk.c ****                 CySysClkLfclkPosedgeCatch();
 1018              		.loc 1 112 0
 1019 0018 FFF7FEFF 		bl	CyEnterCriticalSection
 1020              	.LVL90:
 1021              	.LBB84:
 1022              	.LBB85:
 1023              	.LBB86:
 1024              	.LBB87:
 496:.\Generated_Source\PSoC4/CyLFClk.c ****     }
 1025              		.loc 1 496 0
 1026 001c 224D     		ldr	r5, .L118+8
 1027              	.LBE87:
 1028              	.LBE86:
 1029              	.LBE85:
 1030              	.LBE84:
 112:.\Generated_Source\PSoC4/CyLFClk.c ****                 CySysClkLfclkPosedgeCatch();
 1031              		.loc 1 112 0
 1032 001e 0190     		str	r0, [sp, #4]
 1033              	.LVL91:
 1034              	.LBB101:
 1035              	.LBB100:
 1036              	.LBB89:
 1037              	.LBB88:
 496:.\Generated_Source\PSoC4/CyLFClk.c ****     }
 1038              		.loc 1 496 0
 1039 0020 2B68     		ldr	r3, [r5]
 1040 0022 0126     		mov	r6, #1
 1041 0024 214C     		ldr	r4, .L118+12
 1042              	.LBE88:
 1043              	.LBE89:
1000:.\Generated_Source\PSoC4/CyLFClk.c **** 
1001:.\Generated_Source\PSoC4/CyLFClk.c **** 
1002:.\Generated_Source\PSoC4/CyLFClk.c ****     /*******************************************************************************
1003:.\Generated_Source\PSoC4/CyLFClk.c ****     * Function Name: CySysWdtGetInterruptSource
1004:.\Generated_Source\PSoC4/CyLFClk.c ****     ********************************************************************************
1005:.\Generated_Source\PSoC4/CyLFClk.c ****     *
1006:.\Generated_Source\PSoC4/CyLFClk.c ****     * Summary:
1007:.\Generated_Source\PSoC4/CyLFClk.c ****     *   Reads a mask containing all the WDT counters interrupts that are currently
1008:.\Generated_Source\PSoC4/CyLFClk.c ****     *   set by the hardware, if a corresponding mode is selected.
1009:.\Generated_Source\PSoC4/CyLFClk.c ****     *
1010:.\Generated_Source\PSoC4/CyLFClk.c ****     * Parameters:
1011:.\Generated_Source\PSoC4/CyLFClk.c ****     *   None.
1012:.\Generated_Source\PSoC4/CyLFClk.c ****     *
1013:.\Generated_Source\PSoC4/CyLFClk.c ****     * Return:
1014:.\Generated_Source\PSoC4/CyLFClk.c ****     *   The mask of interrupts set.
1015:.\Generated_Source\PSoC4/CyLFClk.c ****     *   Define                    Counter
ARM GAS  C:\Users\Vit\AppData\Local\Temp\ccnJL0JJ.s 			page 38


1016:.\Generated_Source\PSoC4/CyLFClk.c ****     *   CY_SYS_WDT_COUNTER0_INT    0
1017:.\Generated_Source\PSoC4/CyLFClk.c ****     *   CY_SYS_WDT_COUNTER1_INT    1
1018:.\Generated_Source\PSoC4/CyLFClk.c ****     *   CY_SYS_WDT_COUNTER2_INT    2
1019:.\Generated_Source\PSoC4/CyLFClk.c ****     *
1020:.\Generated_Source\PSoC4/CyLFClk.c ****     *******************************************************************************/
1021:.\Generated_Source\PSoC4/CyLFClk.c ****     uint32 CySysWdtGetInterruptSource(void)
1022:.\Generated_Source\PSoC4/CyLFClk.c ****     {
1023:.\Generated_Source\PSoC4/CyLFClk.c ****         return (CY_SYS_WDT_CONTROL_REG & (CY_SYS_WDT_COUNTER0_INT | CY_SYS_WDT_COUNTER1_INT | CY_SY
1024:.\Generated_Source\PSoC4/CyLFClk.c ****     }
1025:.\Generated_Source\PSoC4/CyLFClk.c **** 
1026:.\Generated_Source\PSoC4/CyLFClk.c **** 
1027:.\Generated_Source\PSoC4/CyLFClk.c ****     /*******************************************************************************
1028:.\Generated_Source\PSoC4/CyLFClk.c ****     * Function Name: CySysWdtClearInterrupt
1029:.\Generated_Source\PSoC4/CyLFClk.c ****     ********************************************************************************
1030:.\Generated_Source\PSoC4/CyLFClk.c ****     *
1031:.\Generated_Source\PSoC4/CyLFClk.c ****     * Summary:
1032:.\Generated_Source\PSoC4/CyLFClk.c ****     *   Clears all the WDT counter interrupts set in the mask. Calling this function
1033:.\Generated_Source\PSoC4/CyLFClk.c ****     *   also prevents from Reset when the counter mode is set to generate
1034:.\Generated_Source\PSoC4/CyLFClk.c ****     *   3 interrupts and then the device resets.
1035:.\Generated_Source\PSoC4/CyLFClk.c ****     *
1036:.\Generated_Source\PSoC4/CyLFClk.c ****     *   All the WDT interrupts are to be cleared by the firmware, otherwise
1037:.\Generated_Source\PSoC4/CyLFClk.c ****     *   interrupts are generated continuously.
1038:.\Generated_Source\PSoC4/CyLFClk.c ****     *
1039:.\Generated_Source\PSoC4/CyLFClk.c ****     * Parameters:
1040:.\Generated_Source\PSoC4/CyLFClk.c ****     *   counterMask: The mask of all the counters to enable.
1041:.\Generated_Source\PSoC4/CyLFClk.c ****     *   Define                    Counter
1042:.\Generated_Source\PSoC4/CyLFClk.c ****     *   CY_SYS_WDT_COUNTER0_INT    0
1043:.\Generated_Source\PSoC4/CyLFClk.c ****     *   CY_SYS_WDT_COUNTER1_INT    1
1044:.\Generated_Source\PSoC4/CyLFClk.c ****     *   CY_SYS_WDT_COUNTER2_INT    2
1045:.\Generated_Source\PSoC4/CyLFClk.c ****     *
1046:.\Generated_Source\PSoC4/CyLFClk.c ****     * Return:
1047:.\Generated_Source\PSoC4/CyLFClk.c ****     *   None
1048:.\Generated_Source\PSoC4/CyLFClk.c ****     *
1049:.\Generated_Source\PSoC4/CyLFClk.c ****     * Side effects:
1050:.\Generated_Source\PSoC4/CyLFClk.c ****     *   This function temporary removes the watchdog lock, if it was set, and
1051:.\Generated_Source\PSoC4/CyLFClk.c ****     *   restores the lock state after cleaning the WDT interrupts that are set in
1052:.\Generated_Source\PSoC4/CyLFClk.c ****     *   a mask.
1053:.\Generated_Source\PSoC4/CyLFClk.c ****     *
1054:.\Generated_Source\PSoC4/CyLFClk.c ****     *******************************************************************************/
1055:.\Generated_Source\PSoC4/CyLFClk.c ****     void CySysWdtClearInterrupt(uint32 counterMask)
1056:.\Generated_Source\PSoC4/CyLFClk.c ****     {
1057:.\Generated_Source\PSoC4/CyLFClk.c ****         uint8 interruptState;
1058:.\Generated_Source\PSoC4/CyLFClk.c ****         uint32 wdtLockState;
1059:.\Generated_Source\PSoC4/CyLFClk.c **** 
1060:.\Generated_Source\PSoC4/CyLFClk.c ****         interruptState = CyEnterCriticalSection();
1061:.\Generated_Source\PSoC4/CyLFClk.c **** 
1062:.\Generated_Source\PSoC4/CyLFClk.c ****         if (0u != CySysWdtLocked())
1063:.\Generated_Source\PSoC4/CyLFClk.c ****         {
1064:.\Generated_Source\PSoC4/CyLFClk.c ****             wdtLockState = 1u;
1065:.\Generated_Source\PSoC4/CyLFClk.c ****             CySysWdtUnlock();
1066:.\Generated_Source\PSoC4/CyLFClk.c ****         }
1067:.\Generated_Source\PSoC4/CyLFClk.c ****         else
1068:.\Generated_Source\PSoC4/CyLFClk.c ****         {
1069:.\Generated_Source\PSoC4/CyLFClk.c ****             wdtLockState = 0u;
1070:.\Generated_Source\PSoC4/CyLFClk.c ****         }
1071:.\Generated_Source\PSoC4/CyLFClk.c **** 
1072:.\Generated_Source\PSoC4/CyLFClk.c ****         /* Set new WDT control register value */
ARM GAS  C:\Users\Vit\AppData\Local\Temp\ccnJL0JJ.s 			page 39


1073:.\Generated_Source\PSoC4/CyLFClk.c ****         counterMask &= (CY_SYS_WDT_COUNTER0_INT |
1074:.\Generated_Source\PSoC4/CyLFClk.c ****                         CY_SYS_WDT_COUNTER1_INT |
1075:.\Generated_Source\PSoC4/CyLFClk.c ****                         CY_SYS_WDT_COUNTER2_INT);
1076:.\Generated_Source\PSoC4/CyLFClk.c **** 
1077:.\Generated_Source\PSoC4/CyLFClk.c ****         CY_SYS_WDT_CONTROL_REG = counterMask | (CY_SYS_WDT_CONTROL_REG & ~(CY_SYS_WDT_COUNTER0_INT 
1078:.\Generated_Source\PSoC4/CyLFClk.c ****                                                                            CY_SYS_WDT_COUNTER1_INT 
1079:.\Generated_Source\PSoC4/CyLFClk.c ****                                                                            CY_SYS_WDT_COUNTER2_INT)
1080:.\Generated_Source\PSoC4/CyLFClk.c **** 
1081:.\Generated_Source\PSoC4/CyLFClk.c ****         /* Read the CY_SYS_WDT_CONTROL_REG to clear the interrupt request.
1082:.\Generated_Source\PSoC4/CyLFClk.c ****          * Cypress ID #207093, #206231
1083:.\Generated_Source\PSoC4/CyLFClk.c ****         */
1084:.\Generated_Source\PSoC4/CyLFClk.c ****         (void)CY_SYS_WDT_CONTROL_REG;
1085:.\Generated_Source\PSoC4/CyLFClk.c **** 
1086:.\Generated_Source\PSoC4/CyLFClk.c ****         if (1u == wdtLockState)
1087:.\Generated_Source\PSoC4/CyLFClk.c ****         {
1088:.\Generated_Source\PSoC4/CyLFClk.c ****             CySysWdtLock();
1089:.\Generated_Source\PSoC4/CyLFClk.c ****         }
1090:.\Generated_Source\PSoC4/CyLFClk.c **** 
1091:.\Generated_Source\PSoC4/CyLFClk.c ****         CyExitCriticalSection(interruptState);
1092:.\Generated_Source\PSoC4/CyLFClk.c ****     }
1093:.\Generated_Source\PSoC4/CyLFClk.c **** 
1094:.\Generated_Source\PSoC4/CyLFClk.c **** 
1095:.\Generated_Source\PSoC4/CyLFClk.c ****     /*******************************************************************************
1096:.\Generated_Source\PSoC4/CyLFClk.c ****     * Function Name: CySysWdtResetCounters
1097:.\Generated_Source\PSoC4/CyLFClk.c ****     ********************************************************************************
1098:.\Generated_Source\PSoC4/CyLFClk.c ****     *
1099:.\Generated_Source\PSoC4/CyLFClk.c ****     * Summary:
1100:.\Generated_Source\PSoC4/CyLFClk.c ****     *  Resets all the WDT counters set in the mask.
1101:.\Generated_Source\PSoC4/CyLFClk.c ****     *
1102:.\Generated_Source\PSoC4/CyLFClk.c ****     * Parameters:
1103:.\Generated_Source\PSoC4/CyLFClk.c ****     *  counterMask: The mask of all the counters to reset.
1104:.\Generated_Source\PSoC4/CyLFClk.c ****     *   Define                       Counter
1105:.\Generated_Source\PSoC4/CyLFClk.c ****     *   CY_SYS_WDT_COUNTER0_RESET    0
1106:.\Generated_Source\PSoC4/CyLFClk.c ****     *   CY_SYS_WDT_COUNTER1_RESET    1
1107:.\Generated_Source\PSoC4/CyLFClk.c ****     *   CY_SYS_WDT_COUNTER2_RESET    2
1108:.\Generated_Source\PSoC4/CyLFClk.c ****     *
1109:.\Generated_Source\PSoC4/CyLFClk.c ****     * Return:
1110:.\Generated_Source\PSoC4/CyLFClk.c ****     *   None
1111:.\Generated_Source\PSoC4/CyLFClk.c ****     *
1112:.\Generated_Source\PSoC4/CyLFClk.c ****     * Side effects:
1113:.\Generated_Source\PSoC4/CyLFClk.c ****     *   This function does not reset counter values if the Watchdog is locked.
1114:.\Generated_Source\PSoC4/CyLFClk.c ****     *   This function waits while corresponding counters will be reset. This may
1115:.\Generated_Source\PSoC4/CyLFClk.c ****     *   take up to 3 LFCLK cycles.
1116:.\Generated_Source\PSoC4/CyLFClk.c ****     *   The LFCLK source must be enabled. Otherwise, the function will never exit.
1117:.\Generated_Source\PSoC4/CyLFClk.c ****     *
1118:.\Generated_Source\PSoC4/CyLFClk.c ****     *******************************************************************************/
1119:.\Generated_Source\PSoC4/CyLFClk.c ****     void CySysWdtResetCounters(uint32 countersMask)
1120:.\Generated_Source\PSoC4/CyLFClk.c ****     {
1121:.\Generated_Source\PSoC4/CyLFClk.c ****         /* Set new WDT reset value */
1122:.\Generated_Source\PSoC4/CyLFClk.c ****         CY_SYS_WDT_CONTROL_REG |= (countersMask & CY_SYS_WDT_COUNTERS_RESET);
1123:.\Generated_Source\PSoC4/CyLFClk.c **** 
1124:.\Generated_Source\PSoC4/CyLFClk.c ****         while (0uL != (CY_SYS_WDT_CONTROL_REG & CY_SYS_WDT_COUNTERS_RESET))
1125:.\Generated_Source\PSoC4/CyLFClk.c ****         {
1126:.\Generated_Source\PSoC4/CyLFClk.c ****             /* Wait for reset to come into effect */
1127:.\Generated_Source\PSoC4/CyLFClk.c ****         }
1128:.\Generated_Source\PSoC4/CyLFClk.c ****     }
1129:.\Generated_Source\PSoC4/CyLFClk.c **** 
ARM GAS  C:\Users\Vit\AppData\Local\Temp\ccnJL0JJ.s 			page 40


1130:.\Generated_Source\PSoC4/CyLFClk.c **** 
1131:.\Generated_Source\PSoC4/CyLFClk.c ****     /*******************************************************************************
1132:.\Generated_Source\PSoC4/CyLFClk.c ****     * Function Name: CySysWdtSetInterruptCallback
1133:.\Generated_Source\PSoC4/CyLFClk.c ****     ********************************************************************************
1134:.\Generated_Source\PSoC4/CyLFClk.c ****     *
1135:.\Generated_Source\PSoC4/CyLFClk.c ****     * Summary:
1136:.\Generated_Source\PSoC4/CyLFClk.c ****     *  Sets the ISR callback function for the particular WDT counter.
1137:.\Generated_Source\PSoC4/CyLFClk.c ****     *  These functions are called on the WDT interrupt.
1138:.\Generated_Source\PSoC4/CyLFClk.c ****     *
1139:.\Generated_Source\PSoC4/CyLFClk.c ****     * Parameters:
1140:.\Generated_Source\PSoC4/CyLFClk.c ****     *  counterNum : The number of the WDT counter.
1141:.\Generated_Source\PSoC4/CyLFClk.c ****     *  function   : The pointer to the callback function.
1142:.\Generated_Source\PSoC4/CyLFClk.c ****     *
1143:.\Generated_Source\PSoC4/CyLFClk.c ****     * Return:
1144:.\Generated_Source\PSoC4/CyLFClk.c ****     *  The pointer to the previous callback function.
1145:.\Generated_Source\PSoC4/CyLFClk.c ****     *  NULL is returned if the specified address is not set.
1146:.\Generated_Source\PSoC4/CyLFClk.c ****     *
1147:.\Generated_Source\PSoC4/CyLFClk.c ****     *******************************************************************************/
1148:.\Generated_Source\PSoC4/CyLFClk.c ****     cyWdtCallback CySysWdtSetInterruptCallback(uint32 counterNum, cyWdtCallback function)
1149:.\Generated_Source\PSoC4/CyLFClk.c ****     {
1150:.\Generated_Source\PSoC4/CyLFClk.c ****         cyWdtCallback prevCallback = (void *)0;
1151:.\Generated_Source\PSoC4/CyLFClk.c **** 
1152:.\Generated_Source\PSoC4/CyLFClk.c ****         if(counterNum < CY_WDT_NUM_OF_WDT)
1153:.\Generated_Source\PSoC4/CyLFClk.c ****         {
1154:.\Generated_Source\PSoC4/CyLFClk.c ****             prevCallback = cySysWdtCallback[counterNum];
1155:.\Generated_Source\PSoC4/CyLFClk.c ****             cySysWdtCallback[counterNum] = function;
1156:.\Generated_Source\PSoC4/CyLFClk.c ****         }
1157:.\Generated_Source\PSoC4/CyLFClk.c ****         else
1158:.\Generated_Source\PSoC4/CyLFClk.c ****         {
1159:.\Generated_Source\PSoC4/CyLFClk.c ****             CYASSERT(0u != 0u);
1160:.\Generated_Source\PSoC4/CyLFClk.c ****         }
1161:.\Generated_Source\PSoC4/CyLFClk.c **** 
1162:.\Generated_Source\PSoC4/CyLFClk.c ****         return((cyWdtCallback)prevCallback);
1163:.\Generated_Source\PSoC4/CyLFClk.c ****     }
1164:.\Generated_Source\PSoC4/CyLFClk.c **** 
1165:.\Generated_Source\PSoC4/CyLFClk.c **** 
1166:.\Generated_Source\PSoC4/CyLFClk.c ****     /*******************************************************************************
1167:.\Generated_Source\PSoC4/CyLFClk.c ****     * Function Name: CySysWdtGetInterruptCallback
1168:.\Generated_Source\PSoC4/CyLFClk.c ****     ********************************************************************************
1169:.\Generated_Source\PSoC4/CyLFClk.c ****     *
1170:.\Generated_Source\PSoC4/CyLFClk.c ****     * Summary:
1171:.\Generated_Source\PSoC4/CyLFClk.c ****     *  Gets the ISR callback function for the particular WDT counter.
1172:.\Generated_Source\PSoC4/CyLFClk.c ****     *
1173:.\Generated_Source\PSoC4/CyLFClk.c ****     * Parameters:
1174:.\Generated_Source\PSoC4/CyLFClk.c ****     *  counterNum : The number of the WDT counter.
1175:.\Generated_Source\PSoC4/CyLFClk.c ****     *
1176:.\Generated_Source\PSoC4/CyLFClk.c ****     * Return:
1177:.\Generated_Source\PSoC4/CyLFClk.c ****     *  The pointer to the callback function registered for a particular WDT by
1178:.\Generated_Source\PSoC4/CyLFClk.c ****     *  a particular address that are passed through arguments.
1179:.\Generated_Source\PSoC4/CyLFClk.c ****     *
1180:.\Generated_Source\PSoC4/CyLFClk.c ****     *******************************************************************************/
1181:.\Generated_Source\PSoC4/CyLFClk.c ****     cyWdtCallback CySysWdtGetInterruptCallback(uint32 counterNum)
1182:.\Generated_Source\PSoC4/CyLFClk.c ****     {
1183:.\Generated_Source\PSoC4/CyLFClk.c ****         cyWdtCallback retCallback = (void *)0;
1184:.\Generated_Source\PSoC4/CyLFClk.c **** 
1185:.\Generated_Source\PSoC4/CyLFClk.c ****         if(counterNum < CY_WDT_NUM_OF_WDT)
1186:.\Generated_Source\PSoC4/CyLFClk.c ****         {
ARM GAS  C:\Users\Vit\AppData\Local\Temp\ccnJL0JJ.s 			page 41


1187:.\Generated_Source\PSoC4/CyLFClk.c ****             retCallback = (cyWdtCallback)cySysWdtCallback[counterNum];
1188:.\Generated_Source\PSoC4/CyLFClk.c ****         }
1189:.\Generated_Source\PSoC4/CyLFClk.c ****         else
1190:.\Generated_Source\PSoC4/CyLFClk.c ****         {
1191:.\Generated_Source\PSoC4/CyLFClk.c ****             CYASSERT(0u != 0u);
1192:.\Generated_Source\PSoC4/CyLFClk.c ****         }
1193:.\Generated_Source\PSoC4/CyLFClk.c **** 
1194:.\Generated_Source\PSoC4/CyLFClk.c ****         return(retCallback);
1195:.\Generated_Source\PSoC4/CyLFClk.c ****     }
1196:.\Generated_Source\PSoC4/CyLFClk.c **** 
1197:.\Generated_Source\PSoC4/CyLFClk.c **** 
1198:.\Generated_Source\PSoC4/CyLFClk.c ****     /*******************************************************************************
1199:.\Generated_Source\PSoC4/CyLFClk.c ****     * Function Name: CySysWdtEnableCounterIsr
1200:.\Generated_Source\PSoC4/CyLFClk.c ****     ********************************************************************************
1201:.\Generated_Source\PSoC4/CyLFClk.c ****     *
1202:.\Generated_Source\PSoC4/CyLFClk.c ****     * Summary:
1203:.\Generated_Source\PSoC4/CyLFClk.c ****     *  Enables the ISR callback servicing for the particular WDT counter
1204:.\Generated_Source\PSoC4/CyLFClk.c ****     *
1205:.\Generated_Source\PSoC4/CyLFClk.c ****     * Parameters:
1206:.\Generated_Source\PSoC4/CyLFClk.c ****     *  counterNum: Valid range [0-2].  The number of the WDT counter.
1207:.\Generated_Source\PSoC4/CyLFClk.c ****     *
1208:.\Generated_Source\PSoC4/CyLFClk.c ****     *******************************************************************************/
1209:.\Generated_Source\PSoC4/CyLFClk.c ****     void CySysWdtEnableCounterIsr(uint32 counterNum)
1210:.\Generated_Source\PSoC4/CyLFClk.c ****     {
1211:.\Generated_Source\PSoC4/CyLFClk.c ****         if(counterNum <= CY_SYS_WDT_COUNTER2)
1212:.\Generated_Source\PSoC4/CyLFClk.c ****         {
1213:.\Generated_Source\PSoC4/CyLFClk.c ****             disableServicedIsr &= ~counterIntMaskTbl[counterNum];
1214:.\Generated_Source\PSoC4/CyLFClk.c ****             wdtIsrMask |= counterIntMaskTbl[counterNum];
1215:.\Generated_Source\PSoC4/CyLFClk.c ****         }
1216:.\Generated_Source\PSoC4/CyLFClk.c ****         else
1217:.\Generated_Source\PSoC4/CyLFClk.c ****         {
1218:.\Generated_Source\PSoC4/CyLFClk.c ****             CYASSERT(0u != 0u);
1219:.\Generated_Source\PSoC4/CyLFClk.c ****         }
1220:.\Generated_Source\PSoC4/CyLFClk.c ****     }
1221:.\Generated_Source\PSoC4/CyLFClk.c **** 
1222:.\Generated_Source\PSoC4/CyLFClk.c **** 
1223:.\Generated_Source\PSoC4/CyLFClk.c ****     /*******************************************************************************
1224:.\Generated_Source\PSoC4/CyLFClk.c ****     * Function Name: CySysWdtDisableCounterIsr
1225:.\Generated_Source\PSoC4/CyLFClk.c ****     ********************************************************************************
1226:.\Generated_Source\PSoC4/CyLFClk.c ****     *
1227:.\Generated_Source\PSoC4/CyLFClk.c ****     * Summary:
1228:.\Generated_Source\PSoC4/CyLFClk.c ****     *  Disables the ISR callback servicing for the particular WDT counter
1229:.\Generated_Source\PSoC4/CyLFClk.c ****     *
1230:.\Generated_Source\PSoC4/CyLFClk.c ****     * Parameters:
1231:.\Generated_Source\PSoC4/CyLFClk.c ****     *  counterNum: Valid range [0-2].  The number of the WDT counter.
1232:.\Generated_Source\PSoC4/CyLFClk.c ****     *
1233:.\Generated_Source\PSoC4/CyLFClk.c ****     *******************************************************************************/
1234:.\Generated_Source\PSoC4/CyLFClk.c ****     void CySysWdtDisableCounterIsr(uint32 counterNum)
1235:.\Generated_Source\PSoC4/CyLFClk.c ****     {
1236:.\Generated_Source\PSoC4/CyLFClk.c ****         if(counterNum <= CY_SYS_WDT_COUNTER2)
1237:.\Generated_Source\PSoC4/CyLFClk.c ****         {
1238:.\Generated_Source\PSoC4/CyLFClk.c ****             wdtIsrMask &= ~counterIntMaskTbl[counterNum];
1239:.\Generated_Source\PSoC4/CyLFClk.c ****         }
1240:.\Generated_Source\PSoC4/CyLFClk.c ****         else
1241:.\Generated_Source\PSoC4/CyLFClk.c ****         {
1242:.\Generated_Source\PSoC4/CyLFClk.c ****             CYASSERT(0u != 0u);
1243:.\Generated_Source\PSoC4/CyLFClk.c ****         }
ARM GAS  C:\Users\Vit\AppData\Local\Temp\ccnJL0JJ.s 			page 42


1244:.\Generated_Source\PSoC4/CyLFClk.c ****     }
1245:.\Generated_Source\PSoC4/CyLFClk.c **** 
1246:.\Generated_Source\PSoC4/CyLFClk.c **** 
1247:.\Generated_Source\PSoC4/CyLFClk.c ****     /*******************************************************************************
1248:.\Generated_Source\PSoC4/CyLFClk.c ****     * Function Name: CySysWdtIsr
1249:.\Generated_Source\PSoC4/CyLFClk.c ****     ********************************************************************************
1250:.\Generated_Source\PSoC4/CyLFClk.c ****     *
1251:.\Generated_Source\PSoC4/CyLFClk.c ****     * Summary:
1252:.\Generated_Source\PSoC4/CyLFClk.c ****     *  This is the handler of the WDT interrupt in CPU NVIC. The handler checks
1253:.\Generated_Source\PSoC4/CyLFClk.c ****     *  which WDT triggered in the interrupt and calls the respective callback
1254:.\Generated_Source\PSoC4/CyLFClk.c ****     *  functions configured by the user by using CySysWdtSetIsrCallback() API.
1255:.\Generated_Source\PSoC4/CyLFClk.c ****     *
1256:.\Generated_Source\PSoC4/CyLFClk.c ****     *  The order of the callback execution is incremental. Callback-0 is
1257:.\Generated_Source\PSoC4/CyLFClk.c ****     *  run as the first one and callback-2 is called as the last one.
1258:.\Generated_Source\PSoC4/CyLFClk.c ****     *
1259:.\Generated_Source\PSoC4/CyLFClk.c ****     * Parameters:
1260:.\Generated_Source\PSoC4/CyLFClk.c ****     *  None.
1261:.\Generated_Source\PSoC4/CyLFClk.c ****     *
1262:.\Generated_Source\PSoC4/CyLFClk.c ****     * Return:
1263:.\Generated_Source\PSoC4/CyLFClk.c ****     *  None.
1264:.\Generated_Source\PSoC4/CyLFClk.c ****     *
1265:.\Generated_Source\PSoC4/CyLFClk.c ****     * Side Effects:
1266:.\Generated_Source\PSoC4/CyLFClk.c ****     *  This function clears the WDT interrupt every time when it is called.
1267:.\Generated_Source\PSoC4/CyLFClk.c ****     *  Reset after the 3rd interrupt does not happen if this function is registered
1268:.\Generated_Source\PSoC4/CyLFClk.c ****     *  as the interrupt handler even if the "Watchdog with Interrupt" mode is
1269:.\Generated_Source\PSoC4/CyLFClk.c ****     *  selected on the "Low Frequency Clocks" tab.
1270:.\Generated_Source\PSoC4/CyLFClk.c ****     *
1271:.\Generated_Source\PSoC4/CyLFClk.c ****     *******************************************************************************/
1272:.\Generated_Source\PSoC4/CyLFClk.c ****     void CySysWdtIsr(void)
1273:.\Generated_Source\PSoC4/CyLFClk.c ****     {
1274:.\Generated_Source\PSoC4/CyLFClk.c ****         if(0u != (CY_SYS_WDT_COUNTER0_INT & CY_SYS_WDT_CONTROL_REG))
1275:.\Generated_Source\PSoC4/CyLFClk.c ****         {
1276:.\Generated_Source\PSoC4/CyLFClk.c ****             if(0u != (CY_SYS_WDT_COUNTER0_INT & wdtIsrMask))
1277:.\Generated_Source\PSoC4/CyLFClk.c ****             {
1278:.\Generated_Source\PSoC4/CyLFClk.c ****                 wdtIsrMask &= ~(disableServicedIsr & CY_SYS_WDT_COUNTER0_INT);
1279:.\Generated_Source\PSoC4/CyLFClk.c ****                 disableServicedIsr  &= ~CY_SYS_WDT_COUNTER0_INT;
1280:.\Generated_Source\PSoC4/CyLFClk.c ****                 if(cySysWdtCallback[CY_SYS_WDT_COUNTER0] != (void *) 0)
1281:.\Generated_Source\PSoC4/CyLFClk.c ****                 {
1282:.\Generated_Source\PSoC4/CyLFClk.c ****                     (void)(cySysWdtCallback[CY_SYS_WDT_COUNTER0])();
1283:.\Generated_Source\PSoC4/CyLFClk.c ****                 }
1284:.\Generated_Source\PSoC4/CyLFClk.c ****             }
1285:.\Generated_Source\PSoC4/CyLFClk.c ****             CySysWdtClearInterrupt(CY_SYS_WDT_COUNTER0_INT);
1286:.\Generated_Source\PSoC4/CyLFClk.c ****         }
1287:.\Generated_Source\PSoC4/CyLFClk.c **** 
1288:.\Generated_Source\PSoC4/CyLFClk.c ****         if(0u != (CY_SYS_WDT_COUNTER1_INT & CY_SYS_WDT_CONTROL_REG))
1289:.\Generated_Source\PSoC4/CyLFClk.c ****         {
1290:.\Generated_Source\PSoC4/CyLFClk.c ****             if(0u != (CY_SYS_WDT_COUNTER1_INT & wdtIsrMask))
1291:.\Generated_Source\PSoC4/CyLFClk.c ****             {
1292:.\Generated_Source\PSoC4/CyLFClk.c ****                 wdtIsrMask &= ~(disableServicedIsr & CY_SYS_WDT_COUNTER1_INT);
1293:.\Generated_Source\PSoC4/CyLFClk.c ****                 disableServicedIsr  &= ~CY_SYS_WDT_COUNTER1_INT;
1294:.\Generated_Source\PSoC4/CyLFClk.c ****                 if(cySysWdtCallback[CY_SYS_WDT_COUNTER1] != (void *) 0)
1295:.\Generated_Source\PSoC4/CyLFClk.c ****                 {
1296:.\Generated_Source\PSoC4/CyLFClk.c ****                     (void)(cySysWdtCallback[CY_SYS_WDT_COUNTER1])();
1297:.\Generated_Source\PSoC4/CyLFClk.c ****                 }
1298:.\Generated_Source\PSoC4/CyLFClk.c ****             }
1299:.\Generated_Source\PSoC4/CyLFClk.c ****             CySysWdtClearInterrupt(CY_SYS_WDT_COUNTER1_INT);
1300:.\Generated_Source\PSoC4/CyLFClk.c ****         }
ARM GAS  C:\Users\Vit\AppData\Local\Temp\ccnJL0JJ.s 			page 43


1301:.\Generated_Source\PSoC4/CyLFClk.c **** 
1302:.\Generated_Source\PSoC4/CyLFClk.c ****         if(0u != (CY_SYS_WDT_COUNTER2_INT & CY_SYS_WDT_CONTROL_REG))
1303:.\Generated_Source\PSoC4/CyLFClk.c ****         {
1304:.\Generated_Source\PSoC4/CyLFClk.c ****             if(0u != (CY_SYS_WDT_COUNTER2_INT & wdtIsrMask))
1305:.\Generated_Source\PSoC4/CyLFClk.c ****             {
1306:.\Generated_Source\PSoC4/CyLFClk.c ****                 if(cySysWdtCallback[CY_SYS_WDT_COUNTER2] != (void *) 0)
1307:.\Generated_Source\PSoC4/CyLFClk.c ****                 {
1308:.\Generated_Source\PSoC4/CyLFClk.c ****                     (void)(cySysWdtCallback[CY_SYS_WDT_COUNTER2])();
1309:.\Generated_Source\PSoC4/CyLFClk.c ****                 }
1310:.\Generated_Source\PSoC4/CyLFClk.c ****             }
1311:.\Generated_Source\PSoC4/CyLFClk.c ****             CySysWdtClearInterrupt(CY_SYS_WDT_COUNTER2_INT);
1312:.\Generated_Source\PSoC4/CyLFClk.c ****         }
1313:.\Generated_Source\PSoC4/CyLFClk.c ****     }
1314:.\Generated_Source\PSoC4/CyLFClk.c **** 
1315:.\Generated_Source\PSoC4/CyLFClk.c **** 
1316:.\Generated_Source\PSoC4/CyLFClk.c ****     /*******************************************************************************
1317:.\Generated_Source\PSoC4/CyLFClk.c ****     * Function Name: CySysTimerDelay
1318:.\Generated_Source\PSoC4/CyLFClk.c ****     ********************************************************************************
1319:.\Generated_Source\PSoC4/CyLFClk.c ****     *
1320:.\Generated_Source\PSoC4/CyLFClk.c ****     * Summary:
1321:.\Generated_Source\PSoC4/CyLFClk.c ****     *  The function implements the delay specified in the LFCLK clock ticks. The
1322:.\Generated_Source\PSoC4/CyLFClk.c ****     *  specified WDT counter should be configured as described below and started.
1323:.\Generated_Source\PSoC4/CyLFClk.c ****     *
1324:.\Generated_Source\PSoC4/CyLFClk.c ****     *  This function can operate in two modes: the "WAIT" and "INTERRUPT" modes. In
1325:.\Generated_Source\PSoC4/CyLFClk.c ****     *  the "WAIT" mode, the function waits for the specified number of ticks. In the
1326:.\Generated_Source\PSoC4/CyLFClk.c ****     *  "INTERRUPT" mode, the interrupt is generated after the specified number of
1327:.\Generated_Source\PSoC4/CyLFClk.c ****     *  ticks.
1328:.\Generated_Source\PSoC4/CyLFClk.c ****     *
1329:.\Generated_Source\PSoC4/CyLFClk.c ****     *  For the correct function operation, the "Clear On Match" option should be
1330:.\Generated_Source\PSoC4/CyLFClk.c ****     *  disabled for the specified WDT counter. Use CySysWdtSetClearOnMatch()
1331:.\Generated_Source\PSoC4/CyLFClk.c ****     *  function with the "enable" parameter equal to zero for the used WDT counter.
1332:.\Generated_Source\PSoC4/CyLFClk.c ****     *
1333:.\Generated_Source\PSoC4/CyLFClk.c ****     *  The corresponding WDT counter should be configured to match the selected
1334:.\Generated_Source\PSoC4/CyLFClk.c ****     *  mode: "Free running Timer" for the "WAIT" mode, and
1335:.\Generated_Source\PSoC4/CyLFClk.c ****     *  "Periodic Timer" / "Watchdog (w/Interrupt)" for the "INTERRUPT" mode.
1336:.\Generated_Source\PSoC4/CyLFClk.c ****     *
1337:.\Generated_Source\PSoC4/CyLFClk.c ****     *  This can be configured in two ways:
1338:.\Generated_Source\PSoC4/CyLFClk.c ****     *  - Through the DWR page. Open the "Clocks" tab, click the "Edit Clocks..."
1339:.\Generated_Source\PSoC4/CyLFClk.c ****     *    button, in the "Configure System Clocks" window click on the
1340:.\Generated_Source\PSoC4/CyLFClk.c ****     *    "Low Frequency Clocks" tab and choose the appropriate option for the used
1341:.\Generated_Source\PSoC4/CyLFClk.c ****     *    WDT counter.
1342:.\Generated_Source\PSoC4/CyLFClk.c ****     *
1343:.\Generated_Source\PSoC4/CyLFClk.c ****     *  - Through the CySysWdtSetMode() function. Call it with the appropriate mode
1344:.\Generated_Source\PSoC4/CyLFClk.c ****     *    parameter for the used WDT counter.
1345:.\Generated_Source\PSoC4/CyLFClk.c ****     *
1346:.\Generated_Source\PSoC4/CyLFClk.c ****     *  For the "INTERRUPT" mode, the recommended sequence is the following:
1347:.\Generated_Source\PSoC4/CyLFClk.c ****     *  - Call the CySysWdtDisableCounterIsr() function to disable servicing
1348:.\Generated_Source\PSoC4/CyLFClk.c ****     *    interrupts of the specified WDT counter.
1349:.\Generated_Source\PSoC4/CyLFClk.c ****     *
1350:.\Generated_Source\PSoC4/CyLFClk.c ****     *  - Call the CySysWdtSetInterruptCallback() function to register the callback
1351:.\Generated_Source\PSoC4/CyLFClk.c ****     *    function for the corresponding WDT counter.
1352:.\Generated_Source\PSoC4/CyLFClk.c ****     *
1353:.\Generated_Source\PSoC4/CyLFClk.c ****     *  - Call the CySysTimerDelay() function.
1354:.\Generated_Source\PSoC4/CyLFClk.c ****     *
1355:.\Generated_Source\PSoC4/CyLFClk.c ****     * Parameters:
1356:.\Generated_Source\PSoC4/CyLFClk.c ****     *  counterNum: Valid range [0-1]. The number of the WDT counter (WDT0 or WDT1).
1357:.\Generated_Source\PSoC4/CyLFClk.c ****     *  delayType : Defines the operation mode.
ARM GAS  C:\Users\Vit\AppData\Local\Temp\ccnJL0JJ.s 			page 44


1358:.\Generated_Source\PSoC4/CyLFClk.c ****     *               CY_SYS_TIMER_WAIT       "WAIT" mode.
1359:.\Generated_Source\PSoC4/CyLFClk.c ****     *               CY_SYS_TIMER_INTERRUPT  "INTERRUPT" mode.
1360:.\Generated_Source\PSoC4/CyLFClk.c ****     *  delay:  The delay value in the LFCLK ticks (allowable range - 16-bit value).
1361:.\Generated_Source\PSoC4/CyLFClk.c ****     *
1362:.\Generated_Source\PSoC4/CyLFClk.c ****     * Return:
1363:.\Generated_Source\PSoC4/CyLFClk.c ****     *  None
1364:.\Generated_Source\PSoC4/CyLFClk.c ****     *
1365:.\Generated_Source\PSoC4/CyLFClk.c ****     * Side effects:
1366:.\Generated_Source\PSoC4/CyLFClk.c ****     *  In the "INTERRUPT" mode, this function enables ISR callback servicing
1367:.\Generated_Source\PSoC4/CyLFClk.c ****     *  from the corresponding WDT counter. Servicing of this ISR callback will be
1368:.\Generated_Source\PSoC4/CyLFClk.c ****     *  disabled after the expiration of the delay time.
1369:.\Generated_Source\PSoC4/CyLFClk.c ****     *
1370:.\Generated_Source\PSoC4/CyLFClk.c ****     *******************************************************************************/
1371:.\Generated_Source\PSoC4/CyLFClk.c ****     void CySysTimerDelay(uint32 counterNum, cy_sys_timer_delaytype_enum delayType, uint32 delay)
1372:.\Generated_Source\PSoC4/CyLFClk.c ****     {
1373:.\Generated_Source\PSoC4/CyLFClk.c ****         uint32 regValue;
1374:.\Generated_Source\PSoC4/CyLFClk.c ****         uint32 matchValue;
1375:.\Generated_Source\PSoC4/CyLFClk.c **** 
1376:.\Generated_Source\PSoC4/CyLFClk.c ****         if((counterNum < CY_SYS_WDT_COUNTER2) && (0uL == CySysWdtGetClearOnMatch(counterNum)) && (d
1377:.\Generated_Source\PSoC4/CyLFClk.c ****         {
1378:.\Generated_Source\PSoC4/CyLFClk.c ****             regValue   = CySysWdtGetCount(counterNum);
1379:.\Generated_Source\PSoC4/CyLFClk.c ****             matchValue = (regValue + delay) & (uint32)UINT16_MAX_VAL;
1380:.\Generated_Source\PSoC4/CyLFClk.c **** 
1381:.\Generated_Source\PSoC4/CyLFClk.c ****             CySysTimerDelayUntilMatch(counterNum, delayType, matchValue);
1382:.\Generated_Source\PSoC4/CyLFClk.c ****         }
1383:.\Generated_Source\PSoC4/CyLFClk.c ****         else
1384:.\Generated_Source\PSoC4/CyLFClk.c ****         {
1385:.\Generated_Source\PSoC4/CyLFClk.c ****             CYASSERT(0u != 0u);
1386:.\Generated_Source\PSoC4/CyLFClk.c ****         }
1387:.\Generated_Source\PSoC4/CyLFClk.c ****     }
1388:.\Generated_Source\PSoC4/CyLFClk.c **** 
1389:.\Generated_Source\PSoC4/CyLFClk.c **** 
1390:.\Generated_Source\PSoC4/CyLFClk.c ****     /*******************************************************************************
1391:.\Generated_Source\PSoC4/CyLFClk.c ****     * Function Name: CySysTimerDelayUntilMatch
1392:.\Generated_Source\PSoC4/CyLFClk.c ****     ********************************************************************************
1393:.\Generated_Source\PSoC4/CyLFClk.c ****     *
1394:.\Generated_Source\PSoC4/CyLFClk.c ****     * Summary:
1395:.\Generated_Source\PSoC4/CyLFClk.c ****     *  The function implements the delay specified as the number of LFCLK ticks
1396:.\Generated_Source\PSoC4/CyLFClk.c ****     *  between the specified WDT counter's current value and the "match" passed as
1397:.\Generated_Source\PSoC4/CyLFClk.c ****     *  the parameter to this function. The current WDT counter value can be obtained
1398:.\Generated_Source\PSoC4/CyLFClk.c ****     *  using the CySysWdtGetCount() function.
1399:.\Generated_Source\PSoC4/CyLFClk.c ****     *
1400:.\Generated_Source\PSoC4/CyLFClk.c ****     *  This function can operate in two modes: the "WAIT" and "INTERRUPT" mode. In
1401:.\Generated_Source\PSoC4/CyLFClk.c ****     *  the "WAIT" mode, the function waits while the used WDT counter value becomes
1402:.\Generated_Source\PSoC4/CyLFClk.c ****     *  equal to the match value. In the "INTERRUPT" mode, the interrupt is generated
1403:.\Generated_Source\PSoC4/CyLFClk.c ****     *  when the used WDT counter became equal to the "match" value.
1404:.\Generated_Source\PSoC4/CyLFClk.c ****     *
1405:.\Generated_Source\PSoC4/CyLFClk.c ****     *  For the correct function operation, the "Clear On Match" option should be
1406:.\Generated_Source\PSoC4/CyLFClk.c ****     *  disabled for the specified WDT counter. Use CySysWdtSetClearOnMatch()
1407:.\Generated_Source\PSoC4/CyLFClk.c ****     *  function with the "enable" parameter equal to zero for the used WDT counter.
1408:.\Generated_Source\PSoC4/CyLFClk.c ****     *
1409:.\Generated_Source\PSoC4/CyLFClk.c ****     *  The corresponding WDT counter should be configured to match the selected mode:
1410:.\Generated_Source\PSoC4/CyLFClk.c ****     *  "Free running Timer" for the "WAIT" mode, and "Periodic Timer" / "Watchdog
1411:.\Generated_Source\PSoC4/CyLFClk.c ****     *  (w/Interrupt)" for the "INTERRUPT" mode.
1412:.\Generated_Source\PSoC4/CyLFClk.c ****     *
1413:.\Generated_Source\PSoC4/CyLFClk.c ****     *  This can be configured in two ways:
1414:.\Generated_Source\PSoC4/CyLFClk.c ****     *  - Through the DWR page. Open the "Clocks" tab, click the "Edit Clocks..."
ARM GAS  C:\Users\Vit\AppData\Local\Temp\ccnJL0JJ.s 			page 45


1415:.\Generated_Source\PSoC4/CyLFClk.c ****     *    button, in the "Configure System Clocks" window click on the
1416:.\Generated_Source\PSoC4/CyLFClk.c ****     *    "Low Frequency Clocks" tab and choose the appropriate option for the used
1417:.\Generated_Source\PSoC4/CyLFClk.c ****     *    WDT counter.
1418:.\Generated_Source\PSoC4/CyLFClk.c ****     *
1419:.\Generated_Source\PSoC4/CyLFClk.c ****     *  - Through the CySysWdtSetMode() function. Call it with the appropriate "mode"
1420:.\Generated_Source\PSoC4/CyLFClk.c ****     *    parameter for the used WDT counter.
1421:.\Generated_Source\PSoC4/CyLFClk.c ****     *
1422:.\Generated_Source\PSoC4/CyLFClk.c ****     *  For the "INTERRUPT" mode, the recommended sequence is the following:
1423:.\Generated_Source\PSoC4/CyLFClk.c ****     *  - Call the CySysWdtDisableCounterIsr() function to disable servicing
1424:.\Generated_Source\PSoC4/CyLFClk.c ****     *    interrupts of the specified WDT counter.
1425:.\Generated_Source\PSoC4/CyLFClk.c ****     *
1426:.\Generated_Source\PSoC4/CyLFClk.c ****     *  - Call the CySysWdtSetInterruptCallback() function to register the callback
1427:.\Generated_Source\PSoC4/CyLFClk.c ****     *    function for the corresponding WDT counter.
1428:.\Generated_Source\PSoC4/CyLFClk.c ****     *
1429:.\Generated_Source\PSoC4/CyLFClk.c ****     *  - Call the CySysTimerDelay() function.
1430:.\Generated_Source\PSoC4/CyLFClk.c ****     *
1431:.\Generated_Source\PSoC4/CyLFClk.c ****     * Parameters:
1432:.\Generated_Source\PSoC4/CyLFClk.c ****     *  counterNum: Valid range [0-1]. The number of the WDT counter (WDT0 or WDT1).
1433:.\Generated_Source\PSoC4/CyLFClk.c ****     *  delayType : Defines the operation mode.
1434:.\Generated_Source\PSoC4/CyLFClk.c ****     *               CY_SYS_TIMER_WAIT       "WAIT" mode.
1435:.\Generated_Source\PSoC4/CyLFClk.c ****     *               CY_SYS_TIMER_INTERRUPT  "INTERRUPT" mode.
1436:.\Generated_Source\PSoC4/CyLFClk.c ****     *  delay:  The delay value in the LFCLK ticks (allowable range - 16-bit value).
1437:.\Generated_Source\PSoC4/CyLFClk.c ****     *
1438:.\Generated_Source\PSoC4/CyLFClk.c ****     * Return:
1439:.\Generated_Source\PSoC4/CyLFClk.c ****     *  None
1440:.\Generated_Source\PSoC4/CyLFClk.c ****     *
1441:.\Generated_Source\PSoC4/CyLFClk.c ****     * Side effects:
1442:.\Generated_Source\PSoC4/CyLFClk.c ****     *  In the "INTERRUPT" mode, this function enables ISR callback servicing
1443:.\Generated_Source\PSoC4/CyLFClk.c ****     *  from the corresponding WDT counter. Servicing of this ISR callback will be
1444:.\Generated_Source\PSoC4/CyLFClk.c ****     *  disabled after the expiration of the delay time.
1445:.\Generated_Source\PSoC4/CyLFClk.c ****     *
1446:.\Generated_Source\PSoC4/CyLFClk.c ****     *******************************************************************************/
1447:.\Generated_Source\PSoC4/CyLFClk.c ****     void CySysTimerDelayUntilMatch(uint32 counterNum, cy_sys_timer_delaytype_enum delayType, uint32
1448:.\Generated_Source\PSoC4/CyLFClk.c ****     {
1449:.\Generated_Source\PSoC4/CyLFClk.c ****         uint32 tmpValue;
1450:.\Generated_Source\PSoC4/CyLFClk.c **** 
1451:.\Generated_Source\PSoC4/CyLFClk.c ****         if((counterNum < CY_SYS_WDT_COUNTER2) && (0uL == CySysWdtGetClearOnMatch(counterNum)) && (m
1452:.\Generated_Source\PSoC4/CyLFClk.c ****         {
1453:.\Generated_Source\PSoC4/CyLFClk.c ****             if(delayType == CY_SYS_TIMER_WAIT)
1454:.\Generated_Source\PSoC4/CyLFClk.c ****             {
1455:.\Generated_Source\PSoC4/CyLFClk.c ****                 do
1456:.\Generated_Source\PSoC4/CyLFClk.c ****                 {
1457:.\Generated_Source\PSoC4/CyLFClk.c ****                     tmpValue = CySysWdtGetCount(counterNum);
1458:.\Generated_Source\PSoC4/CyLFClk.c ****                 }while(tmpValue > match);
1459:.\Generated_Source\PSoC4/CyLFClk.c **** 
1460:.\Generated_Source\PSoC4/CyLFClk.c ****                 do
1461:.\Generated_Source\PSoC4/CyLFClk.c ****                 {
1462:.\Generated_Source\PSoC4/CyLFClk.c ****                     tmpValue = CySysWdtGetCount(counterNum);
1463:.\Generated_Source\PSoC4/CyLFClk.c ****                 }while(tmpValue < match);
1464:.\Generated_Source\PSoC4/CyLFClk.c ****             }
1465:.\Generated_Source\PSoC4/CyLFClk.c ****             else
1466:.\Generated_Source\PSoC4/CyLFClk.c ****             {
1467:.\Generated_Source\PSoC4/CyLFClk.c ****                 tmpValue = counterIntMaskTbl[counterNum];
1468:.\Generated_Source\PSoC4/CyLFClk.c ****                 CySysWdtSetMatch(counterNum, match);
1469:.\Generated_Source\PSoC4/CyLFClk.c **** 
1470:.\Generated_Source\PSoC4/CyLFClk.c ****                 disableServicedIsr  |= tmpValue;
1471:.\Generated_Source\PSoC4/CyLFClk.c ****                 wdtIsrMask |= tmpValue;
ARM GAS  C:\Users\Vit\AppData\Local\Temp\ccnJL0JJ.s 			page 46


1472:.\Generated_Source\PSoC4/CyLFClk.c ****             }
1473:.\Generated_Source\PSoC4/CyLFClk.c ****         }
1474:.\Generated_Source\PSoC4/CyLFClk.c ****         else
1475:.\Generated_Source\PSoC4/CyLFClk.c ****         {
1476:.\Generated_Source\PSoC4/CyLFClk.c ****             CYASSERT(0u != 0u);
1477:.\Generated_Source\PSoC4/CyLFClk.c ****         }
1478:.\Generated_Source\PSoC4/CyLFClk.c ****     }
1479:.\Generated_Source\PSoC4/CyLFClk.c **** 
1480:.\Generated_Source\PSoC4/CyLFClk.c **** 
1481:.\Generated_Source\PSoC4/CyLFClk.c ****     /*******************************************************************************
1482:.\Generated_Source\PSoC4/CyLFClk.c ****     * Function Name: CySysWatchdogFeed
1483:.\Generated_Source\PSoC4/CyLFClk.c ****     ********************************************************************************
1484:.\Generated_Source\PSoC4/CyLFClk.c ****     *
1485:.\Generated_Source\PSoC4/CyLFClk.c ****     * Summary:
1486:.\Generated_Source\PSoC4/CyLFClk.c ****     *  Feeds the watchdog counter before it causes the device reset. Supported only
1487:.\Generated_Source\PSoC4/CyLFClk.c ****     *  for WDT0 and WDT1 in the "Watchdog" or "Watchdog w/ Interrupts" modes.
1488:.\Generated_Source\PSoC4/CyLFClk.c ****     *
1489:.\Generated_Source\PSoC4/CyLFClk.c ****     * Parameters:
1490:.\Generated_Source\PSoC4/CyLFClk.c ****     *  counterNum:    The number of the WDT counter.
1491:.\Generated_Source\PSoC4/CyLFClk.c ****     *
1492:.\Generated_Source\PSoC4/CyLFClk.c ****     * Return:
1493:.\Generated_Source\PSoC4/CyLFClk.c ****     *  None.
1494:.\Generated_Source\PSoC4/CyLFClk.c ****     *
1495:.\Generated_Source\PSoC4/CyLFClk.c ****     * Side effects:
1496:.\Generated_Source\PSoC4/CyLFClk.c ****     *  Clears the WDT counter in the "Watchdog" mode or clears the WDT interrupt in
1497:.\Generated_Source\PSoC4/CyLFClk.c ****     *  "Watchdog w/ Interrupts" mode. Does nothing in other modes.
1498:.\Generated_Source\PSoC4/CyLFClk.c ****     *
1499:.\Generated_Source\PSoC4/CyLFClk.c ****     *******************************************************************************/
1500:.\Generated_Source\PSoC4/CyLFClk.c ****     void CySysWatchdogFeed(uint32 counterNum)
1501:.\Generated_Source\PSoC4/CyLFClk.c ****     {
1502:.\Generated_Source\PSoC4/CyLFClk.c ****         if(counterNum == CY_SYS_WDT_COUNTER0)
1503:.\Generated_Source\PSoC4/CyLFClk.c ****         {
1504:.\Generated_Source\PSoC4/CyLFClk.c ****             if(CY_SYS_WDT_MODE_INT_RESET == CySysWdtGetMode(counterNum))
1505:.\Generated_Source\PSoC4/CyLFClk.c ****             {
1506:.\Generated_Source\PSoC4/CyLFClk.c ****                 CySysWdtClearInterrupt(CY_SYS_WDT_COUNTER0_MASK);
1507:.\Generated_Source\PSoC4/CyLFClk.c ****             }
1508:.\Generated_Source\PSoC4/CyLFClk.c ****             else if(CY_SYS_WDT_MODE_RESET == CySysWdtGetMode(counterNum))
1509:.\Generated_Source\PSoC4/CyLFClk.c ****             {
1510:.\Generated_Source\PSoC4/CyLFClk.c ****                 CySysWdtResetCounters(CY_SYS_WDT_COUNTER0_RESET);
1511:.\Generated_Source\PSoC4/CyLFClk.c ****                 CySysWdtClearInterrupt(CY_SYS_WDT_COUNTER0_MASK);
1512:.\Generated_Source\PSoC4/CyLFClk.c ****             }
1513:.\Generated_Source\PSoC4/CyLFClk.c ****             else
1514:.\Generated_Source\PSoC4/CyLFClk.c ****             {
1515:.\Generated_Source\PSoC4/CyLFClk.c ****                 /* Do nothing. */
1516:.\Generated_Source\PSoC4/CyLFClk.c ****             }
1517:.\Generated_Source\PSoC4/CyLFClk.c ****         }
1518:.\Generated_Source\PSoC4/CyLFClk.c ****         else if(counterNum == CY_SYS_WDT_COUNTER1)
1519:.\Generated_Source\PSoC4/CyLFClk.c ****         {
1520:.\Generated_Source\PSoC4/CyLFClk.c ****             if(CY_SYS_WDT_MODE_INT_RESET == CySysWdtGetMode(counterNum))
1521:.\Generated_Source\PSoC4/CyLFClk.c ****             {
1522:.\Generated_Source\PSoC4/CyLFClk.c ****                 CySysWdtClearInterrupt(CY_SYS_WDT_COUNTER1_MASK);
1523:.\Generated_Source\PSoC4/CyLFClk.c ****             }
1524:.\Generated_Source\PSoC4/CyLFClk.c ****             else if(CY_SYS_WDT_MODE_RESET == CySysWdtGetMode(counterNum))
1525:.\Generated_Source\PSoC4/CyLFClk.c ****             {
1526:.\Generated_Source\PSoC4/CyLFClk.c ****                 CySysWdtResetCounters(CY_SYS_WDT_COUNTER1_RESET);
1527:.\Generated_Source\PSoC4/CyLFClk.c ****                 CySysWdtClearInterrupt(CY_SYS_WDT_COUNTER1_MASK);
1528:.\Generated_Source\PSoC4/CyLFClk.c ****             }
ARM GAS  C:\Users\Vit\AppData\Local\Temp\ccnJL0JJ.s 			page 47


1529:.\Generated_Source\PSoC4/CyLFClk.c ****             else
1530:.\Generated_Source\PSoC4/CyLFClk.c ****             {
1531:.\Generated_Source\PSoC4/CyLFClk.c ****                 /* Do nothing. */
1532:.\Generated_Source\PSoC4/CyLFClk.c ****             }
1533:.\Generated_Source\PSoC4/CyLFClk.c ****         }
1534:.\Generated_Source\PSoC4/CyLFClk.c ****         else
1535:.\Generated_Source\PSoC4/CyLFClk.c ****         {
1536:.\Generated_Source\PSoC4/CyLFClk.c ****             /* Do nothing. */
1537:.\Generated_Source\PSoC4/CyLFClk.c ****         }
1538:.\Generated_Source\PSoC4/CyLFClk.c ****     }
1539:.\Generated_Source\PSoC4/CyLFClk.c **** 
1540:.\Generated_Source\PSoC4/CyLFClk.c **** 
1541:.\Generated_Source\PSoC4/CyLFClk.c ****     /*******************************************************************************
1542:.\Generated_Source\PSoC4/CyLFClk.c ****     * Function Name: CySysClkLfclkPosedgeCatch
1543:.\Generated_Source\PSoC4/CyLFClk.c ****     ********************************************************************************
1544:.\Generated_Source\PSoC4/CyLFClk.c ****     *
1545:.\Generated_Source\PSoC4/CyLFClk.c ****     * Summary:
1546:.\Generated_Source\PSoC4/CyLFClk.c ****     *  Returns once the LFCLK positive edge occurred.
1547:.\Generated_Source\PSoC4/CyLFClk.c ****     *
1548:.\Generated_Source\PSoC4/CyLFClk.c ****     *  CySysClkLfclkPosedgeRestore() should be called after this function
1549:.\Generated_Source\PSoC4/CyLFClk.c ****     *  to restore the WDT configuration.
1550:.\Generated_Source\PSoC4/CyLFClk.c ****     *
1551:.\Generated_Source\PSoC4/CyLFClk.c ****     *  A pair of the CySysClkLfclkPosedgeCatch() and CySysClkLfclkPosedgeRestore()
1552:.\Generated_Source\PSoC4/CyLFClk.c ****     *  functions is expected to be called inside a critical section.
1553:.\Generated_Source\PSoC4/CyLFClk.c ****     *
1554:.\Generated_Source\PSoC4/CyLFClk.c ****     *  To ensure that the WDT counter value is read until it changes, the enabled
1555:.\Generated_Source\PSoC4/CyLFClk.c ****     *  WDT counter is used. If no counter is enabled, counter 0 is enabled.
1556:.\Generated_Source\PSoC4/CyLFClk.c ****     *  And after the LFCLK source is switched, the counter 0 configuration
1557:.\Generated_Source\PSoC4/CyLFClk.c ****     *  is restored.
1558:.\Generated_Source\PSoC4/CyLFClk.c ****     *
1559:.\Generated_Source\PSoC4/CyLFClk.c ****     *  Not applicable for the PSoC 4000 devices.
1560:.\Generated_Source\PSoC4/CyLFClk.c ****     *
1561:.\Generated_Source\PSoC4/CyLFClk.c ****     * Parameters:
1562:.\Generated_Source\PSoC4/CyLFClk.c ****     *  None.
1563:.\Generated_Source\PSoC4/CyLFClk.c ****     *
1564:.\Generated_Source\PSoC4/CyLFClk.c ****     * Return:
1565:.\Generated_Source\PSoC4/CyLFClk.c ****     *  None.
1566:.\Generated_Source\PSoC4/CyLFClk.c ****     *
1567:.\Generated_Source\PSoC4/CyLFClk.c ****     * Side Effects:
1568:.\Generated_Source\PSoC4/CyLFClk.c ****     *  This function has no effect if WDT is locked (CySysWdtLock() is
1569:.\Generated_Source\PSoC4/CyLFClk.c ****     *  called). Call CySysWdtUnlock() to unlock WDT.
1570:.\Generated_Source\PSoC4/CyLFClk.c ****     *
1571:.\Generated_Source\PSoC4/CyLFClk.c ****     *******************************************************************************/
1572:.\Generated_Source\PSoC4/CyLFClk.c ****     static void CySysClkLfclkPosedgeCatch(void)
1573:.\Generated_Source\PSoC4/CyLFClk.c ****     {
1574:.\Generated_Source\PSoC4/CyLFClk.c ****         uint32 firstCount;
1575:.\Generated_Source\PSoC4/CyLFClk.c ****         static uint32 lfclkPosedgeEnabledWdtCounter = 0u;
1576:.\Generated_Source\PSoC4/CyLFClk.c **** 
1577:.\Generated_Source\PSoC4/CyLFClk.c ****         if (0u != CySysWdtGetEnabledStatus(CY_SYS_WDT_COUNTER0))
 1044              		.loc 1 1577 0
 1045 0026 9B07     		lsl	r3, r3, #30
 1046 0028 01D5     		bpl	.L117
1578:.\Generated_Source\PSoC4/CyLFClk.c ****         {
1579:.\Generated_Source\PSoC4/CyLFClk.c ****             lfclkPosedgeEnabledWdtCounter = CY_SYS_WDT_COUNTER0;
 1047              		.loc 1 1579 0
 1048 002a 009B     		ldr	r3, [sp]
 1049 002c 0AE0     		b	.L116
ARM GAS  C:\Users\Vit\AppData\Local\Temp\ccnJL0JJ.s 			page 48


 1050              	.L117:
 1051              	.LVL92:
 1052              	.LBB90:
 1053              	.LBB91:
 496:.\Generated_Source\PSoC4/CyLFClk.c ****     }
 1054              		.loc 1 496 0
 1055 002e 2B68     		ldr	r3, [r5]
 1056 0030 5B0A     		lsr	r3, r3, #9
 1057              	.LBE91:
 1058              	.LBE90:
1580:.\Generated_Source\PSoC4/CyLFClk.c ****         }
1581:.\Generated_Source\PSoC4/CyLFClk.c ****         else if (0u != CySysWdtGetEnabledStatus(CY_SYS_WDT_COUNTER1))
 1059              		.loc 1 1581 0
 1060 0032 3342     		tst	r3, r6
 1061 0034 01D0     		beq	.L105
1582:.\Generated_Source\PSoC4/CyLFClk.c ****         {
1583:.\Generated_Source\PSoC4/CyLFClk.c ****             lfclkPosedgeEnabledWdtCounter = CY_SYS_WDT_COUNTER1;
 1062              		.loc 1 1583 0
 1063 0036 2660     		str	r6, [r4]
 1064 0038 13E0     		b	.L104
 1065              	.L105:
 1066              	.LVL93:
 1067              	.LBB92:
 1068              	.LBB93:
 496:.\Generated_Source\PSoC4/CyLFClk.c ****     }
 1069              		.loc 1 496 0
 1070 003a 2968     		ldr	r1, [r5]
 1071 003c 490C     		lsr	r1, r1, #17
 1072 003e 3140     		and	r1, r6
 1073              	.LBE93:
 1074              	.LBE92:
1584:.\Generated_Source\PSoC4/CyLFClk.c ****         }
1585:.\Generated_Source\PSoC4/CyLFClk.c ****         else if (0u != CySysWdtGetEnabledStatus(CY_SYS_WDT_COUNTER2))
 1075              		.loc 1 1585 0
 1076 0040 02D0     		beq	.L106
1586:.\Generated_Source\PSoC4/CyLFClk.c ****         {
1587:.\Generated_Source\PSoC4/CyLFClk.c ****             lfclkPosedgeEnabledWdtCounter = CY_SYS_WDT_COUNTER2;
 1077              		.loc 1 1587 0
 1078 0042 0223     		mov	r3, #2
 1079              	.LVL94:
 1080              	.L116:
 1081 0044 2360     		str	r3, [r4]
 1082 0046 0CE0     		b	.L104
 1083              	.LVL95:
 1084              	.L106:
 1085              	.LBB94:
 1086              	.LBB95:
 562:.\Generated_Source\PSoC4/CyLFClk.c ****     }
 1087              		.loc 1 562 0
 1088 0048 194B     		ldr	r3, .L118+16
 1089              	.LBE95:
 1090              	.LBE94:
1588:.\Generated_Source\PSoC4/CyLFClk.c ****         }
1589:.\Generated_Source\PSoC4/CyLFClk.c ****         else /* All WDT counters are disabled */
1590:.\Generated_Source\PSoC4/CyLFClk.c ****         {
1591:.\Generated_Source\PSoC4/CyLFClk.c ****             /* Configure WDT counter # 0 */
1592:.\Generated_Source\PSoC4/CyLFClk.c ****             lfclkPosedgeWdtCounter0Enabled = 1u;
ARM GAS  C:\Users\Vit\AppData\Local\Temp\ccnJL0JJ.s 			page 49


 1091              		.loc 1 1592 0
 1092 004a 6660     		str	r6, [r4, #4]
1593:.\Generated_Source\PSoC4/CyLFClk.c ****             lfclkPosedgeEnabledWdtCounter = CY_SYS_WDT_COUNTER0;
 1093              		.loc 1 1593 0
 1094 004c 2160     		str	r1, [r4]
 1095              	.LVL96:
 1096              	.LBB98:
 1097              	.LBB96:
 562:.\Generated_Source\PSoC4/CyLFClk.c ****     }
 1098              		.loc 1 562 0
 1099 004e 1A68     		ldr	r2, [r3]
 1100 0050 0323     		mov	r3, #3
 1101              	.LBE96:
 1102              	.LBE98:
1594:.\Generated_Source\PSoC4/CyLFClk.c **** 
1595:.\Generated_Source\PSoC4/CyLFClk.c ****             lfclkPosedgeWdtCounter0Mode = CySysWdtGetMode(CY_SYS_WDT_COUNTER0);
1596:.\Generated_Source\PSoC4/CyLFClk.c ****             CySysWdtSetMode(CY_SYS_WDT_COUNTER0, CY_SYS_WDT_MODE_NONE);
 1103              		.loc 1 1596 0
 1104 0052 081C     		mov	r0, r1
 1105              	.LBB99:
 1106              	.LBB97:
 562:.\Generated_Source\PSoC4/CyLFClk.c ****     }
 1107              		.loc 1 562 0
 1108 0054 1340     		and	r3, r2
 1109              	.LBE97:
 1110              	.LBE99:
1595:.\Generated_Source\PSoC4/CyLFClk.c ****             CySysWdtSetMode(CY_SYS_WDT_COUNTER0, CY_SYS_WDT_MODE_NONE);
 1111              		.loc 1 1595 0
 1112 0056 A360     		str	r3, [r4, #8]
 1113              		.loc 1 1596 0
 1114 0058 FFF7FEFF 		bl	CySysWdtSetMode
 1115              	.LVL97:
1597:.\Generated_Source\PSoC4/CyLFClk.c ****             CySysWdtEnable(CY_SYS_WDT_COUNTER0_MASK);
 1116              		.loc 1 1597 0
 1117 005c 301C     		mov	r0, r6
 1118 005e FFF7FEFF 		bl	CySysWdtEnable
 1119              	.LVL98:
 1120              	.L104:
1598:.\Generated_Source\PSoC4/CyLFClk.c ****         }
1599:.\Generated_Source\PSoC4/CyLFClk.c **** 
1600:.\Generated_Source\PSoC4/CyLFClk.c ****         firstCount = CySysWdtGetCount(lfclkPosedgeEnabledWdtCounter);
 1121              		.loc 1 1600 0
 1122 0062 2068     		ldr	r0, [r4]
 1123 0064 FFF7FEFF 		bl	CySysWdtGetCount
 1124              	.LVL99:
 1125 0068 061C     		mov	r6, r0
 1126              	.LVL100:
 1127              	.L107:
1601:.\Generated_Source\PSoC4/CyLFClk.c ****         while (CySysWdtGetCount(lfclkPosedgeEnabledWdtCounter) == firstCount)
 1128              		.loc 1 1601 0
 1129 006a 2068     		ldr	r0, [r4]
 1130 006c FFF7FEFF 		bl	CySysWdtGetCount
 1131              	.LVL101:
 1132 0070 B042     		cmp	r0, r6
 1133 0072 FAD0     		beq	.L107
 1134              	.LBE100:
 1135              	.LBE101:
ARM GAS  C:\Users\Vit\AppData\Local\Temp\ccnJL0JJ.s 			page 50


 114:.\Generated_Source\PSoC4/CyLFClk.c ****                 CySysClkLfclkPosedgeRestore();
 1136              		.loc 1 114 0
 1137 0074 3B68     		ldr	r3, [r7]
 1138 0076 5B00     		lsl	r3, r3, #1
 1139 0078 5B08     		lsr	r3, r3, #1
 1140 007a 3B60     		str	r3, [r7]
 1141              	.LBB102:
 1142              	.LBB103:
1602:.\Generated_Source\PSoC4/CyLFClk.c ****         {
1603:.\Generated_Source\PSoC4/CyLFClk.c ****             /* Wait for counter to increment */
1604:.\Generated_Source\PSoC4/CyLFClk.c ****         }
1605:.\Generated_Source\PSoC4/CyLFClk.c ****     }
1606:.\Generated_Source\PSoC4/CyLFClk.c **** 
1607:.\Generated_Source\PSoC4/CyLFClk.c **** 
1608:.\Generated_Source\PSoC4/CyLFClk.c ****     /*******************************************************************************
1609:.\Generated_Source\PSoC4/CyLFClk.c ****     * Function Name: CySysClkLfclkPosedgeRestore
1610:.\Generated_Source\PSoC4/CyLFClk.c ****     ********************************************************************************
1611:.\Generated_Source\PSoC4/CyLFClk.c ****     *
1612:.\Generated_Source\PSoC4/CyLFClk.c ****     * Summary:
1613:.\Generated_Source\PSoC4/CyLFClk.c ****     *  Restores the WDT configuration after a CySysClkLfclkPosedgeCatch() call.
1614:.\Generated_Source\PSoC4/CyLFClk.c ****     *
1615:.\Generated_Source\PSoC4/CyLFClk.c ****     *  A pair of the CySysClkLfclkPosedgeCatch() and CySysClkLfclkPosedgeRestore()
1616:.\Generated_Source\PSoC4/CyLFClk.c ****     *  functions is expected to be called inside a critical section.
1617:.\Generated_Source\PSoC4/CyLFClk.c ****     *
1618:.\Generated_Source\PSoC4/CyLFClk.c ****     *  Not applicable for the PSoC 4000 devices.
1619:.\Generated_Source\PSoC4/CyLFClk.c ****     *
1620:.\Generated_Source\PSoC4/CyLFClk.c ****     * Parameters:
1621:.\Generated_Source\PSoC4/CyLFClk.c ****     *  None.
1622:.\Generated_Source\PSoC4/CyLFClk.c ****     *
1623:.\Generated_Source\PSoC4/CyLFClk.c ****     * Return:
1624:.\Generated_Source\PSoC4/CyLFClk.c ****     *  None.
1625:.\Generated_Source\PSoC4/CyLFClk.c ****     *
1626:.\Generated_Source\PSoC4/CyLFClk.c ****     * Side Effects:
1627:.\Generated_Source\PSoC4/CyLFClk.c ****     *  This function has no effect if WDT is locked (CySysWdtLock() is
1628:.\Generated_Source\PSoC4/CyLFClk.c ****     *  called). Call CySysWdtUnlock() to unlock WDT.
1629:.\Generated_Source\PSoC4/CyLFClk.c ****     *
1630:.\Generated_Source\PSoC4/CyLFClk.c ****     *******************************************************************************/
1631:.\Generated_Source\PSoC4/CyLFClk.c ****     static void CySysClkLfclkPosedgeRestore(void)
1632:.\Generated_Source\PSoC4/CyLFClk.c ****     {
1633:.\Generated_Source\PSoC4/CyLFClk.c ****         if (lfclkPosedgeWdtCounter0Enabled != 0u)
 1143              		.loc 1 1633 0
 1144 007c 6368     		ldr	r3, [r4, #4]
 1145 007e 002B     		cmp	r3, #0
 1146 0080 09D0     		beq	.L108
1634:.\Generated_Source\PSoC4/CyLFClk.c ****         {
1635:.\Generated_Source\PSoC4/CyLFClk.c ****             /* Restore counter # 0 configuration and force its shutdown */
1636:.\Generated_Source\PSoC4/CyLFClk.c ****             CY_SYS_WDT_CONTROL_REG &= (uint32)(~CY_SYS_WDT_COUNTER0_MASK);
 1147              		.loc 1 1636 0
 1148 0082 0122     		mov	r2, #1
 1149 0084 2B68     		ldr	r3, [r5]
1637:.\Generated_Source\PSoC4/CyLFClk.c ****             CySysWdtSetMode(CY_SYS_WDT_COUNTER0, lfclkPosedgeWdtCounter0Mode);
 1150              		.loc 1 1637 0
 1151 0086 0020     		mov	r0, #0
1636:.\Generated_Source\PSoC4/CyLFClk.c ****             CySysWdtSetMode(CY_SYS_WDT_COUNTER0, lfclkPosedgeWdtCounter0Mode);
 1152              		.loc 1 1636 0
 1153 0088 9343     		bic	r3, r2
 1154 008a 2B60     		str	r3, [r5]
ARM GAS  C:\Users\Vit\AppData\Local\Temp\ccnJL0JJ.s 			page 51


 1155              		.loc 1 1637 0
 1156 008c A168     		ldr	r1, [r4, #8]
 1157 008e FFF7FEFF 		bl	CySysWdtSetMode
 1158              	.LVL102:
1638:.\Generated_Source\PSoC4/CyLFClk.c ****             lfclkPosedgeWdtCounter0Enabled = 0u;
 1159              		.loc 1 1638 0
 1160 0092 0023     		mov	r3, #0
 1161 0094 6360     		str	r3, [r4, #4]
 1162              	.L108:
 1163              	.LBE103:
 1164              	.LBE102:
 116:.\Generated_Source\PSoC4/CyLFClk.c **** 
 1165              		.loc 1 116 0
 1166 0096 0198     		ldr	r0, [sp, #4]
 1167 0098 FFF7FEFF 		bl	CyExitCriticalSection
 1168              	.LVL103:
 1169              	.L101:
 131:.\Generated_Source\PSoC4/CyLFClk.c **** 
 1170              		.loc 1 131 0
 1171              		@ sp needed
 1172 009c F7BD     		pop	{r0, r1, r2, r4, r5, r6, r7, pc}
 1173              	.L119:
 1174 009e C046     		.align	2
 1175              	.L118:
 1176 00a0 00010B40 		.word	1074462976
 1177 00a4 04010B40 		.word	1074462980
 1178 00a8 10020B40 		.word	1074463248
 1179 00ac 00000000 		.word	.LANCHOR0
 1180 00b0 0C020B40 		.word	1074463244
 1181              		.cfi_endproc
 1182              	.LFE1:
 1183              		.size	CySysClkIloStop, .-CySysClkIloStop
 1184              		.section	.text.CySysWdtGetInterruptSource,"ax",%progbits
 1185              		.align	1
 1186              		.global	CySysWdtGetInterruptSource
 1187              		.code	16
 1188              		.thumb_func
 1189              		.type	CySysWdtGetInterruptSource, %function
 1190              	CySysWdtGetInterruptSource:
 1191              	.LFB20:
1022:.\Generated_Source\PSoC4/CyLFClk.c ****         return (CY_SYS_WDT_CONTROL_REG & (CY_SYS_WDT_COUNTER0_INT | CY_SYS_WDT_COUNTER1_INT | CY_SY
 1192              		.loc 1 1022 0
 1193              		.cfi_startproc
1023:.\Generated_Source\PSoC4/CyLFClk.c ****     }
 1194              		.loc 1 1023 0
 1195 0000 024B     		ldr	r3, .L121
1024:.\Generated_Source\PSoC4/CyLFClk.c **** 
 1196              		.loc 1 1024 0
 1197              		@ sp needed
1023:.\Generated_Source\PSoC4/CyLFClk.c ****     }
 1198              		.loc 1 1023 0
 1199 0002 1868     		ldr	r0, [r3]
 1200 0004 024B     		ldr	r3, .L121+4
 1201 0006 1840     		and	r0, r3
1024:.\Generated_Source\PSoC4/CyLFClk.c **** 
 1202              		.loc 1 1024 0
 1203 0008 7047     		bx	lr
ARM GAS  C:\Users\Vit\AppData\Local\Temp\ccnJL0JJ.s 			page 52


 1204              	.L122:
 1205 000a C046     		.align	2
 1206              	.L121:
 1207 000c 10020B40 		.word	1074463248
 1208 0010 04040400 		.word	263172
 1209              		.cfi_endproc
 1210              	.LFE20:
 1211              		.size	CySysWdtGetInterruptSource, .-CySysWdtGetInterruptSource
 1212              		.section	.text.CySysWdtClearInterrupt,"ax",%progbits
 1213              		.align	1
 1214              		.global	CySysWdtClearInterrupt
 1215              		.code	16
 1216              		.thumb_func
 1217              		.type	CySysWdtClearInterrupt, %function
 1218              	CySysWdtClearInterrupt:
 1219              	.LFB21:
1056:.\Generated_Source\PSoC4/CyLFClk.c ****         uint8 interruptState;
 1220              		.loc 1 1056 0
 1221              		.cfi_startproc
 1222              	.LVL104:
 1223 0000 70B5     		push	{r4, r5, r6, lr}
 1224              		.cfi_def_cfa_offset 16
 1225              		.cfi_offset 4, -16
 1226              		.cfi_offset 5, -12
 1227              		.cfi_offset 6, -8
 1228              		.cfi_offset 14, -4
1056:.\Generated_Source\PSoC4/CyLFClk.c ****         uint8 interruptState;
 1229              		.loc 1 1056 0
 1230 0002 051C     		mov	r5, r0
1060:.\Generated_Source\PSoC4/CyLFClk.c **** 
 1231              		.loc 1 1060 0
 1232 0004 FFF7FEFF 		bl	CyEnterCriticalSection
 1233              	.LVL105:
 1234              	.LBB106:
 1235              	.LBB107:
 437:.\Generated_Source\PSoC4/CyLFClk.c ****     }
 1236              		.loc 1 437 0
 1237 0008 0E4B     		ldr	r3, .L128
 1238              	.LBE107:
 1239              	.LBE106:
1060:.\Generated_Source\PSoC4/CyLFClk.c **** 
 1240              		.loc 1 1060 0
 1241 000a 041C     		mov	r4, r0
 1242              	.LVL106:
 1243              	.LBB109:
 1244              	.LBB108:
 437:.\Generated_Source\PSoC4/CyLFClk.c ****     }
 1245              		.loc 1 437 0
 1246 000c 1A68     		ldr	r2, [r3]
 1247 000e C023     		mov	r3, #192
 1248 0010 1B02     		lsl	r3, r3, #8
 1249 0012 1340     		and	r3, r2
 1250 0014 11D1     		bne	.L124
 1251              	.L126:
 1252              	.LVL107:
 1253              	.LBE108:
 1254              	.LBE109:
ARM GAS  C:\Users\Vit\AppData\Local\Temp\ccnJL0JJ.s 			page 53


1073:.\Generated_Source\PSoC4/CyLFClk.c ****                         CY_SYS_WDT_COUNTER1_INT |
 1255              		.loc 1 1073 0
 1256 0016 0C48     		ldr	r0, .L128+4
1077:.\Generated_Source\PSoC4/CyLFClk.c ****                                                                            CY_SYS_WDT_COUNTER1_INT 
 1257              		.loc 1 1077 0
 1258 0018 0C49     		ldr	r1, .L128+8
1073:.\Generated_Source\PSoC4/CyLFClk.c ****                         CY_SYS_WDT_COUNTER1_INT |
 1259              		.loc 1 1073 0
 1260 001a 0540     		and	r5, r0
 1261              	.LVL108:
1077:.\Generated_Source\PSoC4/CyLFClk.c ****                                                                            CY_SYS_WDT_COUNTER1_INT 
 1262              		.loc 1 1077 0
 1263 001c 281C     		mov	r0, r5
 1264 001e 0E68     		ldr	r6, [r1]
 1265 0020 0B4A     		ldr	r2, .L128+12
 1266 0022 3240     		and	r2, r6
 1267 0024 1043     		orr	r0, r2
 1268 0026 0860     		str	r0, [r1]
1084:.\Generated_Source\PSoC4/CyLFClk.c **** 
 1269              		.loc 1 1084 0
 1270 0028 0A68     		ldr	r2, [r1]
1086:.\Generated_Source\PSoC4/CyLFClk.c ****         {
 1271              		.loc 1 1086 0
 1272 002a 012B     		cmp	r3, #1
 1273 002c 01D1     		bne	.L125
 1274              	.LVL109:
1088:.\Generated_Source\PSoC4/CyLFClk.c ****         }
 1275              		.loc 1 1088 0
 1276 002e FFF7FEFF 		bl	CySysWdtLock
 1277              	.LVL110:
 1278              	.L125:
1091:.\Generated_Source\PSoC4/CyLFClk.c ****     }
 1279              		.loc 1 1091 0
 1280 0032 201C     		mov	r0, r4
 1281 0034 FFF7FEFF 		bl	CyExitCriticalSection
 1282              	.LVL111:
1092:.\Generated_Source\PSoC4/CyLFClk.c **** 
 1283              		.loc 1 1092 0
 1284              		@ sp needed
 1285              	.LVL112:
 1286 0038 70BD     		pop	{r4, r5, r6, pc}
 1287              	.LVL113:
 1288              	.L124:
1065:.\Generated_Source\PSoC4/CyLFClk.c ****         }
 1289              		.loc 1 1065 0
 1290 003a FFF7FEFF 		bl	CySysWdtUnlock
 1291              	.LVL114:
1064:.\Generated_Source\PSoC4/CyLFClk.c ****             CySysWdtUnlock();
 1292              		.loc 1 1064 0
 1293 003e 0123     		mov	r3, #1
 1294 0040 E9E7     		b	.L126
 1295              	.L129:
 1296 0042 C046     		.align	2
 1297              	.L128:
 1298 0044 00010B40 		.word	1074462976
 1299 0048 04040400 		.word	263172
 1300 004c 10020B40 		.word	1074463248
ARM GAS  C:\Users\Vit\AppData\Local\Temp\ccnJL0JJ.s 			page 54


 1301 0050 FBFBFBFF 		.word	-263173
 1302              		.cfi_endproc
 1303              	.LFE21:
 1304              		.size	CySysWdtClearInterrupt, .-CySysWdtClearInterrupt
 1305              		.section	.text.CySysWdtResetCounters,"ax",%progbits
 1306              		.align	1
 1307              		.global	CySysWdtResetCounters
 1308              		.code	16
 1309              		.thumb_func
 1310              		.type	CySysWdtResetCounters, %function
 1311              	CySysWdtResetCounters:
 1312              	.LFB22:
1120:.\Generated_Source\PSoC4/CyLFClk.c ****         /* Set new WDT reset value */
 1313              		.loc 1 1120 0
 1314              		.cfi_startproc
 1315              	.LVL115:
1122:.\Generated_Source\PSoC4/CyLFClk.c **** 
 1316              		.loc 1 1122 0
 1317 0000 044B     		ldr	r3, .L132
 1318 0002 054A     		ldr	r2, .L132+4
 1319 0004 1968     		ldr	r1, [r3]
 1320 0006 1040     		and	r0, r2
 1321              	.LVL116:
 1322 0008 0843     		orr	r0, r1
 1323 000a 1860     		str	r0, [r3]
 1324              	.L131:
1124:.\Generated_Source\PSoC4/CyLFClk.c ****         {
 1325              		.loc 1 1124 0 discriminator 1
 1326 000c 1968     		ldr	r1, [r3]
 1327 000e 1142     		tst	r1, r2
 1328 0010 FCD1     		bne	.L131
1128:.\Generated_Source\PSoC4/CyLFClk.c **** 
 1329              		.loc 1 1128 0
 1330              		@ sp needed
 1331 0012 7047     		bx	lr
 1332              	.L133:
 1333              		.align	2
 1334              	.L132:
 1335 0014 10020B40 		.word	1074463248
 1336 0018 08080800 		.word	526344
 1337              		.cfi_endproc
 1338              	.LFE22:
 1339              		.size	CySysWdtResetCounters, .-CySysWdtResetCounters
 1340              		.section	.text.CySysWdtSetInterruptCallback,"ax",%progbits
 1341              		.align	1
 1342              		.global	CySysWdtSetInterruptCallback
 1343              		.code	16
 1344              		.thumb_func
 1345              		.type	CySysWdtSetInterruptCallback, %function
 1346              	CySysWdtSetInterruptCallback:
 1347              	.LFB23:
1149:.\Generated_Source\PSoC4/CyLFClk.c ****         cyWdtCallback prevCallback = (void *)0;
 1348              		.loc 1 1149 0
 1349              		.cfi_startproc
 1350              	.LVL117:
 1351 0000 08B5     		push	{r3, lr}
 1352              		.cfi_def_cfa_offset 8
ARM GAS  C:\Users\Vit\AppData\Local\Temp\ccnJL0JJ.s 			page 55


 1353              		.cfi_offset 3, -8
 1354              		.cfi_offset 14, -4
1152:.\Generated_Source\PSoC4/CyLFClk.c ****         {
 1355              		.loc 1 1152 0
 1356 0002 0228     		cmp	r0, #2
 1357 0004 05D8     		bhi	.L135
1154:.\Generated_Source\PSoC4/CyLFClk.c ****             cySysWdtCallback[counterNum] = function;
 1358              		.loc 1 1154 0
 1359 0006 054B     		ldr	r3, .L137
 1360 0008 8000     		lsl	r0, r0, #2
 1361              	.LVL118:
 1362 000a 1B18     		add	r3, r3, r0
 1363 000c D868     		ldr	r0, [r3, #12]
 1364              	.LVL119:
1155:.\Generated_Source\PSoC4/CyLFClk.c ****         }
 1365              		.loc 1 1155 0
 1366 000e D960     		str	r1, [r3, #12]
 1367 0010 03E0     		b	.L136
 1368              	.LVL120:
 1369              	.L135:
1159:.\Generated_Source\PSoC4/CyLFClk.c ****         }
 1370              		.loc 1 1159 0 discriminator 1
 1371 0012 0020     		mov	r0, #0
 1372              	.LVL121:
 1373 0014 FFF7FEFF 		bl	CyHalt
 1374              	.LVL122:
1150:.\Generated_Source\PSoC4/CyLFClk.c **** 
 1375              		.loc 1 1150 0 discriminator 1
 1376 0018 0020     		mov	r0, #0
 1377              	.LVL123:
 1378              	.L136:
1163:.\Generated_Source\PSoC4/CyLFClk.c **** 
 1379              		.loc 1 1163 0
 1380              		@ sp needed
 1381 001a 08BD     		pop	{r3, pc}
 1382              	.L138:
 1383              		.align	2
 1384              	.L137:
 1385 001c 00000000 		.word	.LANCHOR0
 1386              		.cfi_endproc
 1387              	.LFE23:
 1388              		.size	CySysWdtSetInterruptCallback, .-CySysWdtSetInterruptCallback
 1389              		.section	.text.CySysWdtGetInterruptCallback,"ax",%progbits
 1390              		.align	1
 1391              		.global	CySysWdtGetInterruptCallback
 1392              		.code	16
 1393              		.thumb_func
 1394              		.type	CySysWdtGetInterruptCallback, %function
 1395              	CySysWdtGetInterruptCallback:
 1396              	.LFB24:
1182:.\Generated_Source\PSoC4/CyLFClk.c ****         cyWdtCallback retCallback = (void *)0;
 1397              		.loc 1 1182 0
 1398              		.cfi_startproc
 1399              	.LVL124:
 1400 0000 08B5     		push	{r3, lr}
 1401              		.cfi_def_cfa_offset 8
 1402              		.cfi_offset 3, -8
ARM GAS  C:\Users\Vit\AppData\Local\Temp\ccnJL0JJ.s 			page 56


 1403              		.cfi_offset 14, -4
1185:.\Generated_Source\PSoC4/CyLFClk.c ****         {
 1404              		.loc 1 1185 0
 1405 0002 0228     		cmp	r0, #2
 1406 0004 04D8     		bhi	.L140
1187:.\Generated_Source\PSoC4/CyLFClk.c ****         }
 1407              		.loc 1 1187 0
 1408 0006 054B     		ldr	r3, .L142
 1409 0008 8000     		lsl	r0, r0, #2
 1410              	.LVL125:
 1411 000a 1818     		add	r0, r3, r0
 1412 000c C068     		ldr	r0, [r0, #12]
 1413              	.LVL126:
 1414 000e 03E0     		b	.L141
 1415              	.LVL127:
 1416              	.L140:
1191:.\Generated_Source\PSoC4/CyLFClk.c ****         }
 1417              		.loc 1 1191 0 discriminator 1
 1418 0010 0020     		mov	r0, #0
 1419              	.LVL128:
 1420 0012 FFF7FEFF 		bl	CyHalt
 1421              	.LVL129:
1183:.\Generated_Source\PSoC4/CyLFClk.c **** 
 1422              		.loc 1 1183 0 discriminator 1
 1423 0016 0020     		mov	r0, #0
 1424              	.LVL130:
 1425              	.L141:
1195:.\Generated_Source\PSoC4/CyLFClk.c **** 
 1426              		.loc 1 1195 0
 1427              		@ sp needed
 1428 0018 08BD     		pop	{r3, pc}
 1429              	.L143:
 1430 001a C046     		.align	2
 1431              	.L142:
 1432 001c 00000000 		.word	.LANCHOR0
 1433              		.cfi_endproc
 1434              	.LFE24:
 1435              		.size	CySysWdtGetInterruptCallback, .-CySysWdtGetInterruptCallback
 1436              		.section	.text.CySysWdtEnableCounterIsr,"ax",%progbits
 1437              		.align	1
 1438              		.global	CySysWdtEnableCounterIsr
 1439              		.code	16
 1440              		.thumb_func
 1441              		.type	CySysWdtEnableCounterIsr, %function
 1442              	CySysWdtEnableCounterIsr:
 1443              	.LFB25:
1210:.\Generated_Source\PSoC4/CyLFClk.c ****         if(counterNum <= CY_SYS_WDT_COUNTER2)
 1444              		.loc 1 1210 0
 1445              		.cfi_startproc
 1446              	.LVL131:
 1447 0000 08B5     		push	{r3, lr}
 1448              		.cfi_def_cfa_offset 8
 1449              		.cfi_offset 3, -8
 1450              		.cfi_offset 14, -4
1211:.\Generated_Source\PSoC4/CyLFClk.c ****         {
 1451              		.loc 1 1211 0
 1452 0002 0228     		cmp	r0, #2
ARM GAS  C:\Users\Vit\AppData\Local\Temp\ccnJL0JJ.s 			page 57


 1453 0004 0BD8     		bhi	.L145
1213:.\Generated_Source\PSoC4/CyLFClk.c ****             wdtIsrMask |= counterIntMaskTbl[counterNum];
 1454              		.loc 1 1213 0
 1455 0006 084B     		ldr	r3, .L147
 1456 0008 0849     		ldr	r1, .L147+4
 1457 000a 8000     		lsl	r0, r0, #2
 1458              	.LVL132:
 1459 000c 9A69     		ldr	r2, [r3, #24]
 1460 000e 4158     		ldr	r1, [r0, r1]
 1461 0010 8A43     		bic	r2, r1
 1462 0012 9A61     		str	r2, [r3, #24]
1214:.\Generated_Source\PSoC4/CyLFClk.c ****         }
 1463              		.loc 1 1214 0
 1464 0014 064A     		ldr	r2, .L147+8
 1465 0016 1368     		ldr	r3, [r2]
 1466 0018 0B43     		orr	r3, r1
 1467 001a 1360     		str	r3, [r2]
 1468 001c 02E0     		b	.L144
 1469              	.LVL133:
 1470              	.L145:
1218:.\Generated_Source\PSoC4/CyLFClk.c ****         }
 1471              		.loc 1 1218 0 discriminator 1
 1472 001e 0020     		mov	r0, #0
 1473              	.LVL134:
 1474 0020 FFF7FEFF 		bl	CyHalt
 1475              	.LVL135:
 1476              	.L144:
1220:.\Generated_Source\PSoC4/CyLFClk.c **** 
 1477              		.loc 1 1220 0
 1478              		@ sp needed
 1479 0024 08BD     		pop	{r3, pc}
 1480              	.L148:
 1481 0026 C046     		.align	2
 1482              	.L147:
 1483 0028 00000000 		.word	.LANCHOR0
 1484 002c 00000000 		.word	.LANCHOR1
 1485 0030 00000000 		.word	.LANCHOR2
 1486              		.cfi_endproc
 1487              	.LFE25:
 1488              		.size	CySysWdtEnableCounterIsr, .-CySysWdtEnableCounterIsr
 1489              		.section	.text.CySysWdtDisableCounterIsr,"ax",%progbits
 1490              		.align	1
 1491              		.global	CySysWdtDisableCounterIsr
 1492              		.code	16
 1493              		.thumb_func
 1494              		.type	CySysWdtDisableCounterIsr, %function
 1495              	CySysWdtDisableCounterIsr:
 1496              	.LFB26:
1235:.\Generated_Source\PSoC4/CyLFClk.c ****         if(counterNum <= CY_SYS_WDT_COUNTER2)
 1497              		.loc 1 1235 0
 1498              		.cfi_startproc
 1499              	.LVL136:
 1500 0000 08B5     		push	{r3, lr}
 1501              		.cfi_def_cfa_offset 8
 1502              		.cfi_offset 3, -8
 1503              		.cfi_offset 14, -4
1236:.\Generated_Source\PSoC4/CyLFClk.c ****         {
ARM GAS  C:\Users\Vit\AppData\Local\Temp\ccnJL0JJ.s 			page 58


 1504              		.loc 1 1236 0
 1505 0002 0228     		cmp	r0, #2
 1506 0004 07D8     		bhi	.L150
1238:.\Generated_Source\PSoC4/CyLFClk.c ****         }
 1507              		.loc 1 1238 0
 1508 0006 064A     		ldr	r2, .L152
 1509 0008 0649     		ldr	r1, .L152+4
 1510 000a 8000     		lsl	r0, r0, #2
 1511              	.LVL137:
 1512 000c 1368     		ldr	r3, [r2]
 1513 000e 4158     		ldr	r1, [r0, r1]
 1514 0010 8B43     		bic	r3, r1
 1515 0012 1360     		str	r3, [r2]
 1516 0014 02E0     		b	.L149
 1517              	.LVL138:
 1518              	.L150:
1242:.\Generated_Source\PSoC4/CyLFClk.c ****         }
 1519              		.loc 1 1242 0 discriminator 1
 1520 0016 0020     		mov	r0, #0
 1521              	.LVL139:
 1522 0018 FFF7FEFF 		bl	CyHalt
 1523              	.LVL140:
 1524              	.L149:
1244:.\Generated_Source\PSoC4/CyLFClk.c **** 
 1525              		.loc 1 1244 0
 1526              		@ sp needed
 1527 001c 08BD     		pop	{r3, pc}
 1528              	.L153:
 1529 001e C046     		.align	2
 1530              	.L152:
 1531 0020 00000000 		.word	.LANCHOR2
 1532 0024 00000000 		.word	.LANCHOR1
 1533              		.cfi_endproc
 1534              	.LFE26:
 1535              		.size	CySysWdtDisableCounterIsr, .-CySysWdtDisableCounterIsr
 1536              		.section	.text.CySysWdtIsr,"ax",%progbits
 1537              		.align	1
 1538              		.global	CySysWdtIsr
 1539              		.code	16
 1540              		.thumb_func
 1541              		.type	CySysWdtIsr, %function
 1542              	CySysWdtIsr:
 1543              	.LFB27:
1273:.\Generated_Source\PSoC4/CyLFClk.c ****         if(0u != (CY_SYS_WDT_COUNTER0_INT & CY_SYS_WDT_CONTROL_REG))
 1544              		.loc 1 1273 0
 1545              		.cfi_startproc
1274:.\Generated_Source\PSoC4/CyLFClk.c ****         {
 1546              		.loc 1 1274 0
 1547 0000 0422     		mov	r2, #4
1273:.\Generated_Source\PSoC4/CyLFClk.c ****         if(0u != (CY_SYS_WDT_COUNTER0_INT & CY_SYS_WDT_CONTROL_REG))
 1548              		.loc 1 1273 0
 1549 0002 38B5     		push	{r3, r4, r5, lr}
 1550              		.cfi_def_cfa_offset 16
 1551              		.cfi_offset 3, -16
 1552              		.cfi_offset 4, -12
 1553              		.cfi_offset 5, -8
 1554              		.cfi_offset 14, -4
ARM GAS  C:\Users\Vit\AppData\Local\Temp\ccnJL0JJ.s 			page 59


1274:.\Generated_Source\PSoC4/CyLFClk.c ****         {
 1555              		.loc 1 1274 0
 1556 0004 224C     		ldr	r4, .L186
 1557 0006 2368     		ldr	r3, [r4]
 1558 0008 1342     		tst	r3, r2
 1559 000a 13D0     		beq	.L155
1276:.\Generated_Source\PSoC4/CyLFClk.c ****             {
 1560              		.loc 1 1276 0
 1561 000c 2149     		ldr	r1, .L186+4
 1562 000e 0B68     		ldr	r3, [r1]
 1563 0010 1342     		tst	r3, r2
 1564 0012 0CD0     		beq	.L157
1278:.\Generated_Source\PSoC4/CyLFClk.c ****                 disableServicedIsr  &= ~CY_SYS_WDT_COUNTER0_INT;
 1565              		.loc 1 1278 0
 1566 0014 204B     		ldr	r3, .L186+8
 1567 0016 9D69     		ldr	r5, [r3, #24]
 1568 0018 0868     		ldr	r0, [r1]
 1569 001a 1540     		and	r5, r2
 1570 001c A843     		bic	r0, r5
 1571 001e 0860     		str	r0, [r1]
1279:.\Generated_Source\PSoC4/CyLFClk.c ****                 if(cySysWdtCallback[CY_SYS_WDT_COUNTER0] != (void *) 0)
 1572              		.loc 1 1279 0
 1573 0020 9969     		ldr	r1, [r3, #24]
 1574 0022 9143     		bic	r1, r2
 1575 0024 9961     		str	r1, [r3, #24]
1280:.\Generated_Source\PSoC4/CyLFClk.c ****                 {
 1576              		.loc 1 1280 0
 1577 0026 DB68     		ldr	r3, [r3, #12]
 1578 0028 002B     		cmp	r3, #0
 1579 002a 00D0     		beq	.L157
1282:.\Generated_Source\PSoC4/CyLFClk.c ****                 }
 1580              		.loc 1 1282 0
 1581 002c 9847     		blx	r3
 1582              	.LVL141:
 1583              	.L157:
1285:.\Generated_Source\PSoC4/CyLFClk.c ****         }
 1584              		.loc 1 1285 0
 1585 002e 0420     		mov	r0, #4
 1586 0030 FFF7FEFF 		bl	CySysWdtClearInterrupt
 1587              	.LVL142:
 1588              	.L155:
1288:.\Generated_Source\PSoC4/CyLFClk.c ****         {
 1589              		.loc 1 1288 0
 1590 0034 8023     		mov	r3, #128
 1591 0036 2268     		ldr	r2, [r4]
 1592 0038 DB00     		lsl	r3, r3, #3
 1593 003a 1A42     		tst	r2, r3
 1594 003c 15D0     		beq	.L159
1290:.\Generated_Source\PSoC4/CyLFClk.c ****             {
 1595              		.loc 1 1290 0
 1596 003e 1549     		ldr	r1, .L186+4
 1597 0040 0A68     		ldr	r2, [r1]
 1598 0042 1A42     		tst	r2, r3
 1599 0044 0DD0     		beq	.L161
1292:.\Generated_Source\PSoC4/CyLFClk.c ****                 disableServicedIsr  &= ~CY_SYS_WDT_COUNTER1_INT;
 1600              		.loc 1 1292 0
 1601 0046 144A     		ldr	r2, .L186+8
ARM GAS  C:\Users\Vit\AppData\Local\Temp\ccnJL0JJ.s 			page 60


 1602 0048 9569     		ldr	r5, [r2, #24]
 1603 004a 0868     		ldr	r0, [r1]
 1604 004c 2B40     		and	r3, r5
 1605 004e 9843     		bic	r0, r3
 1606 0050 0860     		str	r0, [r1]
1293:.\Generated_Source\PSoC4/CyLFClk.c ****                 if(cySysWdtCallback[CY_SYS_WDT_COUNTER1] != (void *) 0)
 1607              		.loc 1 1293 0
 1608 0052 9169     		ldr	r1, [r2, #24]
 1609 0054 114B     		ldr	r3, .L186+12
 1610 0056 0B40     		and	r3, r1
 1611 0058 9361     		str	r3, [r2, #24]
1294:.\Generated_Source\PSoC4/CyLFClk.c ****                 {
 1612              		.loc 1 1294 0
 1613 005a 1369     		ldr	r3, [r2, #16]
 1614 005c 002B     		cmp	r3, #0
 1615 005e 00D0     		beq	.L161
1296:.\Generated_Source\PSoC4/CyLFClk.c ****                 }
 1616              		.loc 1 1296 0
 1617 0060 9847     		blx	r3
 1618              	.LVL143:
 1619              	.L161:
1299:.\Generated_Source\PSoC4/CyLFClk.c ****         }
 1620              		.loc 1 1299 0
 1621 0062 8020     		mov	r0, #128
 1622 0064 C000     		lsl	r0, r0, #3
 1623 0066 FFF7FEFF 		bl	CySysWdtClearInterrupt
 1624              	.LVL144:
 1625              	.L159:
1302:.\Generated_Source\PSoC4/CyLFClk.c ****         {
 1626              		.loc 1 1302 0
 1627 006a 8023     		mov	r3, #128
 1628 006c 2268     		ldr	r2, [r4]
 1629 006e DB02     		lsl	r3, r3, #11
 1630 0070 1A42     		tst	r2, r3
 1631 0072 0CD0     		beq	.L154
1304:.\Generated_Source\PSoC4/CyLFClk.c ****             {
 1632              		.loc 1 1304 0
 1633 0074 074A     		ldr	r2, .L186+4
 1634 0076 1268     		ldr	r2, [r2]
 1635 0078 1A42     		tst	r2, r3
 1636 007a 04D0     		beq	.L164
1306:.\Generated_Source\PSoC4/CyLFClk.c ****                 {
 1637              		.loc 1 1306 0
 1638 007c 064B     		ldr	r3, .L186+8
 1639 007e 5B69     		ldr	r3, [r3, #20]
 1640 0080 002B     		cmp	r3, #0
 1641 0082 00D0     		beq	.L164
1308:.\Generated_Source\PSoC4/CyLFClk.c ****                 }
 1642              		.loc 1 1308 0
 1643 0084 9847     		blx	r3
 1644              	.LVL145:
 1645              	.L164:
1311:.\Generated_Source\PSoC4/CyLFClk.c ****         }
 1646              		.loc 1 1311 0
 1647 0086 8020     		mov	r0, #128
 1648 0088 C002     		lsl	r0, r0, #11
 1649 008a FFF7FEFF 		bl	CySysWdtClearInterrupt
ARM GAS  C:\Users\Vit\AppData\Local\Temp\ccnJL0JJ.s 			page 61


 1650              	.LVL146:
 1651              	.L154:
1313:.\Generated_Source\PSoC4/CyLFClk.c **** 
 1652              		.loc 1 1313 0
 1653              		@ sp needed
 1654 008e 38BD     		pop	{r3, r4, r5, pc}
 1655              	.L187:
 1656              		.align	2
 1657              	.L186:
 1658 0090 10020B40 		.word	1074463248
 1659 0094 00000000 		.word	.LANCHOR2
 1660 0098 00000000 		.word	.LANCHOR0
 1661 009c FFFBFFFF 		.word	-1025
 1662              		.cfi_endproc
 1663              	.LFE27:
 1664              		.size	CySysWdtIsr, .-CySysWdtIsr
 1665              		.section	.text.CySysTimerDelayUntilMatch,"ax",%progbits
 1666              		.align	1
 1667              		.global	CySysTimerDelayUntilMatch
 1668              		.code	16
 1669              		.thumb_func
 1670              		.type	CySysTimerDelayUntilMatch, %function
 1671              	CySysTimerDelayUntilMatch:
 1672              	.LFB29:
1448:.\Generated_Source\PSoC4/CyLFClk.c ****         uint32 tmpValue;
 1673              		.loc 1 1448 0
 1674              		.cfi_startproc
 1675              	.LVL147:
 1676 0000 70B5     		push	{r4, r5, r6, lr}
 1677              		.cfi_def_cfa_offset 16
 1678              		.cfi_offset 4, -16
 1679              		.cfi_offset 5, -12
 1680              		.cfi_offset 6, -8
 1681              		.cfi_offset 14, -4
1448:.\Generated_Source\PSoC4/CyLFClk.c ****         uint32 tmpValue;
 1682              		.loc 1 1448 0
 1683 0002 041C     		mov	r4, r0
 1684 0004 0E1C     		mov	r6, r1
 1685 0006 151C     		mov	r5, r2
1451:.\Generated_Source\PSoC4/CyLFClk.c ****         {
 1686              		.loc 1 1451 0
 1687 0008 0128     		cmp	r0, #1
 1688 000a 23D8     		bhi	.L189
1451:.\Generated_Source\PSoC4/CyLFClk.c ****         {
 1689              		.loc 1 1451 0 is_stmt 0 discriminator 1
 1690 000c FFF7FEFF 		bl	CySysWdtGetClearOnMatch
 1691              	.LVL148:
 1692 0010 0028     		cmp	r0, #0
 1693 0012 1FD1     		bne	.L189
1451:.\Generated_Source\PSoC4/CyLFClk.c ****         {
 1694              		.loc 1 1451 0 discriminator 2
 1695 0014 114B     		ldr	r3, .L194
 1696 0016 9D42     		cmp	r5, r3
 1697 0018 1CD8     		bhi	.L189
1453:.\Generated_Source\PSoC4/CyLFClk.c ****             {
 1698              		.loc 1 1453 0 is_stmt 1
 1699 001a 002E     		cmp	r6, #0
ARM GAS  C:\Users\Vit\AppData\Local\Temp\ccnJL0JJ.s 			page 62


 1700 001c 0AD1     		bne	.L190
 1701              	.L191:
1457:.\Generated_Source\PSoC4/CyLFClk.c ****                 }while(tmpValue > match);
 1702              		.loc 1 1457 0 discriminator 1
 1703 001e 201C     		mov	r0, r4
 1704 0020 FFF7FEFF 		bl	CySysWdtGetCount
 1705              	.LVL149:
1458:.\Generated_Source\PSoC4/CyLFClk.c **** 
 1706              		.loc 1 1458 0 discriminator 1
 1707 0024 A842     		cmp	r0, r5
 1708 0026 FAD8     		bhi	.L191
 1709              	.L192:
1462:.\Generated_Source\PSoC4/CyLFClk.c ****                 }while(tmpValue < match);
 1710              		.loc 1 1462 0 discriminator 1
 1711 0028 201C     		mov	r0, r4
 1712              	.LVL150:
 1713 002a FFF7FEFF 		bl	CySysWdtGetCount
 1714              	.LVL151:
1463:.\Generated_Source\PSoC4/CyLFClk.c ****             }
 1715              		.loc 1 1463 0 discriminator 1
 1716 002e A842     		cmp	r0, r5
 1717 0030 FAD3     		bcc	.L192
 1718 0032 12E0     		b	.L188
 1719              	.LVL152:
 1720              	.L190:
 1721              	.LBB112:
 1722              	.LBB113:
1467:.\Generated_Source\PSoC4/CyLFClk.c ****                 CySysWdtSetMatch(counterNum, match);
 1723              		.loc 1 1467 0
 1724 0034 0A4B     		ldr	r3, .L194+4
 1725 0036 A200     		lsl	r2, r4, #2
1468:.\Generated_Source\PSoC4/CyLFClk.c **** 
 1726              		.loc 1 1468 0
 1727 0038 201C     		mov	r0, r4
 1728 003a 291C     		mov	r1, r5
1467:.\Generated_Source\PSoC4/CyLFClk.c ****                 CySysWdtSetMatch(counterNum, match);
 1729              		.loc 1 1467 0
 1730 003c D658     		ldr	r6, [r2, r3]
 1731              	.LVL153:
1468:.\Generated_Source\PSoC4/CyLFClk.c **** 
 1732              		.loc 1 1468 0
 1733 003e FFF7FEFF 		bl	CySysWdtSetMatch
 1734              	.LVL154:
1470:.\Generated_Source\PSoC4/CyLFClk.c ****                 wdtIsrMask |= tmpValue;
 1735              		.loc 1 1470 0
 1736 0042 084A     		ldr	r2, .L194+8
 1737 0044 9369     		ldr	r3, [r2, #24]
 1738 0046 3343     		orr	r3, r6
 1739 0048 9361     		str	r3, [r2, #24]
1471:.\Generated_Source\PSoC4/CyLFClk.c ****             }
 1740              		.loc 1 1471 0
 1741 004a 074A     		ldr	r2, .L194+12
 1742 004c 1368     		ldr	r3, [r2]
 1743 004e 3343     		orr	r3, r6
 1744 0050 1360     		str	r3, [r2]
 1745 0052 02E0     		b	.L188
 1746              	.LVL155:
ARM GAS  C:\Users\Vit\AppData\Local\Temp\ccnJL0JJ.s 			page 63


 1747              	.L189:
 1748              	.LBE113:
 1749              	.LBE112:
1476:.\Generated_Source\PSoC4/CyLFClk.c ****         }
 1750              		.loc 1 1476 0
 1751 0054 0020     		mov	r0, #0
 1752 0056 FFF7FEFF 		bl	CyHalt
 1753              	.LVL156:
 1754              	.L188:
1478:.\Generated_Source\PSoC4/CyLFClk.c **** 
 1755              		.loc 1 1478 0
 1756              		@ sp needed
 1757              	.LVL157:
 1758              	.LVL158:
 1759 005a 70BD     		pop	{r4, r5, r6, pc}
 1760              	.L195:
 1761              		.align	2
 1762              	.L194:
 1763 005c FFFF0000 		.word	65535
 1764 0060 00000000 		.word	.LANCHOR1
 1765 0064 00000000 		.word	.LANCHOR0
 1766 0068 00000000 		.word	.LANCHOR2
 1767              		.cfi_endproc
 1768              	.LFE29:
 1769              		.size	CySysTimerDelayUntilMatch, .-CySysTimerDelayUntilMatch
 1770              		.section	.text.CySysTimerDelay,"ax",%progbits
 1771              		.align	1
 1772              		.global	CySysTimerDelay
 1773              		.code	16
 1774              		.thumb_func
 1775              		.type	CySysTimerDelay, %function
 1776              	CySysTimerDelay:
 1777              	.LFB28:
1372:.\Generated_Source\PSoC4/CyLFClk.c ****         uint32 regValue;
 1778              		.loc 1 1372 0
 1779              		.cfi_startproc
 1780              	.LVL159:
 1781 0000 70B5     		push	{r4, r5, r6, lr}
 1782              		.cfi_def_cfa_offset 16
 1783              		.cfi_offset 4, -16
 1784              		.cfi_offset 5, -12
 1785              		.cfi_offset 6, -8
 1786              		.cfi_offset 14, -4
1372:.\Generated_Source\PSoC4/CyLFClk.c ****         uint32 regValue;
 1787              		.loc 1 1372 0
 1788 0002 051C     		mov	r5, r0
 1789 0004 0E1C     		mov	r6, r1
 1790 0006 141C     		mov	r4, r2
1376:.\Generated_Source\PSoC4/CyLFClk.c ****         {
 1791              		.loc 1 1376 0
 1792 0008 0128     		cmp	r0, #1
 1793 000a 10D8     		bhi	.L197
1376:.\Generated_Source\PSoC4/CyLFClk.c ****         {
 1794              		.loc 1 1376 0 is_stmt 0 discriminator 1
 1795 000c FFF7FEFF 		bl	CySysWdtGetClearOnMatch
 1796              	.LVL160:
 1797 0010 0028     		cmp	r0, #0
ARM GAS  C:\Users\Vit\AppData\Local\Temp\ccnJL0JJ.s 			page 64


 1798 0012 0CD1     		bne	.L197
1376:.\Generated_Source\PSoC4/CyLFClk.c ****         {
 1799              		.loc 1 1376 0 discriminator 2
 1800 0014 084B     		ldr	r3, .L199
 1801 0016 9C42     		cmp	r4, r3
 1802 0018 09D8     		bhi	.L197
1378:.\Generated_Source\PSoC4/CyLFClk.c ****             matchValue = (regValue + delay) & (uint32)UINT16_MAX_VAL;
 1803              		.loc 1 1378 0 is_stmt 1
 1804 001a 281C     		mov	r0, r5
 1805 001c FFF7FEFF 		bl	CySysWdtGetCount
 1806              	.LVL161:
1379:.\Generated_Source\PSoC4/CyLFClk.c **** 
 1807              		.loc 1 1379 0
 1808 0020 0219     		add	r2, r0, r4
 1809 0022 92B2     		uxth	r2, r2
1381:.\Generated_Source\PSoC4/CyLFClk.c ****         }
 1810              		.loc 1 1381 0
 1811 0024 281C     		mov	r0, r5
 1812              	.LVL162:
 1813 0026 311C     		mov	r1, r6
 1814 0028 FFF7FEFF 		bl	CySysTimerDelayUntilMatch
 1815              	.LVL163:
 1816 002c 02E0     		b	.L196
 1817              	.L197:
1385:.\Generated_Source\PSoC4/CyLFClk.c ****         }
 1818              		.loc 1 1385 0
 1819 002e 0020     		mov	r0, #0
 1820 0030 FFF7FEFF 		bl	CyHalt
 1821              	.LVL164:
 1822              	.L196:
1387:.\Generated_Source\PSoC4/CyLFClk.c **** 
 1823              		.loc 1 1387 0
 1824              		@ sp needed
 1825              	.LVL165:
 1826              	.LVL166:
 1827 0034 70BD     		pop	{r4, r5, r6, pc}
 1828              	.L200:
 1829 0036 C046     		.align	2
 1830              	.L199:
 1831 0038 FFFF0000 		.word	65535
 1832              		.cfi_endproc
 1833              	.LFE28:
 1834              		.size	CySysTimerDelay, .-CySysTimerDelay
 1835              		.section	.text.CySysWatchdogFeed,"ax",%progbits
 1836              		.align	1
 1837              		.global	CySysWatchdogFeed
 1838              		.code	16
 1839              		.thumb_func
 1840              		.type	CySysWatchdogFeed, %function
 1841              	CySysWatchdogFeed:
 1842              	.LFB30:
1501:.\Generated_Source\PSoC4/CyLFClk.c ****         if(counterNum == CY_SYS_WDT_COUNTER0)
 1843              		.loc 1 1501 0
 1844              		.cfi_startproc
 1845              	.LVL167:
 1846 0000 10B5     		push	{r4, lr}
 1847              		.cfi_def_cfa_offset 8
ARM GAS  C:\Users\Vit\AppData\Local\Temp\ccnJL0JJ.s 			page 65


 1848              		.cfi_offset 4, -8
 1849              		.cfi_offset 14, -4
1501:.\Generated_Source\PSoC4/CyLFClk.c ****         if(counterNum == CY_SYS_WDT_COUNTER0)
 1850              		.loc 1 1501 0
 1851 0002 041E     		sub	r4, r0, #0
1502:.\Generated_Source\PSoC4/CyLFClk.c ****         {
 1852              		.loc 1 1502 0
 1853 0004 0FD1     		bne	.L202
1504:.\Generated_Source\PSoC4/CyLFClk.c ****             {
 1854              		.loc 1 1504 0
 1855 0006 FFF7FEFF 		bl	CySysWdtGetMode
 1856              	.LVL168:
 1857 000a 0328     		cmp	r0, #3
 1858 000c 01D1     		bne	.L203
1506:.\Generated_Source\PSoC4/CyLFClk.c ****             }
 1859              		.loc 1 1506 0
 1860 000e 0238     		sub	r0, r0, #2
 1861 0010 1CE0     		b	.L208
 1862              	.L203:
1508:.\Generated_Source\PSoC4/CyLFClk.c ****             {
 1863              		.loc 1 1508 0
 1864 0012 201C     		mov	r0, r4
 1865 0014 FFF7FEFF 		bl	CySysWdtGetMode
 1866              	.LVL169:
 1867 0018 0228     		cmp	r0, #2
 1868 001a 19D1     		bne	.L201
1510:.\Generated_Source\PSoC4/CyLFClk.c ****                 CySysWdtClearInterrupt(CY_SYS_WDT_COUNTER0_MASK);
 1869              		.loc 1 1510 0
 1870 001c 0630     		add	r0, r0, #6
 1871 001e FFF7FEFF 		bl	CySysWdtResetCounters
 1872              	.LVL170:
1511:.\Generated_Source\PSoC4/CyLFClk.c ****             }
 1873              		.loc 1 1511 0
 1874 0022 0120     		mov	r0, #1
 1875 0024 12E0     		b	.L208
 1876              	.LVL171:
 1877              	.L202:
1518:.\Generated_Source\PSoC4/CyLFClk.c ****         {
 1878              		.loc 1 1518 0
 1879 0026 0128     		cmp	r0, #1
 1880 0028 12D1     		bne	.L201
1520:.\Generated_Source\PSoC4/CyLFClk.c ****             {
 1881              		.loc 1 1520 0
 1882 002a FFF7FEFF 		bl	CySysWdtGetMode
 1883              	.LVL172:
 1884 002e 0328     		cmp	r0, #3
 1885 0030 01D1     		bne	.L207
1522:.\Generated_Source\PSoC4/CyLFClk.c ****             }
 1886              		.loc 1 1522 0
 1887 0032 FD30     		add	r0, r0, #253
 1888 0034 0AE0     		b	.L208
 1889              	.L207:
1524:.\Generated_Source\PSoC4/CyLFClk.c ****             {
 1890              		.loc 1 1524 0
 1891 0036 201C     		mov	r0, r4
 1892 0038 FFF7FEFF 		bl	CySysWdtGetMode
 1893              	.LVL173:
ARM GAS  C:\Users\Vit\AppData\Local\Temp\ccnJL0JJ.s 			page 66


 1894 003c 0228     		cmp	r0, #2
 1895 003e 07D1     		bne	.L201
1526:.\Generated_Source\PSoC4/CyLFClk.c ****                 CySysWdtClearInterrupt(CY_SYS_WDT_COUNTER1_MASK);
 1896              		.loc 1 1526 0
 1897 0040 8020     		mov	r0, #128
 1898 0042 0001     		lsl	r0, r0, #4
 1899 0044 FFF7FEFF 		bl	CySysWdtResetCounters
 1900              	.LVL174:
1527:.\Generated_Source\PSoC4/CyLFClk.c ****             }
 1901              		.loc 1 1527 0
 1902 0048 8020     		mov	r0, #128
 1903 004a 4000     		lsl	r0, r0, #1
 1904              	.L208:
 1905 004c FFF7FEFF 		bl	CySysWdtClearInterrupt
 1906              	.LVL175:
 1907              	.L201:
1538:.\Generated_Source\PSoC4/CyLFClk.c **** 
 1908              		.loc 1 1538 0
 1909              		@ sp needed
 1910              	.LVL176:
 1911 0050 10BD     		pop	{r4, pc}
 1912              		.cfi_endproc
 1913              	.LFE30:
 1914              		.size	CySysWatchdogFeed, .-CySysWatchdogFeed
 1915              		.section	.rodata
 1916              		.align	2
 1917              		.set	.LANCHOR1,. + 0
 1918              		.type	counterIntMaskTbl, %object
 1919              		.size	counterIntMaskTbl, 12
 1920              	counterIntMaskTbl:
 1921 0000 04000000 		.word	4
 1922 0004 00040000 		.word	1024
 1923 0008 00000400 		.word	262144
 1924              		.data
 1925              		.align	2
 1926              		.set	.LANCHOR2,. + 0
 1927              		.type	wdtIsrMask, %object
 1928              		.size	wdtIsrMask, 4
 1929              	wdtIsrMask:
 1930 0000 04040400 		.word	263172
 1931              		.bss
 1932              		.align	2
 1933              		.set	.LANCHOR0,. + 0
 1934              		.type	lfclkPosedgeEnabledWdtCounter.4836, %object
 1935              		.size	lfclkPosedgeEnabledWdtCounter.4836, 4
 1936              	lfclkPosedgeEnabledWdtCounter.4836:
 1937 0000 00000000 		.space	4
 1938              		.type	lfclkPosedgeWdtCounter0Enabled, %object
 1939              		.size	lfclkPosedgeWdtCounter0Enabled, 4
 1940              	lfclkPosedgeWdtCounter0Enabled:
 1941 0004 00000000 		.space	4
 1942              		.type	lfclkPosedgeWdtCounter0Mode, %object
 1943              		.size	lfclkPosedgeWdtCounter0Mode, 4
 1944              	lfclkPosedgeWdtCounter0Mode:
 1945 0008 00000000 		.space	4
 1946              		.type	cySysWdtCallback, %object
 1947              		.size	cySysWdtCallback, 12
ARM GAS  C:\Users\Vit\AppData\Local\Temp\ccnJL0JJ.s 			page 67


 1948              	cySysWdtCallback:
 1949 000c 00000000 		.space	12
 1949      00000000 
 1949      00000000 
 1950              		.type	disableServicedIsr, %object
 1951              		.size	disableServicedIsr, 4
 1952              	disableServicedIsr:
 1953 0018 00000000 		.space	4
 1954              		.text
 1955              	.Letext0:
 1956              		.file 2 ".\\Generated_Source\\PSoC4\\cytypes.h"
 1957              		.file 3 ".\\Generated_Source\\PSoC4\\CyLFClk.h"
 1958              		.file 4 ".\\Generated_Source\\PSoC4\\CyLib.h"
 1959              		.section	.debug_info,"",%progbits
 1960              	.Ldebug_info0:
 1961 0000 6F0D0000 		.4byte	0xd6f
 1962 0004 0400     		.2byte	0x4
 1963 0006 00000000 		.4byte	.Ldebug_abbrev0
 1964 000a 04       		.byte	0x4
 1965 000b 01       		.uleb128 0x1
 1966 000c 07000000 		.4byte	.LASF81
 1967 0010 01       		.byte	0x1
 1968 0011 06040000 		.4byte	.LASF82
 1969 0015 5E030000 		.4byte	.LASF83
 1970 0019 D0000000 		.4byte	.Ldebug_ranges0+0xd0
 1971 001d 00000000 		.4byte	0
 1972 0021 00000000 		.4byte	.Ldebug_line0
 1973 0025 02       		.uleb128 0x2
 1974 0026 01       		.byte	0x1
 1975 0027 06       		.byte	0x6
 1976 0028 93010000 		.4byte	.LASF0
 1977 002c 02       		.uleb128 0x2
 1978 002d 01       		.byte	0x1
 1979 002e 08       		.byte	0x8
 1980 002f EB040000 		.4byte	.LASF1
 1981 0033 02       		.uleb128 0x2
 1982 0034 02       		.byte	0x2
 1983 0035 05       		.byte	0x5
 1984 0036 1D050000 		.4byte	.LASF2
 1985 003a 02       		.uleb128 0x2
 1986 003b 02       		.byte	0x2
 1987 003c 07       		.byte	0x7
 1988 003d 4B030000 		.4byte	.LASF3
 1989 0041 02       		.uleb128 0x2
 1990 0042 04       		.byte	0x4
 1991 0043 05       		.byte	0x5
 1992 0044 EE010000 		.4byte	.LASF4
 1993 0048 02       		.uleb128 0x2
 1994 0049 04       		.byte	0x4
 1995 004a 07       		.byte	0x7
 1996 004b EA020000 		.4byte	.LASF5
 1997 004f 02       		.uleb128 0x2
 1998 0050 08       		.byte	0x8
 1999 0051 05       		.byte	0x5
 2000 0052 85010000 		.4byte	.LASF6
 2001 0056 02       		.uleb128 0x2
 2002 0057 08       		.byte	0x8
ARM GAS  C:\Users\Vit\AppData\Local\Temp\ccnJL0JJ.s 			page 68


 2003 0058 07       		.byte	0x7
 2004 0059 56010000 		.4byte	.LASF7
 2005 005d 03       		.uleb128 0x3
 2006 005e 04       		.byte	0x4
 2007 005f 05       		.byte	0x5
 2008 0060 696E7400 		.ascii	"int\000"
 2009 0064 02       		.uleb128 0x2
 2010 0065 04       		.byte	0x4
 2011 0066 07       		.byte	0x7
 2012 0067 C6020000 		.4byte	.LASF8
 2013 006b 04       		.uleb128 0x4
 2014 006c 00020000 		.4byte	.LASF9
 2015 0070 02       		.byte	0x2
 2016 0071 C2       		.byte	0xc2
 2017 0072 2C000000 		.4byte	0x2c
 2018 0076 04       		.uleb128 0x4
 2019 0077 00000000 		.4byte	.LASF10
 2020 007b 02       		.byte	0x2
 2021 007c C3       		.byte	0xc3
 2022 007d 3A000000 		.4byte	0x3a
 2023 0081 04       		.uleb128 0x4
 2024 0082 31020000 		.4byte	.LASF11
 2025 0086 02       		.byte	0x2
 2026 0087 C4       		.byte	0xc4
 2027 0088 48000000 		.4byte	0x48
 2028 008c 02       		.uleb128 0x2
 2029 008d 04       		.byte	0x4
 2030 008e 04       		.byte	0x4
 2031 008f A5040000 		.4byte	.LASF12
 2032 0093 02       		.uleb128 0x2
 2033 0094 08       		.byte	0x8
 2034 0095 04       		.byte	0x4
 2035 0096 0D020000 		.4byte	.LASF13
 2036 009a 02       		.uleb128 0x2
 2037 009b 01       		.byte	0x1
 2038 009c 08       		.byte	0x8
 2039 009d 89050000 		.4byte	.LASF14
 2040 00a1 05       		.uleb128 0x5
 2041 00a2 29040000 		.4byte	.LASF15
 2042 00a6 02       		.byte	0x2
 2043 00a7 6E01     		.2byte	0x16e
 2044 00a9 AD000000 		.4byte	0xad
 2045 00ad 06       		.uleb128 0x6
 2046 00ae 81000000 		.4byte	0x81
 2047 00b2 07       		.uleb128 0x7
 2048 00b3 04       		.byte	0x4
 2049 00b4 B8000000 		.4byte	0xb8
 2050 00b8 08       		.uleb128 0x8
 2051 00b9 09       		.uleb128 0x9
 2052 00ba 01       		.byte	0x1
 2053 00bb 03       		.byte	0x3
 2054 00bc 16       		.byte	0x16
 2055 00bd CE000000 		.4byte	0xce
 2056 00c1 0A       		.uleb128 0xa
 2057 00c2 66040000 		.4byte	.LASF16
 2058 00c6 00       		.sleb128 0
 2059 00c7 0A       		.uleb128 0xa
ARM GAS  C:\Users\Vit\AppData\Local\Temp\ccnJL0JJ.s 			page 69


 2060 00c8 3C060000 		.4byte	.LASF17
 2061 00cc 01       		.sleb128 1
 2062 00cd 00       		.byte	0
 2063 00ce 04       		.uleb128 0x4
 2064 00cf CD010000 		.4byte	.LASF18
 2065 00d3 03       		.byte	0x3
 2066 00d4 19       		.byte	0x19
 2067 00d5 B9000000 		.4byte	0xb9
 2068 00d9 04       		.uleb128 0x4
 2069 00da B5010000 		.4byte	.LASF19
 2070 00de 03       		.byte	0x3
 2071 00df 2D       		.byte	0x2d
 2072 00e0 B2000000 		.4byte	0xb2
 2073 00e4 02       		.uleb128 0x2
 2074 00e5 04       		.byte	0x4
 2075 00e6 07       		.byte	0x7
 2076 00e7 46040000 		.4byte	.LASF20
 2077 00eb 0B       		.uleb128 0xb
 2078 00ec CE000000 		.4byte	.LASF23
 2079 00f0 01       		.byte	0x1
 2080 00f1 1102     		.2byte	0x211
 2081 00f3 01       		.byte	0x1
 2082 00f4 1D010000 		.4byte	0x11d
 2083 00f8 0C       		.uleb128 0xc
 2084 00f9 FF000000 		.4byte	.LASF21
 2085 00fd 01       		.byte	0x1
 2086 00fe 1102     		.2byte	0x211
 2087 0100 81000000 		.4byte	0x81
 2088 0104 0C       		.uleb128 0xc
 2089 0105 8E050000 		.4byte	.LASF22
 2090 0109 01       		.byte	0x1
 2091 010a 1102     		.2byte	0x211
 2092 010c 81000000 		.4byte	0x81
 2093 0110 0D       		.uleb128 0xd
 2094 0111 E3050000 		.4byte	.LASF29
 2095 0115 01       		.byte	0x1
 2096 0116 1302     		.2byte	0x213
 2097 0118 81000000 		.4byte	0x81
 2098 011c 00       		.byte	0
 2099 011d 0B       		.uleb128 0xb
 2100 011e 76020000 		.4byte	.LASF24
 2101 0122 01       		.byte	0x1
 2102 0123 A202     		.2byte	0x2a2
 2103 0125 01       		.byte	0x1
 2104 0126 37010000 		.4byte	0x137
 2105 012a 0C       		.uleb128 0xc
 2106 012b A2020000 		.4byte	.LASF25
 2107 012f 01       		.byte	0x1
 2108 0130 A202     		.2byte	0x2a2
 2109 0132 81000000 		.4byte	0x81
 2110 0136 00       		.byte	0
 2111 0137 0B       		.uleb128 0xb
 2112 0138 AB040000 		.4byte	.LASF26
 2113 013c 01       		.byte	0x1
 2114 013d A705     		.2byte	0x5a7
 2115 013f 01       		.byte	0x1
 2116 0140 75010000 		.4byte	0x175
ARM GAS  C:\Users\Vit\AppData\Local\Temp\ccnJL0JJ.s 			page 70


 2117 0144 0C       		.uleb128 0xc
 2118 0145 FF000000 		.4byte	.LASF21
 2119 0149 01       		.byte	0x1
 2120 014a A705     		.2byte	0x5a7
 2121 014c 81000000 		.4byte	0x81
 2122 0150 0C       		.uleb128 0xc
 2123 0151 27050000 		.4byte	.LASF27
 2124 0155 01       		.byte	0x1
 2125 0156 A705     		.2byte	0x5a7
 2126 0158 CE000000 		.4byte	0xce
 2127 015c 0C       		.uleb128 0xc
 2128 015d 60040000 		.4byte	.LASF28
 2129 0161 01       		.byte	0x1
 2130 0162 A705     		.2byte	0x5a7
 2131 0164 81000000 		.4byte	0x81
 2132 0168 0D       		.uleb128 0xd
 2133 0169 B7050000 		.4byte	.LASF30
 2134 016d 01       		.byte	0x1
 2135 016e A905     		.2byte	0x5a9
 2136 0170 81000000 		.4byte	0x81
 2137 0174 00       		.byte	0
 2138 0175 0E       		.uleb128 0xe
 2139 0176 E0030000 		.4byte	.LASF84
 2140 017a 01       		.byte	0x1
 2141 017b 41       		.byte	0x41
 2142 017c 00000000 		.4byte	.LFB0
 2143 0180 14000000 		.4byte	.LFE0-.LFB0
 2144 0184 01       		.uleb128 0x1
 2145 0185 9C       		.byte	0x9c
 2146 0186 0F       		.uleb128 0xf
 2147 0187 A8010000 		.4byte	.LASF31
 2148 018b 01       		.byte	0x1
 2149 018c 9801     		.2byte	0x198
 2150 018e 00000000 		.4byte	.LFB3
 2151 0192 1C000000 		.4byte	.LFE3-.LFB3
 2152 0196 01       		.uleb128 0x1
 2153 0197 9C       		.byte	0x9c
 2154 0198 BF010000 		.4byte	0x1bf
 2155 019c 10       		.uleb128 0x10
 2156 019d FC020000 		.4byte	.LASF33
 2157 01a1 01       		.byte	0x1
 2158 01a2 9A01     		.2byte	0x19a
 2159 01a4 6B000000 		.4byte	0x6b
 2160 01a8 00000000 		.4byte	.LLST0
 2161 01ac 11       		.uleb128 0x11
 2162 01ad 06000000 		.4byte	.LVL0
 2163 01b1 380D0000 		.4byte	0xd38
 2164 01b5 11       		.uleb128 0x11
 2165 01b6 16000000 		.4byte	.LVL1
 2166 01ba 430D0000 		.4byte	0xd43
 2167 01be 00       		.byte	0
 2168 01bf 0F       		.uleb128 0xf
 2169 01c0 DE000000 		.4byte	.LASF32
 2170 01c4 01       		.byte	0x1
 2171 01c5 C701     		.2byte	0x1c7
 2172 01c7 00000000 		.4byte	.LFB5
 2173 01cb 30000000 		.4byte	.LFE5-.LFB5
ARM GAS  C:\Users\Vit\AppData\Local\Temp\ccnJL0JJ.s 			page 71


 2174 01cf 01       		.uleb128 0x1
 2175 01d0 9C       		.byte	0x9c
 2176 01d1 F8010000 		.4byte	0x1f8
 2177 01d5 10       		.uleb128 0x10
 2178 01d6 FC020000 		.4byte	.LASF33
 2179 01da 01       		.byte	0x1
 2180 01db C901     		.2byte	0x1c9
 2181 01dd 6B000000 		.4byte	0x6b
 2182 01e1 13000000 		.4byte	.LLST1
 2183 01e5 11       		.uleb128 0x11
 2184 01e6 08000000 		.4byte	.LVL2
 2185 01ea 380D0000 		.4byte	0xd38
 2186 01ee 11       		.uleb128 0x11
 2187 01ef 26000000 		.4byte	.LVL3
 2188 01f3 430D0000 		.4byte	0xd43
 2189 01f7 00       		.byte	0
 2190 01f8 12       		.uleb128 0x12
 2191 01f9 9E030000 		.4byte	.LASF34
 2192 01fd 01       		.byte	0x1
 2193 01fe ED01     		.2byte	0x1ed
 2194 0200 81000000 		.4byte	0x81
 2195 0204 01       		.byte	0x1
 2196 0205 16020000 		.4byte	0x216
 2197 0209 0C       		.uleb128 0xc
 2198 020a FF000000 		.4byte	.LASF21
 2199 020e 01       		.byte	0x1
 2200 020f ED01     		.2byte	0x1ed
 2201 0211 81000000 		.4byte	0x81
 2202 0215 00       		.byte	0
 2203 0216 13       		.uleb128 0x13
 2204 0217 F8010000 		.4byte	0x1f8
 2205 021b 00000000 		.4byte	.LFB6
 2206 021f 24000000 		.4byte	.LFE6-.LFB6
 2207 0223 01       		.uleb128 0x1
 2208 0224 9C       		.byte	0x9c
 2209 0225 42020000 		.4byte	0x242
 2210 0229 14       		.uleb128 0x14
 2211 022a 09020000 		.4byte	0x209
 2212 022e 26000000 		.4byte	.LLST2
 2213 0232 15       		.uleb128 0x15
 2214 0233 0E000000 		.4byte	.LVL6
 2215 0237 540D0000 		.4byte	0xd54
 2216 023b 16       		.uleb128 0x16
 2217 023c 01       		.uleb128 0x1
 2218 023d 50       		.byte	0x50
 2219 023e 01       		.uleb128 0x1
 2220 023f 30       		.byte	0x30
 2221 0240 00       		.byte	0
 2222 0241 00       		.byte	0
 2223 0242 13       		.uleb128 0x13
 2224 0243 EB000000 		.4byte	0xeb
 2225 0247 00000000 		.4byte	.LFB7
 2226 024b 38000000 		.4byte	.LFE7-.LFB7
 2227 024f 01       		.uleb128 0x1
 2228 0250 9C       		.byte	0x9c
 2229 0251 C3020000 		.4byte	0x2c3
 2230 0255 14       		.uleb128 0x14
ARM GAS  C:\Users\Vit\AppData\Local\Temp\ccnJL0JJ.s 			page 72


 2231 0256 F8000000 		.4byte	0xf8
 2232 025a 52000000 		.4byte	.LLST3
 2233 025e 14       		.uleb128 0x14
 2234 025f 04010000 		.4byte	0x104
 2235 0263 7E000000 		.4byte	.LLST4
 2236 0267 17       		.uleb128 0x17
 2237 0268 10010000 		.4byte	0x110
 2238 026c 18       		.uleb128 0x18
 2239 026d 1A000000 		.4byte	.LBB4
 2240 0271 16000000 		.4byte	.LBE4-.LBB4
 2241 0275 9F020000 		.4byte	0x29f
 2242 0279 14       		.uleb128 0x14
 2243 027a 04010000 		.4byte	0x104
 2244 027e AA000000 		.4byte	.LLST5
 2245 0282 14       		.uleb128 0x14
 2246 0283 F8000000 		.4byte	0xf8
 2247 0287 BD000000 		.4byte	.LLST6
 2248 028b 19       		.uleb128 0x19
 2249 028c 1A000000 		.4byte	.LBB5
 2250 0290 16000000 		.4byte	.LBE5-.LBB5
 2251 0294 1A       		.uleb128 0x1a
 2252 0295 10010000 		.4byte	0x110
 2253 0299 DE000000 		.4byte	.LLST7
 2254 029d 00       		.byte	0
 2255 029e 00       		.byte	0
 2256 029f 1B       		.uleb128 0x1b
 2257 02a0 10000000 		.4byte	.LVL10
 2258 02a4 540D0000 		.4byte	0xd54
 2259 02a8 B2020000 		.4byte	0x2b2
 2260 02ac 16       		.uleb128 0x16
 2261 02ad 01       		.uleb128 0x1
 2262 02ae 50       		.byte	0x50
 2263 02af 01       		.uleb128 0x1
 2264 02b0 30       		.byte	0x30
 2265 02b1 00       		.byte	0
 2266 02b2 15       		.uleb128 0x15
 2267 02b3 16000000 		.4byte	.LVL11
 2268 02b7 F8010000 		.4byte	0x1f8
 2269 02bb 16       		.uleb128 0x16
 2270 02bc 01       		.uleb128 0x1
 2271 02bd 50       		.byte	0x50
 2272 02be 02       		.uleb128 0x2
 2273 02bf 74       		.byte	0x74
 2274 02c0 00       		.sleb128 0
 2275 02c1 00       		.byte	0
 2276 02c2 00       		.byte	0
 2277 02c3 12       		.uleb128 0x12
 2278 02c4 D3050000 		.4byte	.LASF35
 2279 02c8 01       		.byte	0x1
 2280 02c9 3002     		.2byte	0x230
 2281 02cb 81000000 		.4byte	0x81
 2282 02cf 01       		.byte	0x1
 2283 02d0 E1020000 		.4byte	0x2e1
 2284 02d4 0C       		.uleb128 0xc
 2285 02d5 FF000000 		.4byte	.LASF21
 2286 02d9 01       		.byte	0x1
 2287 02da 3002     		.2byte	0x230
ARM GAS  C:\Users\Vit\AppData\Local\Temp\ccnJL0JJ.s 			page 73


 2288 02dc 81000000 		.4byte	0x81
 2289 02e0 00       		.byte	0
 2290 02e1 13       		.uleb128 0x13
 2291 02e2 C3020000 		.4byte	0x2c3
 2292 02e6 00000000 		.4byte	.LFB8
 2293 02ea 14000000 		.4byte	.LFE8-.LFB8
 2294 02ee 01       		.uleb128 0x1
 2295 02ef 9C       		.byte	0x9c
 2296 02f0 FE020000 		.4byte	0x2fe
 2297 02f4 14       		.uleb128 0x14
 2298 02f5 D4020000 		.4byte	0x2d4
 2299 02f9 FC000000 		.4byte	.LLST8
 2300 02fd 00       		.byte	0
 2301 02fe 0F       		.uleb128 0xf
 2302 02ff 6D010000 		.4byte	.LASF36
 2303 0303 01       		.byte	0x1
 2304 0304 5102     		.2byte	0x251
 2305 0306 00000000 		.4byte	.LFB9
 2306 030a 38000000 		.4byte	.LFE9-.LFB9
 2307 030e 01       		.uleb128 0x1
 2308 030f 9C       		.byte	0x9c
 2309 0310 68030000 		.4byte	0x368
 2310 0314 1C       		.uleb128 0x1c
 2311 0315 FF000000 		.4byte	.LASF21
 2312 0319 01       		.byte	0x1
 2313 031a 5102     		.2byte	0x251
 2314 031c 81000000 		.4byte	0x81
 2315 0320 1D010000 		.4byte	.LLST9
 2316 0324 1C       		.uleb128 0x1c
 2317 0325 06020000 		.4byte	.LASF37
 2318 0329 01       		.byte	0x1
 2319 032a 5102     		.2byte	0x251
 2320 032c 81000000 		.4byte	0x81
 2321 0330 49010000 		.4byte	.LLST10
 2322 0334 10       		.uleb128 0x10
 2323 0335 E3050000 		.4byte	.LASF29
 2324 0339 01       		.byte	0x1
 2325 033a 5302     		.2byte	0x253
 2326 033c 81000000 		.4byte	0x81
 2327 0340 75010000 		.4byte	.LLST11
 2328 0344 1B       		.uleb128 0x1b
 2329 0345 10000000 		.4byte	.LVL22
 2330 0349 540D0000 		.4byte	0xd54
 2331 034d 57030000 		.4byte	0x357
 2332 0351 16       		.uleb128 0x16
 2333 0352 01       		.uleb128 0x1
 2334 0353 50       		.byte	0x50
 2335 0354 01       		.uleb128 0x1
 2336 0355 30       		.byte	0x30
 2337 0356 00       		.byte	0
 2338 0357 15       		.uleb128 0x15
 2339 0358 16000000 		.4byte	.LVL23
 2340 035c F8010000 		.4byte	0x1f8
 2341 0360 16       		.uleb128 0x16
 2342 0361 01       		.uleb128 0x1
 2343 0362 50       		.byte	0x50
 2344 0363 02       		.uleb128 0x2
ARM GAS  C:\Users\Vit\AppData\Local\Temp\ccnJL0JJ.s 			page 74


 2345 0364 74       		.byte	0x74
 2346 0365 00       		.sleb128 0
 2347 0366 00       		.byte	0
 2348 0367 00       		.byte	0
 2349 0368 1D       		.uleb128 0x1d
 2350 0369 AE020000 		.4byte	.LASF48
 2351 036d 01       		.byte	0x1
 2352 036e 7402     		.2byte	0x274
 2353 0370 81000000 		.4byte	0x81
 2354 0374 00000000 		.4byte	.LFB10
 2355 0378 24000000 		.4byte	.LFE10-.LFB10
 2356 037c 01       		.uleb128 0x1
 2357 037d 9C       		.byte	0x9c
 2358 037e A2030000 		.4byte	0x3a2
 2359 0382 1C       		.uleb128 0x1c
 2360 0383 FF000000 		.4byte	.LASF21
 2361 0387 01       		.byte	0x1
 2362 0388 7402     		.2byte	0x274
 2363 038a 81000000 		.4byte	0x81
 2364 038e 93010000 		.4byte	.LLST12
 2365 0392 15       		.uleb128 0x15
 2366 0393 0E000000 		.4byte	.LVL31
 2367 0397 540D0000 		.4byte	0xd54
 2368 039b 16       		.uleb128 0x16
 2369 039c 01       		.uleb128 0x1
 2370 039d 50       		.byte	0x50
 2371 039e 01       		.uleb128 0x1
 2372 039f 30       		.byte	0x30
 2373 03a0 00       		.byte	0
 2374 03a1 00       		.byte	0
 2375 03a2 13       		.uleb128 0x13
 2376 03a3 1D010000 		.4byte	0x11d
 2377 03a7 00000000 		.4byte	.LFB11
 2378 03ab 34000000 		.4byte	.LFE11-.LFB11
 2379 03af 01       		.uleb128 0x1
 2380 03b0 9C       		.byte	0x9c
 2381 03b1 31040000 		.4byte	0x431
 2382 03b5 14       		.uleb128 0x14
 2383 03b6 2A010000 		.4byte	0x12a
 2384 03ba BF010000 		.4byte	.LLST13
 2385 03be 1E       		.uleb128 0x1e
 2386 03bf F8010000 		.4byte	0x1f8
 2387 03c3 14000000 		.4byte	.LBB14
 2388 03c7 02000000 		.4byte	.LBE14-.LBB14
 2389 03cb 01       		.byte	0x1
 2390 03cc AC02     		.2byte	0x2ac
 2391 03ce DC030000 		.4byte	0x3dc
 2392 03d2 14       		.uleb128 0x14
 2393 03d3 09020000 		.4byte	0x209
 2394 03d7 EB010000 		.4byte	.LLST14
 2395 03db 00       		.byte	0
 2396 03dc 1E       		.uleb128 0x1e
 2397 03dd F8010000 		.4byte	0x1f8
 2398 03e1 1E000000 		.4byte	.LBB16
 2399 03e5 02000000 		.4byte	.LBE16-.LBB16
 2400 03e9 01       		.byte	0x1
 2401 03ea B402     		.2byte	0x2b4
ARM GAS  C:\Users\Vit\AppData\Local\Temp\ccnJL0JJ.s 			page 75


 2402 03ec FA030000 		.4byte	0x3fa
 2403 03f0 14       		.uleb128 0x14
 2404 03f1 09020000 		.4byte	0x209
 2405 03f5 FF010000 		.4byte	.LLST15
 2406 03f9 00       		.byte	0
 2407 03fa 18       		.uleb128 0x18
 2408 03fb 28000000 		.4byte	.LBB18
 2409 03ff 06000000 		.4byte	.LBE18-.LBB18
 2410 0403 27040000 		.4byte	0x427
 2411 0407 1F       		.uleb128 0x1f
 2412 0408 2A010000 		.4byte	0x12a
 2413 040c 20       		.uleb128 0x20
 2414 040d F8010000 		.4byte	0x1f8
 2415 0411 28000000 		.4byte	.LBB20
 2416 0415 02000000 		.4byte	.LBE20-.LBB20
 2417 0419 01       		.byte	0x1
 2418 041a BC02     		.2byte	0x2bc
 2419 041c 14       		.uleb128 0x14
 2420 041d 09020000 		.4byte	0x209
 2421 0421 13020000 		.4byte	.LLST16
 2422 0425 00       		.byte	0
 2423 0426 00       		.byte	0
 2424 0427 11       		.uleb128 0x11
 2425 0428 08000000 		.4byte	.LVL34
 2426 042c 75010000 		.4byte	0x175
 2427 0430 00       		.byte	0
 2428 0431 21       		.uleb128 0x21
 2429 0432 D5040000 		.4byte	.LASF51
 2430 0436 01       		.byte	0x1
 2431 0437 B201     		.2byte	0x1b2
 2432 0439 81000000 		.4byte	0x81
 2433 043d 01       		.byte	0x1
 2434 043e 0F       		.uleb128 0xf
 2435 043f 31050000 		.4byte	.LASF38
 2436 0443 01       		.byte	0x1
 2437 0444 D702     		.2byte	0x2d7
 2438 0446 00000000 		.4byte	.LFB12
 2439 044a 3C000000 		.4byte	.LFE12-.LFB12
 2440 044e 01       		.uleb128 0x1
 2441 044f 9C       		.byte	0x9c
 2442 0450 C9040000 		.4byte	0x4c9
 2443 0454 22       		.uleb128 0x22
 2444 0455 A2020000 		.4byte	.LASF25
 2445 0459 01       		.byte	0x1
 2446 045a D702     		.2byte	0x2d7
 2447 045c 81000000 		.4byte	0x81
 2448 0460 01       		.uleb128 0x1
 2449 0461 50       		.byte	0x50
 2450 0462 23       		.uleb128 0x23
 2451 0463 31040000 		.4byte	0x431
 2452 0467 00000000 		.4byte	.LBB30
 2453 046b 0C000000 		.4byte	.LBE30-.LBB30
 2454 046f 01       		.byte	0x1
 2455 0470 D902     		.2byte	0x2d9
 2456 0472 1E       		.uleb128 0x1e
 2457 0473 F8010000 		.4byte	0x1f8
 2458 0477 18000000 		.4byte	.LBB32
ARM GAS  C:\Users\Vit\AppData\Local\Temp\ccnJL0JJ.s 			page 76


 2459 047b 02000000 		.4byte	.LBE32-.LBB32
 2460 047f 01       		.byte	0x1
 2461 0480 DF02     		.2byte	0x2df
 2462 0482 90040000 		.4byte	0x490
 2463 0486 14       		.uleb128 0x14
 2464 0487 09020000 		.4byte	0x209
 2465 048b 27020000 		.4byte	.LLST17
 2466 048f 00       		.byte	0
 2467 0490 1E       		.uleb128 0x1e
 2468 0491 F8010000 		.4byte	0x1f8
 2469 0495 22000000 		.4byte	.LBB34
 2470 0499 02000000 		.4byte	.LBE34-.LBB34
 2471 049d 01       		.byte	0x1
 2472 049e E702     		.2byte	0x2e7
 2473 04a0 AE040000 		.4byte	0x4ae
 2474 04a4 14       		.uleb128 0x14
 2475 04a5 09020000 		.4byte	0x209
 2476 04a9 3B020000 		.4byte	.LLST18
 2477 04ad 00       		.byte	0
 2478 04ae 20       		.uleb128 0x20
 2479 04af F8010000 		.4byte	0x1f8
 2480 04b3 2C000000 		.4byte	.LBB36
 2481 04b7 02000000 		.4byte	.LBE36-.LBB36
 2482 04bb 01       		.byte	0x1
 2483 04bc EF02     		.2byte	0x2ef
 2484 04be 14       		.uleb128 0x14
 2485 04bf 09020000 		.4byte	0x209
 2486 04c3 4F020000 		.4byte	.LLST19
 2487 04c7 00       		.byte	0
 2488 04c8 00       		.byte	0
 2489 04c9 0F       		.uleb128 0xf
 2490 04ca C0050000 		.4byte	.LASF39
 2491 04ce 01       		.byte	0x1
 2492 04cf 1903     		.2byte	0x319
 2493 04d1 00000000 		.4byte	.LFB13
 2494 04d5 34000000 		.4byte	.LFE13-.LFB13
 2495 04d9 01       		.uleb128 0x1
 2496 04da 9C       		.byte	0x9c
 2497 04db 5D050000 		.4byte	0x55d
 2498 04df 1C       		.uleb128 0x1c
 2499 04e0 1B060000 		.4byte	.LASF40
 2500 04e4 01       		.byte	0x1
 2501 04e5 1903     		.2byte	0x319
 2502 04e7 81000000 		.4byte	0x81
 2503 04eb 63020000 		.4byte	.LLST20
 2504 04ef 10       		.uleb128 0x10
 2505 04f0 E3050000 		.4byte	.LASF29
 2506 04f4 01       		.byte	0x1
 2507 04f5 1B03     		.2byte	0x31b
 2508 04f7 81000000 		.4byte	0x81
 2509 04fb 84020000 		.4byte	.LLST21
 2510 04ff 10       		.uleb128 0x10
 2511 0500 56020000 		.4byte	.LASF41
 2512 0504 01       		.byte	0x1
 2513 0505 1C03     		.2byte	0x31c
 2514 0507 81000000 		.4byte	0x81
 2515 050b AD020000 		.4byte	.LLST22
ARM GAS  C:\Users\Vit\AppData\Local\Temp\ccnJL0JJ.s 			page 77


 2516 050f 24       		.uleb128 0x24
 2517 0510 F8010000 		.4byte	0x1f8
 2518 0514 00000000 		.4byte	.LBB44
 2519 0518 00000000 		.4byte	.Ldebug_ranges0+0
 2520 051c 01       		.byte	0x1
 2521 051d 1E03     		.2byte	0x31e
 2522 051f 2A050000 		.4byte	0x52a
 2523 0523 25       		.uleb128 0x25
 2524 0524 09020000 		.4byte	0x209
 2525 0528 00       		.byte	0
 2526 0529 00       		.byte	0
 2527 052a 24       		.uleb128 0x24
 2528 052b F8010000 		.4byte	0x1f8
 2529 052f 06000000 		.4byte	.LBB49
 2530 0533 20000000 		.4byte	.Ldebug_ranges0+0x20
 2531 0537 01       		.byte	0x1
 2532 0538 1F03     		.2byte	0x31f
 2533 053a 45050000 		.4byte	0x545
 2534 053e 25       		.uleb128 0x25
 2535 053f 09020000 		.4byte	0x209
 2536 0543 01       		.byte	0x1
 2537 0544 00       		.byte	0
 2538 0545 26       		.uleb128 0x26
 2539 0546 F8010000 		.4byte	0x1f8
 2540 054a 08000000 		.4byte	.LBB52
 2541 054e 38000000 		.4byte	.Ldebug_ranges0+0x38
 2542 0552 01       		.byte	0x1
 2543 0553 2003     		.2byte	0x320
 2544 0555 25       		.uleb128 0x25
 2545 0556 09020000 		.4byte	0x209
 2546 055a 02       		.byte	0x2
 2547 055b 00       		.byte	0
 2548 055c 00       		.byte	0
 2549 055d 27       		.uleb128 0x27
 2550 055e 24010000 		.4byte	.LASF46
 2551 0562 01       		.byte	0x1
 2552 0563 3E03     		.2byte	0x33e
 2553 0565 81000000 		.4byte	0x81
 2554 0569 00000000 		.4byte	.LFB14
 2555 056d 14000000 		.4byte	.LFE14-.LFB14
 2556 0571 01       		.uleb128 0x1
 2557 0572 9C       		.byte	0x9c
 2558 0573 0F       		.uleb128 0xf
 2559 0574 45020000 		.4byte	.LASF42
 2560 0578 01       		.byte	0x1
 2561 0579 5703     		.2byte	0x357
 2562 057b 00000000 		.4byte	.LFB15
 2563 057f 3C000000 		.4byte	.LFE15-.LFB15
 2564 0583 01       		.uleb128 0x1
 2565 0584 9C       		.byte	0x9c
 2566 0585 F1050000 		.4byte	0x5f1
 2567 0589 1C       		.uleb128 0x1c
 2568 058a FF000000 		.4byte	.LASF21
 2569 058e 01       		.byte	0x1
 2570 058f 5703     		.2byte	0x357
 2571 0591 81000000 		.4byte	0x81
 2572 0595 D0020000 		.4byte	.LLST23
ARM GAS  C:\Users\Vit\AppData\Local\Temp\ccnJL0JJ.s 			page 78


 2573 0599 1C       		.uleb128 0x1c
 2574 059a 60040000 		.4byte	.LASF28
 2575 059e 01       		.byte	0x1
 2576 059f 5703     		.2byte	0x357
 2577 05a1 81000000 		.4byte	0x81
 2578 05a5 FC020000 		.4byte	.LLST24
 2579 05a9 10       		.uleb128 0x10
 2580 05aa F7010000 		.4byte	.LASF43
 2581 05ae 01       		.byte	0x1
 2582 05af 5903     		.2byte	0x359
 2583 05b1 81000000 		.4byte	0x81
 2584 05b5 28030000 		.4byte	.LLST25
 2585 05b9 1B       		.uleb128 0x1b
 2586 05ba 10000000 		.4byte	.LVL60
 2587 05be 540D0000 		.4byte	0xd54
 2588 05c2 CC050000 		.4byte	0x5cc
 2589 05c6 16       		.uleb128 0x16
 2590 05c7 01       		.uleb128 0x1
 2591 05c8 50       		.byte	0x50
 2592 05c9 01       		.uleb128 0x1
 2593 05ca 30       		.byte	0x30
 2594 05cb 00       		.byte	0
 2595 05cc 1B       		.uleb128 0x1b
 2596 05cd 16000000 		.4byte	.LVL61
 2597 05d1 650D0000 		.4byte	0xd65
 2598 05d5 E0050000 		.4byte	0x5e0
 2599 05d9 16       		.uleb128 0x16
 2600 05da 01       		.uleb128 0x1
 2601 05db 50       		.byte	0x50
 2602 05dc 02       		.uleb128 0x2
 2603 05dd 08       		.byte	0x8
 2604 05de C9       		.byte	0xc9
 2605 05df 00       		.byte	0
 2606 05e0 15       		.uleb128 0x15
 2607 05e1 30000000 		.4byte	.LVL66
 2608 05e5 650D0000 		.4byte	0xd65
 2609 05e9 16       		.uleb128 0x16
 2610 05ea 01       		.uleb128 0x1
 2611 05eb 50       		.byte	0x50
 2612 05ec 02       		.uleb128 0x2
 2613 05ed 08       		.byte	0x8
 2614 05ee 43       		.byte	0x43
 2615 05ef 00       		.byte	0
 2616 05f0 00       		.byte	0
 2617 05f1 0F       		.uleb128 0xf
 2618 05f2 F1030000 		.4byte	.LASF44
 2619 05f6 01       		.byte	0x1
 2620 05f7 8303     		.2byte	0x383
 2621 05f9 00000000 		.4byte	.LFB16
 2622 05fd 28000000 		.4byte	.LFE16-.LFB16
 2623 0601 01       		.uleb128 0x1
 2624 0602 9C       		.byte	0x9c
 2625 0603 3F060000 		.4byte	0x63f
 2626 0607 1C       		.uleb128 0x1c
 2627 0608 E9010000 		.4byte	.LASF45
 2628 060c 01       		.byte	0x1
 2629 060d 8303     		.2byte	0x383
ARM GAS  C:\Users\Vit\AppData\Local\Temp\ccnJL0JJ.s 			page 79


 2630 060f 81000000 		.4byte	0x81
 2631 0613 50030000 		.4byte	.LLST26
 2632 0617 10       		.uleb128 0x10
 2633 0618 E3050000 		.4byte	.LASF29
 2634 061c 01       		.byte	0x1
 2635 061d 8503     		.2byte	0x385
 2636 061f 81000000 		.4byte	0x81
 2637 0623 71030000 		.4byte	.LLST27
 2638 0627 20       		.uleb128 0x20
 2639 0628 F8010000 		.4byte	0x1f8
 2640 062c 00000000 		.4byte	.LBB60
 2641 0630 04000000 		.4byte	.LBE60-.LBB60
 2642 0634 01       		.byte	0x1
 2643 0635 8703     		.2byte	0x387
 2644 0637 25       		.uleb128 0x25
 2645 0638 09020000 		.4byte	0x209
 2646 063c 02       		.byte	0x2
 2647 063d 00       		.byte	0
 2648 063e 00       		.byte	0
 2649 063f 27       		.uleb128 0x27
 2650 0640 27060000 		.4byte	.LASF47
 2651 0644 01       		.byte	0x1
 2652 0645 9F03     		.2byte	0x39f
 2653 0647 81000000 		.4byte	0x81
 2654 064b 00000000 		.4byte	.LFB17
 2655 064f 10000000 		.4byte	.LFE17-.LFB17
 2656 0653 01       		.uleb128 0x1
 2657 0654 9C       		.byte	0x9c
 2658 0655 1D       		.uleb128 0x1d
 2659 0656 4F040000 		.4byte	.LASF49
 2660 065a 01       		.byte	0x1
 2661 065b B403     		.2byte	0x3b4
 2662 065d 81000000 		.4byte	0x81
 2663 0661 00000000 		.4byte	.LFB18
 2664 0665 20000000 		.4byte	.LFE18-.LFB18
 2665 0669 01       		.uleb128 0x1
 2666 066a 9C       		.byte	0x9c
 2667 066b 8F060000 		.4byte	0x68f
 2668 066f 1C       		.uleb128 0x1c
 2669 0670 FF000000 		.4byte	.LASF21
 2670 0674 01       		.byte	0x1
 2671 0675 B403     		.2byte	0x3b4
 2672 0677 81000000 		.4byte	0x81
 2673 067b 9A030000 		.4byte	.LLST28
 2674 067f 15       		.uleb128 0x15
 2675 0680 0E000000 		.4byte	.LVL76
 2676 0684 540D0000 		.4byte	0xd54
 2677 0688 16       		.uleb128 0x16
 2678 0689 01       		.uleb128 0x1
 2679 068a 50       		.byte	0x50
 2680 068b 01       		.uleb128 0x1
 2681 068c 30       		.byte	0x30
 2682 068d 00       		.byte	0
 2683 068e 00       		.byte	0
 2684 068f 1D       		.uleb128 0x1d
 2685 0690 93050000 		.4byte	.LASF50
 2686 0694 01       		.byte	0x1
ARM GAS  C:\Users\Vit\AppData\Local\Temp\ccnJL0JJ.s 			page 80


 2687 0695 CC03     		.2byte	0x3cc
 2688 0697 81000000 		.4byte	0x81
 2689 069b 00000000 		.4byte	.LFB19
 2690 069f 38000000 		.4byte	.LFE19-.LFB19
 2691 06a3 01       		.uleb128 0x1
 2692 06a4 9C       		.byte	0x9c
 2693 06a5 D9060000 		.4byte	0x6d9
 2694 06a9 1C       		.uleb128 0x1c
 2695 06aa FF000000 		.4byte	.LASF21
 2696 06ae 01       		.byte	0x1
 2697 06af CC03     		.2byte	0x3cc
 2698 06b1 81000000 		.4byte	0x81
 2699 06b5 C6030000 		.4byte	.LLST29
 2700 06b9 10       		.uleb128 0x10
 2701 06ba F7010000 		.4byte	.LASF43
 2702 06be 01       		.byte	0x1
 2703 06bf CE03     		.2byte	0x3ce
 2704 06c1 81000000 		.4byte	0x81
 2705 06c5 32040000 		.4byte	.LLST30
 2706 06c9 15       		.uleb128 0x15
 2707 06ca 2A000000 		.4byte	.LVL88
 2708 06ce 540D0000 		.4byte	0xd54
 2709 06d2 16       		.uleb128 0x16
 2710 06d3 01       		.uleb128 0x1
 2711 06d4 50       		.byte	0x50
 2712 06d5 01       		.uleb128 0x1
 2713 06d6 30       		.byte	0x30
 2714 06d7 00       		.byte	0
 2715 06d8 00       		.byte	0
 2716 06d9 28       		.uleb128 0x28
 2717 06da 41050000 		.4byte	.LASF52
 2718 06de 01       		.byte	0x1
 2719 06df 94       		.byte	0x94
 2720 06e0 81000000 		.4byte	0x81
 2721 06e4 01       		.byte	0x1
 2722 06e5 29       		.uleb128 0x29
 2723 06e6 0A010000 		.4byte	.LASF85
 2724 06ea 01       		.byte	0x1
 2725 06eb 2406     		.2byte	0x624
 2726 06ed 01       		.byte	0x1
 2727 06ee 0B070000 		.4byte	0x70b
 2728 06f2 0D       		.uleb128 0xd
 2729 06f3 D3020000 		.4byte	.LASF53
 2730 06f7 01       		.byte	0x1
 2731 06f8 2606     		.2byte	0x626
 2732 06fa 81000000 		.4byte	0x81
 2733 06fe 0D       		.uleb128 0xd
 2734 06ff F9040000 		.4byte	.LASF54
 2735 0703 01       		.byte	0x1
 2736 0704 2706     		.2byte	0x627
 2737 0706 81000000 		.4byte	0x81
 2738 070a 00       		.byte	0
 2739 070b 2A       		.uleb128 0x2a
 2740 070c 16030000 		.4byte	.LASF86
 2741 0710 01       		.byte	0x1
 2742 0711 5F06     		.2byte	0x65f
 2743 0713 01       		.byte	0x1
ARM GAS  C:\Users\Vit\AppData\Local\Temp\ccnJL0JJ.s 			page 81


 2744 0714 2B       		.uleb128 0x2b
 2745 0715 14020000 		.4byte	.LASF55
 2746 0719 01       		.byte	0x1
 2747 071a 60       		.byte	0x60
 2748 071b 00000000 		.4byte	.LFB1
 2749 071f B4000000 		.4byte	.LFE1-.LFB1
 2750 0723 01       		.uleb128 0x1
 2751 0724 9C       		.byte	0x9c
 2752 0725 6A080000 		.4byte	0x86a
 2753 0729 2C       		.uleb128 0x2c
 2754 072a FC020000 		.4byte	.LASF33
 2755 072e 01       		.byte	0x1
 2756 072f 63       		.byte	0x63
 2757 0730 6B000000 		.4byte	0x6b
 2758 0734 96040000 		.4byte	.LLST31
 2759 0738 2D       		.uleb128 0x2d
 2760 0739 31040000 		.4byte	0x431
 2761 073d 00000000 		.4byte	.LBB78
 2762 0741 50000000 		.4byte	.Ldebug_ranges0+0x50
 2763 0745 01       		.byte	0x1
 2764 0746 66       		.byte	0x66
 2765 0747 2E       		.uleb128 0x2e
 2766 0748 D9060000 		.4byte	0x6d9
 2767 074c 10000000 		.4byte	.LBB82
 2768 0750 08000000 		.4byte	.LBE82-.LBB82
 2769 0754 01       		.byte	0x1
 2770 0755 68       		.byte	0x68
 2771 0756 2F       		.uleb128 0x2f
 2772 0757 E5060000 		.4byte	0x6e5
 2773 075b 1C000000 		.4byte	.LBB84
 2774 075f 68000000 		.4byte	.Ldebug_ranges0+0x68
 2775 0763 01       		.byte	0x1
 2776 0764 71       		.byte	0x71
 2777 0765 2B080000 		.4byte	0x82b
 2778 0769 30       		.uleb128 0x30
 2779 076a 68000000 		.4byte	.Ldebug_ranges0+0x68
 2780 076e 1A       		.uleb128 0x1a
 2781 076f F2060000 		.4byte	0x6f2
 2782 0773 AA040000 		.4byte	.LLST32
 2783 0777 31       		.uleb128 0x31
 2784 0778 FE060000 		.4byte	0x6fe
 2785 077c 05       		.uleb128 0x5
 2786 077d 03       		.byte	0x3
 2787 077e 00000000 		.4byte	lfclkPosedgeEnabledWdtCounter.4836
 2788 0782 24       		.uleb128 0x24
 2789 0783 F8010000 		.4byte	0x1f8
 2790 0787 1C000000 		.4byte	.LBB86
 2791 078b 80000000 		.4byte	.Ldebug_ranges0+0x80
 2792 078f 01       		.byte	0x1
 2793 0790 2906     		.2byte	0x629
 2794 0792 A0070000 		.4byte	0x7a0
 2795 0796 14       		.uleb128 0x14
 2796 0797 09020000 		.4byte	0x209
 2797 079b BD040000 		.4byte	.LLST33
 2798 079f 00       		.byte	0
 2799 07a0 1E       		.uleb128 0x1e
 2800 07a1 F8010000 		.4byte	0x1f8
ARM GAS  C:\Users\Vit\AppData\Local\Temp\ccnJL0JJ.s 			page 82


 2801 07a5 2E000000 		.4byte	.LBB90
 2802 07a9 04000000 		.4byte	.LBE90-.LBB90
 2803 07ad 01       		.byte	0x1
 2804 07ae 2D06     		.2byte	0x62d
 2805 07b0 BE070000 		.4byte	0x7be
 2806 07b4 14       		.uleb128 0x14
 2807 07b5 09020000 		.4byte	0x209
 2808 07b9 D1040000 		.4byte	.LLST34
 2809 07bd 00       		.byte	0
 2810 07be 1E       		.uleb128 0x1e
 2811 07bf F8010000 		.4byte	0x1f8
 2812 07c3 3A000000 		.4byte	.LBB92
 2813 07c7 06000000 		.4byte	.LBE92-.LBB92
 2814 07cb 01       		.byte	0x1
 2815 07cc 3106     		.2byte	0x631
 2816 07ce DC070000 		.4byte	0x7dc
 2817 07d2 14       		.uleb128 0x14
 2818 07d3 09020000 		.4byte	0x209
 2819 07d7 F1040000 		.4byte	.LLST35
 2820 07db 00       		.byte	0
 2821 07dc 24       		.uleb128 0x24
 2822 07dd C3020000 		.4byte	0x2c3
 2823 07e1 48000000 		.4byte	.LBB94
 2824 07e5 98000000 		.4byte	.Ldebug_ranges0+0x98
 2825 07e9 01       		.byte	0x1
 2826 07ea 3B06     		.2byte	0x63b
 2827 07ec FA070000 		.4byte	0x7fa
 2828 07f0 14       		.uleb128 0x14
 2829 07f1 D4020000 		.4byte	0x2d4
 2830 07f5 11050000 		.4byte	.LLST36
 2831 07f9 00       		.byte	0
 2832 07fa 11       		.uleb128 0x11
 2833 07fb 5C000000 		.4byte	.LVL97
 2834 07ff EB000000 		.4byte	0xeb
 2835 0803 1B       		.uleb128 0x1b
 2836 0804 62000000 		.4byte	.LVL98
 2837 0808 1D010000 		.4byte	0x11d
 2838 080c 17080000 		.4byte	0x817
 2839 0810 16       		.uleb128 0x16
 2840 0811 01       		.uleb128 0x1
 2841 0812 50       		.byte	0x50
 2842 0813 02       		.uleb128 0x2
 2843 0814 76       		.byte	0x76
 2844 0815 00       		.sleb128 0
 2845 0816 00       		.byte	0
 2846 0817 11       		.uleb128 0x11
 2847 0818 68000000 		.4byte	.LVL99
 2848 081c 8F060000 		.4byte	0x68f
 2849 0820 11       		.uleb128 0x11
 2850 0821 70000000 		.4byte	.LVL101
 2851 0825 8F060000 		.4byte	0x68f
 2852 0829 00       		.byte	0
 2853 082a 00       		.byte	0
 2854 082b 32       		.uleb128 0x32
 2855 082c 0B070000 		.4byte	0x70b
 2856 0830 7C000000 		.4byte	.LBB102
 2857 0834 1A000000 		.4byte	.LBE102-.LBB102
ARM GAS  C:\Users\Vit\AppData\Local\Temp\ccnJL0JJ.s 			page 83


 2858 0838 01       		.byte	0x1
 2859 0839 73       		.byte	0x73
 2860 083a 4E080000 		.4byte	0x84e
 2861 083e 15       		.uleb128 0x15
 2862 083f 92000000 		.4byte	.LVL102
 2863 0843 EB000000 		.4byte	0xeb
 2864 0847 16       		.uleb128 0x16
 2865 0848 01       		.uleb128 0x1
 2866 0849 50       		.byte	0x50
 2867 084a 01       		.uleb128 0x1
 2868 084b 30       		.byte	0x30
 2869 084c 00       		.byte	0
 2870 084d 00       		.byte	0
 2871 084e 11       		.uleb128 0x11
 2872 084f 1C000000 		.4byte	.LVL90
 2873 0853 380D0000 		.4byte	0xd38
 2874 0857 15       		.uleb128 0x15
 2875 0858 9C000000 		.4byte	.LVL103
 2876 085c 430D0000 		.4byte	0xd43
 2877 0860 16       		.uleb128 0x16
 2878 0861 01       		.uleb128 0x1
 2879 0862 50       		.byte	0x50
 2880 0863 04       		.uleb128 0x4
 2881 0864 91       		.byte	0x91
 2882 0865 64       		.sleb128 -28
 2883 0866 94       		.byte	0x94
 2884 0867 01       		.byte	0x1
 2885 0868 00       		.byte	0
 2886 0869 00       		.byte	0
 2887 086a 27       		.uleb128 0x27
 2888 086b 54050000 		.4byte	.LASF56
 2889 086f 01       		.byte	0x1
 2890 0870 FD03     		.2byte	0x3fd
 2891 0872 81000000 		.4byte	0x81
 2892 0876 00000000 		.4byte	.LFB20
 2893 087a 14000000 		.4byte	.LFE20-.LFB20
 2894 087e 01       		.uleb128 0x1
 2895 087f 9C       		.byte	0x9c
 2896 0880 0F       		.uleb128 0xf
 2897 0881 8E040000 		.4byte	.LASF57
 2898 0885 01       		.byte	0x1
 2899 0886 1F04     		.2byte	0x41f
 2900 0888 00000000 		.4byte	.LFB21
 2901 088c 54000000 		.4byte	.LFE21-.LFB21
 2902 0890 01       		.uleb128 0x1
 2903 0891 9C       		.byte	0x9c
 2904 0892 06090000 		.4byte	0x906
 2905 0896 1C       		.uleb128 0x1c
 2906 0897 A2020000 		.4byte	.LASF25
 2907 089b 01       		.byte	0x1
 2908 089c 1F04     		.2byte	0x41f
 2909 089e 81000000 		.4byte	0x81
 2910 08a2 25050000 		.4byte	.LLST37
 2911 08a6 10       		.uleb128 0x10
 2912 08a7 FC020000 		.4byte	.LASF33
 2913 08ab 01       		.byte	0x1
 2914 08ac 2104     		.2byte	0x421
ARM GAS  C:\Users\Vit\AppData\Local\Temp\ccnJL0JJ.s 			page 84


 2915 08ae 6B000000 		.4byte	0x6b
 2916 08b2 6C050000 		.4byte	.LLST38
 2917 08b6 10       		.uleb128 0x10
 2918 08b7 F2050000 		.4byte	.LASF58
 2919 08bb 01       		.byte	0x1
 2920 08bc 2204     		.2byte	0x422
 2921 08be 81000000 		.4byte	0x81
 2922 08c2 8A050000 		.4byte	.LLST39
 2923 08c6 33       		.uleb128 0x33
 2924 08c7 31040000 		.4byte	0x431
 2925 08cb 08000000 		.4byte	.LBB106
 2926 08cf B8000000 		.4byte	.Ldebug_ranges0+0xb8
 2927 08d3 01       		.byte	0x1
 2928 08d4 2604     		.2byte	0x426
 2929 08d6 11       		.uleb128 0x11
 2930 08d7 08000000 		.4byte	.LVL105
 2931 08db 380D0000 		.4byte	0xd38
 2932 08df 11       		.uleb128 0x11
 2933 08e0 32000000 		.4byte	.LVL110
 2934 08e4 86010000 		.4byte	0x186
 2935 08e8 1B       		.uleb128 0x1b
 2936 08e9 38000000 		.4byte	.LVL111
 2937 08ed 430D0000 		.4byte	0xd43
 2938 08f1 FC080000 		.4byte	0x8fc
 2939 08f5 16       		.uleb128 0x16
 2940 08f6 01       		.uleb128 0x1
 2941 08f7 50       		.byte	0x50
 2942 08f8 02       		.uleb128 0x2
 2943 08f9 74       		.byte	0x74
 2944 08fa 00       		.sleb128 0
 2945 08fb 00       		.byte	0
 2946 08fc 11       		.uleb128 0x11
 2947 08fd 3E000000 		.4byte	.LVL114
 2948 0901 BF010000 		.4byte	0x1bf
 2949 0905 00       		.byte	0
 2950 0906 0F       		.uleb128 0xf
 2951 0907 78040000 		.4byte	.LASF59
 2952 090b 01       		.byte	0x1
 2953 090c 5F04     		.2byte	0x45f
 2954 090e 00000000 		.4byte	.LFB22
 2955 0912 1C000000 		.4byte	.LFE22-.LFB22
 2956 0916 01       		.uleb128 0x1
 2957 0917 9C       		.byte	0x9c
 2958 0918 2D090000 		.4byte	0x92d
 2959 091c 1C       		.uleb128 0x1c
 2960 091d 24020000 		.4byte	.LASF60
 2961 0921 01       		.byte	0x1
 2962 0922 5F04     		.2byte	0x45f
 2963 0924 81000000 		.4byte	0x81
 2964 0928 B5050000 		.4byte	.LLST40
 2965 092c 00       		.byte	0
 2966 092d 1D       		.uleb128 0x1d
 2967 092e 85020000 		.4byte	.LASF61
 2968 0932 01       		.byte	0x1
 2969 0933 7C04     		.2byte	0x47c
 2970 0935 D9000000 		.4byte	0xd9
 2971 0939 00000000 		.4byte	.LFB23
ARM GAS  C:\Users\Vit\AppData\Local\Temp\ccnJL0JJ.s 			page 85


 2972 093d 20000000 		.4byte	.LFE23-.LFB23
 2973 0941 01       		.uleb128 0x1
 2974 0942 9C       		.byte	0x9c
 2975 0943 87090000 		.4byte	0x987
 2976 0947 1C       		.uleb128 0x1c
 2977 0948 FF000000 		.4byte	.LASF21
 2978 094c 01       		.byte	0x1
 2979 094d 7C04     		.2byte	0x47c
 2980 094f 81000000 		.4byte	0x81
 2981 0953 D6050000 		.4byte	.LLST41
 2982 0957 1C       		.uleb128 0x1c
 2983 0958 9F010000 		.4byte	.LASF62
 2984 095c 01       		.byte	0x1
 2985 095d 7C04     		.2byte	0x47c
 2986 095f D9000000 		.4byte	0xd9
 2987 0963 10060000 		.4byte	.LLST42
 2988 0967 10       		.uleb128 0x10
 2989 0968 38020000 		.4byte	.LASF63
 2990 096c 01       		.byte	0x1
 2991 096d 7E04     		.2byte	0x47e
 2992 096f D9000000 		.4byte	0xd9
 2993 0973 31060000 		.4byte	.LLST43
 2994 0977 15       		.uleb128 0x15
 2995 0978 18000000 		.4byte	.LVL122
 2996 097c 540D0000 		.4byte	0xd54
 2997 0980 16       		.uleb128 0x16
 2998 0981 01       		.uleb128 0x1
 2999 0982 50       		.byte	0x50
 3000 0983 01       		.uleb128 0x1
 3001 0984 30       		.byte	0x30
 3002 0985 00       		.byte	0
 3003 0986 00       		.byte	0
 3004 0987 1D       		.uleb128 0x1d
 3005 0988 B7030000 		.4byte	.LASF64
 3006 098c 01       		.byte	0x1
 3007 098d 9D04     		.2byte	0x49d
 3008 098f D9000000 		.4byte	0xd9
 3009 0993 00000000 		.4byte	.LFB24
 3010 0997 20000000 		.4byte	.LFE24-.LFB24
 3011 099b 01       		.uleb128 0x1
 3012 099c 9C       		.byte	0x9c
 3013 099d D1090000 		.4byte	0x9d1
 3014 09a1 1C       		.uleb128 0x1c
 3015 09a2 FF000000 		.4byte	.LASF21
 3016 09a6 01       		.byte	0x1
 3017 09a7 9D04     		.2byte	0x49d
 3018 09a9 81000000 		.4byte	0x81
 3019 09ad 67060000 		.4byte	.LLST44
 3020 09b1 10       		.uleb128 0x10
 3021 09b2 DE020000 		.4byte	.LASF65
 3022 09b6 01       		.byte	0x1
 3023 09b7 9F04     		.2byte	0x49f
 3024 09b9 D9000000 		.4byte	0xd9
 3025 09bd A1060000 		.4byte	.LLST45
 3026 09c1 15       		.uleb128 0x15
 3027 09c2 16000000 		.4byte	.LVL129
 3028 09c6 540D0000 		.4byte	0xd54
ARM GAS  C:\Users\Vit\AppData\Local\Temp\ccnJL0JJ.s 			page 86


 3029 09ca 16       		.uleb128 0x16
 3030 09cb 01       		.uleb128 0x1
 3031 09cc 50       		.byte	0x50
 3032 09cd 01       		.uleb128 0x1
 3033 09ce 30       		.byte	0x30
 3034 09cf 00       		.byte	0
 3035 09d0 00       		.byte	0
 3036 09d1 0F       		.uleb128 0xf
 3037 09d2 32030000 		.4byte	.LASF66
 3038 09d6 01       		.byte	0x1
 3039 09d7 B904     		.2byte	0x4b9
 3040 09d9 00000000 		.4byte	.LFB25
 3041 09dd 34000000 		.4byte	.LFE25-.LFB25
 3042 09e1 01       		.uleb128 0x1
 3043 09e2 9C       		.byte	0x9c
 3044 09e3 070A0000 		.4byte	0xa07
 3045 09e7 1C       		.uleb128 0x1c
 3046 09e8 FF000000 		.4byte	.LASF21
 3047 09ec 01       		.byte	0x1
 3048 09ed B904     		.2byte	0x4b9
 3049 09ef 81000000 		.4byte	0x81
 3050 09f3 D7060000 		.4byte	.LLST46
 3051 09f7 15       		.uleb128 0x15
 3052 09f8 24000000 		.4byte	.LVL135
 3053 09fc 540D0000 		.4byte	0xd54
 3054 0a00 16       		.uleb128 0x16
 3055 0a01 01       		.uleb128 0x1
 3056 0a02 50       		.byte	0x50
 3057 0a03 01       		.uleb128 0x1
 3058 0a04 30       		.byte	0x30
 3059 0a05 00       		.byte	0
 3060 0a06 00       		.byte	0
 3061 0a07 0F       		.uleb128 0xf
 3062 0a08 6F050000 		.4byte	.LASF67
 3063 0a0c 01       		.byte	0x1
 3064 0a0d D204     		.2byte	0x4d2
 3065 0a0f 00000000 		.4byte	.LFB26
 3066 0a13 28000000 		.4byte	.LFE26-.LFB26
 3067 0a17 01       		.uleb128 0x1
 3068 0a18 9C       		.byte	0x9c
 3069 0a19 3D0A0000 		.4byte	0xa3d
 3070 0a1d 1C       		.uleb128 0x1c
 3071 0a1e FF000000 		.4byte	.LASF21
 3072 0a22 01       		.byte	0x1
 3073 0a23 D204     		.2byte	0x4d2
 3074 0a25 81000000 		.4byte	0x81
 3075 0a29 11070000 		.4byte	.LLST47
 3076 0a2d 15       		.uleb128 0x15
 3077 0a2e 1C000000 		.4byte	.LVL140
 3078 0a32 540D0000 		.4byte	0xd54
 3079 0a36 16       		.uleb128 0x16
 3080 0a37 01       		.uleb128 0x1
 3081 0a38 50       		.byte	0x50
 3082 0a39 01       		.uleb128 0x1
 3083 0a3a 30       		.byte	0x30
 3084 0a3b 00       		.byte	0
 3085 0a3c 00       		.byte	0
ARM GAS  C:\Users\Vit\AppData\Local\Temp\ccnJL0JJ.s 			page 87


 3086 0a3d 34       		.uleb128 0x34
 3087 0a3e D4030000 		.4byte	.LASF68
 3088 0a42 01       		.byte	0x1
 3089 0a43 F804     		.2byte	0x4f8
 3090 0a45 00000000 		.4byte	.LFB27
 3091 0a49 A0000000 		.4byte	.LFE27-.LFB27
 3092 0a4d 01       		.uleb128 0x1
 3093 0a4e 9C       		.byte	0x9c
 3094 0a4f 8D0A0000 		.4byte	0xa8d
 3095 0a53 1B       		.uleb128 0x1b
 3096 0a54 34000000 		.4byte	.LVL142
 3097 0a58 80080000 		.4byte	0x880
 3098 0a5c 660A0000 		.4byte	0xa66
 3099 0a60 16       		.uleb128 0x16
 3100 0a61 01       		.uleb128 0x1
 3101 0a62 50       		.byte	0x50
 3102 0a63 01       		.uleb128 0x1
 3103 0a64 34       		.byte	0x34
 3104 0a65 00       		.byte	0
 3105 0a66 1B       		.uleb128 0x1b
 3106 0a67 6A000000 		.4byte	.LVL144
 3107 0a6b 80080000 		.4byte	0x880
 3108 0a6f 7B0A0000 		.4byte	0xa7b
 3109 0a73 16       		.uleb128 0x16
 3110 0a74 01       		.uleb128 0x1
 3111 0a75 50       		.byte	0x50
 3112 0a76 03       		.uleb128 0x3
 3113 0a77 0A       		.byte	0xa
 3114 0a78 0004     		.2byte	0x400
 3115 0a7a 00       		.byte	0
 3116 0a7b 15       		.uleb128 0x15
 3117 0a7c 8E000000 		.4byte	.LVL146
 3118 0a80 80080000 		.4byte	0x880
 3119 0a84 16       		.uleb128 0x16
 3120 0a85 01       		.uleb128 0x1
 3121 0a86 50       		.byte	0x50
 3122 0a87 03       		.uleb128 0x3
 3123 0a88 40       		.byte	0x40
 3124 0a89 3E       		.byte	0x3e
 3125 0a8a 24       		.byte	0x24
 3126 0a8b 00       		.byte	0
 3127 0a8c 00       		.byte	0
 3128 0a8d 13       		.uleb128 0x13
 3129 0a8e 37010000 		.4byte	0x137
 3130 0a92 00000000 		.4byte	.LFB29
 3131 0a96 6C000000 		.4byte	.LFE29-.LFB29
 3132 0a9a 01       		.uleb128 0x1
 3133 0a9b 9C       		.byte	0x9c
 3134 0a9c 620B0000 		.4byte	0xb62
 3135 0aa0 14       		.uleb128 0x14
 3136 0aa1 44010000 		.4byte	0x144
 3137 0aa5 4B070000 		.4byte	.LLST48
 3138 0aa9 14       		.uleb128 0x14
 3139 0aaa 50010000 		.4byte	0x150
 3140 0aae 77070000 		.4byte	.LLST49
 3141 0ab2 14       		.uleb128 0x14
 3142 0ab3 5C010000 		.4byte	0x15c
ARM GAS  C:\Users\Vit\AppData\Local\Temp\ccnJL0JJ.s 			page 88


 3143 0ab7 98070000 		.4byte	.LLST50
 3144 0abb 1A       		.uleb128 0x1a
 3145 0abc 68010000 		.4byte	0x168
 3146 0ac0 C4070000 		.4byte	.LLST51
 3147 0ac4 18       		.uleb128 0x18
 3148 0ac5 34000000 		.4byte	.LBB112
 3149 0ac9 20000000 		.4byte	.LBE112-.LBB112
 3150 0acd 160B0000 		.4byte	0xb16
 3151 0ad1 14       		.uleb128 0x14
 3152 0ad2 50010000 		.4byte	0x150
 3153 0ad6 E2070000 		.4byte	.LLST52
 3154 0ada 14       		.uleb128 0x14
 3155 0adb 5C010000 		.4byte	0x15c
 3156 0adf F5070000 		.4byte	.LLST53
 3157 0ae3 14       		.uleb128 0x14
 3158 0ae4 44010000 		.4byte	0x144
 3159 0ae8 08080000 		.4byte	.LLST54
 3160 0aec 19       		.uleb128 0x19
 3161 0aed 34000000 		.4byte	.LBB113
 3162 0af1 20000000 		.4byte	.LBE113-.LBB113
 3163 0af5 1A       		.uleb128 0x1a
 3164 0af6 68010000 		.4byte	0x168
 3165 0afa 1B080000 		.4byte	.LLST55
 3166 0afe 15       		.uleb128 0x15
 3167 0aff 42000000 		.4byte	.LVL154
 3168 0b03 73050000 		.4byte	0x573
 3169 0b07 16       		.uleb128 0x16
 3170 0b08 01       		.uleb128 0x1
 3171 0b09 51       		.byte	0x51
 3172 0b0a 02       		.uleb128 0x2
 3173 0b0b 75       		.byte	0x75
 3174 0b0c 00       		.sleb128 0
 3175 0b0d 16       		.uleb128 0x16
 3176 0b0e 01       		.uleb128 0x1
 3177 0b0f 50       		.byte	0x50
 3178 0b10 02       		.uleb128 0x2
 3179 0b11 74       		.byte	0x74
 3180 0b12 00       		.sleb128 0
 3181 0b13 00       		.byte	0
 3182 0b14 00       		.byte	0
 3183 0b15 00       		.byte	0
 3184 0b16 1B       		.uleb128 0x1b
 3185 0b17 10000000 		.4byte	.LVL148
 3186 0b1b 68030000 		.4byte	0x368
 3187 0b1f 2A0B0000 		.4byte	0xb2a
 3188 0b23 16       		.uleb128 0x16
 3189 0b24 01       		.uleb128 0x1
 3190 0b25 50       		.byte	0x50
 3191 0b26 02       		.uleb128 0x2
 3192 0b27 74       		.byte	0x74
 3193 0b28 00       		.sleb128 0
 3194 0b29 00       		.byte	0
 3195 0b2a 1B       		.uleb128 0x1b
 3196 0b2b 24000000 		.4byte	.LVL149
 3197 0b2f 8F060000 		.4byte	0x68f
 3198 0b33 3E0B0000 		.4byte	0xb3e
 3199 0b37 16       		.uleb128 0x16
ARM GAS  C:\Users\Vit\AppData\Local\Temp\ccnJL0JJ.s 			page 89


 3200 0b38 01       		.uleb128 0x1
 3201 0b39 50       		.byte	0x50
 3202 0b3a 02       		.uleb128 0x2
 3203 0b3b 74       		.byte	0x74
 3204 0b3c 00       		.sleb128 0
 3205 0b3d 00       		.byte	0
 3206 0b3e 1B       		.uleb128 0x1b
 3207 0b3f 2E000000 		.4byte	.LVL151
 3208 0b43 8F060000 		.4byte	0x68f
 3209 0b47 520B0000 		.4byte	0xb52
 3210 0b4b 16       		.uleb128 0x16
 3211 0b4c 01       		.uleb128 0x1
 3212 0b4d 50       		.byte	0x50
 3213 0b4e 02       		.uleb128 0x2
 3214 0b4f 74       		.byte	0x74
 3215 0b50 00       		.sleb128 0
 3216 0b51 00       		.byte	0
 3217 0b52 15       		.uleb128 0x15
 3218 0b53 5A000000 		.4byte	.LVL156
 3219 0b57 540D0000 		.4byte	0xd54
 3220 0b5b 16       		.uleb128 0x16
 3221 0b5c 01       		.uleb128 0x1
 3222 0b5d 50       		.byte	0x50
 3223 0b5e 01       		.uleb128 0x1
 3224 0b5f 30       		.byte	0x30
 3225 0b60 00       		.byte	0
 3226 0b61 00       		.byte	0
 3227 0b62 0F       		.uleb128 0xf
 3228 0b63 C5040000 		.4byte	.LASF69
 3229 0b67 01       		.byte	0x1
 3230 0b68 5B05     		.2byte	0x55b
 3231 0b6a 00000000 		.4byte	.LFB28
 3232 0b6e 3C000000 		.4byte	.LFE28-.LFB28
 3233 0b72 01       		.uleb128 0x1
 3234 0b73 9C       		.byte	0x9c
 3235 0b74 1A0C0000 		.4byte	0xc1a
 3236 0b78 1C       		.uleb128 0x1c
 3237 0b79 FF000000 		.4byte	.LASF21
 3238 0b7d 01       		.byte	0x1
 3239 0b7e 5B05     		.2byte	0x55b
 3240 0b80 81000000 		.4byte	0x81
 3241 0b84 2E080000 		.4byte	.LLST56
 3242 0b88 1C       		.uleb128 0x1c
 3243 0b89 27050000 		.4byte	.LASF27
 3244 0b8d 01       		.byte	0x1
 3245 0b8e 5B05     		.2byte	0x55b
 3246 0b90 CE000000 		.4byte	0xce
 3247 0b94 5A080000 		.4byte	.LLST57
 3248 0b98 1C       		.uleb128 0x1c
 3249 0b99 17050000 		.4byte	.LASF70
 3250 0b9d 01       		.byte	0x1
 3251 0b9e 5B05     		.2byte	0x55b
 3252 0ba0 81000000 		.4byte	0x81
 3253 0ba4 7B080000 		.4byte	.LLST58
 3254 0ba8 10       		.uleb128 0x10
 3255 0ba9 F7010000 		.4byte	.LASF43
 3256 0bad 01       		.byte	0x1
ARM GAS  C:\Users\Vit\AppData\Local\Temp\ccnJL0JJ.s 			page 90


 3257 0bae 5D05     		.2byte	0x55d
 3258 0bb0 81000000 		.4byte	0x81
 3259 0bb4 A7080000 		.4byte	.LLST59
 3260 0bb8 10       		.uleb128 0x10
 3261 0bb9 0B030000 		.4byte	.LASF71
 3262 0bbd 01       		.byte	0x1
 3263 0bbe 5E05     		.2byte	0x55e
 3264 0bc0 81000000 		.4byte	0x81
 3265 0bc4 BA080000 		.4byte	.LLST60
 3266 0bc8 1B       		.uleb128 0x1b
 3267 0bc9 10000000 		.4byte	.LVL160
 3268 0bcd 68030000 		.4byte	0x368
 3269 0bd1 DC0B0000 		.4byte	0xbdc
 3270 0bd5 16       		.uleb128 0x16
 3271 0bd6 01       		.uleb128 0x1
 3272 0bd7 50       		.byte	0x50
 3273 0bd8 02       		.uleb128 0x2
 3274 0bd9 75       		.byte	0x75
 3275 0bda 00       		.sleb128 0
 3276 0bdb 00       		.byte	0
 3277 0bdc 1B       		.uleb128 0x1b
 3278 0bdd 20000000 		.4byte	.LVL161
 3279 0be1 8F060000 		.4byte	0x68f
 3280 0be5 F00B0000 		.4byte	0xbf0
 3281 0be9 16       		.uleb128 0x16
 3282 0bea 01       		.uleb128 0x1
 3283 0beb 50       		.byte	0x50
 3284 0bec 02       		.uleb128 0x2
 3285 0bed 75       		.byte	0x75
 3286 0bee 00       		.sleb128 0
 3287 0bef 00       		.byte	0
 3288 0bf0 1B       		.uleb128 0x1b
 3289 0bf1 2C000000 		.4byte	.LVL163
 3290 0bf5 37010000 		.4byte	0x137
 3291 0bf9 0A0C0000 		.4byte	0xc0a
 3292 0bfd 16       		.uleb128 0x16
 3293 0bfe 01       		.uleb128 0x1
 3294 0bff 51       		.byte	0x51
 3295 0c00 02       		.uleb128 0x2
 3296 0c01 76       		.byte	0x76
 3297 0c02 00       		.sleb128 0
 3298 0c03 16       		.uleb128 0x16
 3299 0c04 01       		.uleb128 0x1
 3300 0c05 50       		.byte	0x50
 3301 0c06 02       		.uleb128 0x2
 3302 0c07 75       		.byte	0x75
 3303 0c08 00       		.sleb128 0
 3304 0c09 00       		.byte	0
 3305 0c0a 15       		.uleb128 0x15
 3306 0c0b 34000000 		.4byte	.LVL164
 3307 0c0f 540D0000 		.4byte	0xd54
 3308 0c13 16       		.uleb128 0x16
 3309 0c14 01       		.uleb128 0x1
 3310 0c15 50       		.byte	0x50
 3311 0c16 01       		.uleb128 0x1
 3312 0c17 30       		.byte	0x30
 3313 0c18 00       		.byte	0
ARM GAS  C:\Users\Vit\AppData\Local\Temp\ccnJL0JJ.s 			page 91


 3314 0c19 00       		.byte	0
 3315 0c1a 0F       		.uleb128 0xf
 3316 0c1b ED000000 		.4byte	.LASF72
 3317 0c1f 01       		.byte	0x1
 3318 0c20 DC05     		.2byte	0x5dc
 3319 0c22 00000000 		.4byte	.LFB30
 3320 0c26 52000000 		.4byte	.LFE30-.LFB30
 3321 0c2a 01       		.uleb128 0x1
 3322 0c2b 9C       		.byte	0x9c
 3323 0c2c AD0C0000 		.4byte	0xcad
 3324 0c30 1C       		.uleb128 0x1c
 3325 0c31 FF000000 		.4byte	.LASF21
 3326 0c35 01       		.byte	0x1
 3327 0c36 DC05     		.2byte	0x5dc
 3328 0c38 81000000 		.4byte	0x81
 3329 0c3c D6080000 		.4byte	.LLST61
 3330 0c40 1B       		.uleb128 0x1b
 3331 0c41 0A000000 		.4byte	.LVL168
 3332 0c45 C3020000 		.4byte	0x2c3
 3333 0c49 540C0000 		.4byte	0xc54
 3334 0c4d 16       		.uleb128 0x16
 3335 0c4e 01       		.uleb128 0x1
 3336 0c4f 50       		.byte	0x50
 3337 0c50 02       		.uleb128 0x2
 3338 0c51 74       		.byte	0x74
 3339 0c52 00       		.sleb128 0
 3340 0c53 00       		.byte	0
 3341 0c54 1B       		.uleb128 0x1b
 3342 0c55 18000000 		.4byte	.LVL169
 3343 0c59 C3020000 		.4byte	0x2c3
 3344 0c5d 680C0000 		.4byte	0xc68
 3345 0c61 16       		.uleb128 0x16
 3346 0c62 01       		.uleb128 0x1
 3347 0c63 50       		.byte	0x50
 3348 0c64 02       		.uleb128 0x2
 3349 0c65 74       		.byte	0x74
 3350 0c66 00       		.sleb128 0
 3351 0c67 00       		.byte	0
 3352 0c68 11       		.uleb128 0x11
 3353 0c69 22000000 		.4byte	.LVL170
 3354 0c6d 06090000 		.4byte	0x906
 3355 0c71 11       		.uleb128 0x11
 3356 0c72 2E000000 		.4byte	.LVL172
 3357 0c76 C3020000 		.4byte	0x2c3
 3358 0c7a 1B       		.uleb128 0x1b
 3359 0c7b 3C000000 		.4byte	.LVL173
 3360 0c7f C3020000 		.4byte	0x2c3
 3361 0c83 8E0C0000 		.4byte	0xc8e
 3362 0c87 16       		.uleb128 0x16
 3363 0c88 01       		.uleb128 0x1
 3364 0c89 50       		.byte	0x50
 3365 0c8a 02       		.uleb128 0x2
 3366 0c8b 74       		.byte	0x74
 3367 0c8c 00       		.sleb128 0
 3368 0c8d 00       		.byte	0
 3369 0c8e 1B       		.uleb128 0x1b
 3370 0c8f 48000000 		.4byte	.LVL174
ARM GAS  C:\Users\Vit\AppData\Local\Temp\ccnJL0JJ.s 			page 92


 3371 0c93 06090000 		.4byte	0x906
 3372 0c97 A30C0000 		.4byte	0xca3
 3373 0c9b 16       		.uleb128 0x16
 3374 0c9c 01       		.uleb128 0x1
 3375 0c9d 50       		.byte	0x50
 3376 0c9e 03       		.uleb128 0x3
 3377 0c9f 0A       		.byte	0xa
 3378 0ca0 0008     		.2byte	0x800
 3379 0ca2 00       		.byte	0
 3380 0ca3 11       		.uleb128 0x11
 3381 0ca4 50000000 		.4byte	.LVL175
 3382 0ca8 80080000 		.4byte	0x880
 3383 0cac 00       		.byte	0
 3384 0cad 35       		.uleb128 0x35
 3385 0cae 37010000 		.4byte	.LASF73
 3386 0cb2 01       		.byte	0x1
 3387 0cb3 1A       		.byte	0x1a
 3388 0cb4 81000000 		.4byte	0x81
 3389 0cb8 05       		.uleb128 0x5
 3390 0cb9 03       		.byte	0x3
 3391 0cba 04000000 		.4byte	lfclkPosedgeWdtCounter0Enabled
 3392 0cbe 35       		.uleb128 0x35
 3393 0cbf FF050000 		.4byte	.LASF74
 3394 0cc3 01       		.byte	0x1
 3395 0cc4 1B       		.byte	0x1b
 3396 0cc5 81000000 		.4byte	0x81
 3397 0cc9 05       		.uleb128 0x5
 3398 0cca 03       		.byte	0x3
 3399 0ccb 08000000 		.4byte	lfclkPosedgeWdtCounter0Mode
 3400 0ccf 35       		.uleb128 0x35
 3401 0cd0 A4050000 		.4byte	.LASF75
 3402 0cd4 01       		.byte	0x1
 3403 0cd5 1D       		.byte	0x1d
 3404 0cd6 AD000000 		.4byte	0xad
 3405 0cda 05       		.uleb128 0x5
 3406 0cdb 03       		.byte	0x3
 3407 0cdc 18000000 		.4byte	disableServicedIsr
 3408 0ce0 35       		.uleb128 0x35
 3409 0ce1 6B020000 		.4byte	.LASF76
 3410 0ce5 01       		.byte	0x1
 3411 0ce6 1E       		.byte	0x1e
 3412 0ce7 AD000000 		.4byte	0xad
 3413 0ceb 05       		.uleb128 0x5
 3414 0cec 03       		.byte	0x3
 3415 0ced 00000000 		.4byte	wdtIsrMask
 3416 0cf1 36       		.uleb128 0x36
 3417 0cf2 81000000 		.4byte	0x81
 3418 0cf6 010D0000 		.4byte	0xd01
 3419 0cfa 37       		.uleb128 0x37
 3420 0cfb E4000000 		.4byte	0xe4
 3421 0cff 02       		.byte	0x2
 3422 0d00 00       		.byte	0
 3423 0d01 35       		.uleb128 0x35
 3424 0d02 AB000000 		.4byte	.LASF77
 3425 0d06 01       		.byte	0x1
 3426 0d07 22       		.byte	0x22
 3427 0d08 120D0000 		.4byte	0xd12
ARM GAS  C:\Users\Vit\AppData\Local\Temp\ccnJL0JJ.s 			page 93


 3428 0d0c 05       		.uleb128 0x5
 3429 0d0d 03       		.byte	0x3
 3430 0d0e 00000000 		.4byte	counterIntMaskTbl
 3431 0d12 38       		.uleb128 0x38
 3432 0d13 F10C0000 		.4byte	0xcf1
 3433 0d17 36       		.uleb128 0x36
 3434 0d18 D9000000 		.4byte	0xd9
 3435 0d1c 270D0000 		.4byte	0xd27
 3436 0d20 37       		.uleb128 0x37
 3437 0d21 E4000000 		.4byte	0xe4
 3438 0d25 02       		.byte	0x2
 3439 0d26 00       		.byte	0
 3440 0d27 35       		.uleb128 0x35
 3441 0d28 BD000000 		.4byte	.LASF78
 3442 0d2c 01       		.byte	0x1
 3443 0d2d 2E       		.byte	0x2e
 3444 0d2e 170D0000 		.4byte	0xd17
 3445 0d32 05       		.uleb128 0x5
 3446 0d33 03       		.byte	0x3
 3447 0d34 0C000000 		.4byte	cySysWdtCallback
 3448 0d38 39       		.uleb128 0x39
 3449 0d39 2F040000 		.4byte	.LASF87
 3450 0d3d 04       		.byte	0x4
 3451 0d3e 5E       		.byte	0x5e
 3452 0d3f 6B000000 		.4byte	0x6b
 3453 0d43 3A       		.uleb128 0x3a
 3454 0d44 95000000 		.4byte	.LASF79
 3455 0d48 04       		.byte	0x4
 3456 0d49 5F       		.byte	0x5f
 3457 0d4a 540D0000 		.4byte	0xd54
 3458 0d4e 3B       		.uleb128 0x3b
 3459 0d4f 6B000000 		.4byte	0x6b
 3460 0d53 00       		.byte	0
 3461 0d54 3A       		.uleb128 0x3a
 3462 0d55 E4040000 		.4byte	.LASF80
 3463 0d59 04       		.byte	0x4
 3464 0d5a 60       		.byte	0x60
 3465 0d5b 650D0000 		.4byte	0xd65
 3466 0d5f 3B       		.uleb128 0x3b
 3467 0d60 6B000000 		.4byte	0x6b
 3468 0d64 00       		.byte	0
 3469 0d65 3C       		.uleb128 0x3c
 3470 0d66 C3010000 		.4byte	.LASF88
 3471 0d6a 04       		.byte	0x4
 3472 0d6b 58       		.byte	0x58
 3473 0d6c 3B       		.uleb128 0x3b
 3474 0d6d 76000000 		.4byte	0x76
 3475 0d71 00       		.byte	0
 3476 0d72 00       		.byte	0
 3477              		.section	.debug_abbrev,"",%progbits
 3478              	.Ldebug_abbrev0:
 3479 0000 01       		.uleb128 0x1
 3480 0001 11       		.uleb128 0x11
 3481 0002 01       		.byte	0x1
 3482 0003 25       		.uleb128 0x25
 3483 0004 0E       		.uleb128 0xe
 3484 0005 13       		.uleb128 0x13
ARM GAS  C:\Users\Vit\AppData\Local\Temp\ccnJL0JJ.s 			page 94


 3485 0006 0B       		.uleb128 0xb
 3486 0007 03       		.uleb128 0x3
 3487 0008 0E       		.uleb128 0xe
 3488 0009 1B       		.uleb128 0x1b
 3489 000a 0E       		.uleb128 0xe
 3490 000b 55       		.uleb128 0x55
 3491 000c 17       		.uleb128 0x17
 3492 000d 11       		.uleb128 0x11
 3493 000e 01       		.uleb128 0x1
 3494 000f 10       		.uleb128 0x10
 3495 0010 17       		.uleb128 0x17
 3496 0011 00       		.byte	0
 3497 0012 00       		.byte	0
 3498 0013 02       		.uleb128 0x2
 3499 0014 24       		.uleb128 0x24
 3500 0015 00       		.byte	0
 3501 0016 0B       		.uleb128 0xb
 3502 0017 0B       		.uleb128 0xb
 3503 0018 3E       		.uleb128 0x3e
 3504 0019 0B       		.uleb128 0xb
 3505 001a 03       		.uleb128 0x3
 3506 001b 0E       		.uleb128 0xe
 3507 001c 00       		.byte	0
 3508 001d 00       		.byte	0
 3509 001e 03       		.uleb128 0x3
 3510 001f 24       		.uleb128 0x24
 3511 0020 00       		.byte	0
 3512 0021 0B       		.uleb128 0xb
 3513 0022 0B       		.uleb128 0xb
 3514 0023 3E       		.uleb128 0x3e
 3515 0024 0B       		.uleb128 0xb
 3516 0025 03       		.uleb128 0x3
 3517 0026 08       		.uleb128 0x8
 3518 0027 00       		.byte	0
 3519 0028 00       		.byte	0
 3520 0029 04       		.uleb128 0x4
 3521 002a 16       		.uleb128 0x16
 3522 002b 00       		.byte	0
 3523 002c 03       		.uleb128 0x3
 3524 002d 0E       		.uleb128 0xe
 3525 002e 3A       		.uleb128 0x3a
 3526 002f 0B       		.uleb128 0xb
 3527 0030 3B       		.uleb128 0x3b
 3528 0031 0B       		.uleb128 0xb
 3529 0032 49       		.uleb128 0x49
 3530 0033 13       		.uleb128 0x13
 3531 0034 00       		.byte	0
 3532 0035 00       		.byte	0
 3533 0036 05       		.uleb128 0x5
 3534 0037 16       		.uleb128 0x16
 3535 0038 00       		.byte	0
 3536 0039 03       		.uleb128 0x3
 3537 003a 0E       		.uleb128 0xe
 3538 003b 3A       		.uleb128 0x3a
 3539 003c 0B       		.uleb128 0xb
 3540 003d 3B       		.uleb128 0x3b
 3541 003e 05       		.uleb128 0x5
ARM GAS  C:\Users\Vit\AppData\Local\Temp\ccnJL0JJ.s 			page 95


 3542 003f 49       		.uleb128 0x49
 3543 0040 13       		.uleb128 0x13
 3544 0041 00       		.byte	0
 3545 0042 00       		.byte	0
 3546 0043 06       		.uleb128 0x6
 3547 0044 35       		.uleb128 0x35
 3548 0045 00       		.byte	0
 3549 0046 49       		.uleb128 0x49
 3550 0047 13       		.uleb128 0x13
 3551 0048 00       		.byte	0
 3552 0049 00       		.byte	0
 3553 004a 07       		.uleb128 0x7
 3554 004b 0F       		.uleb128 0xf
 3555 004c 00       		.byte	0
 3556 004d 0B       		.uleb128 0xb
 3557 004e 0B       		.uleb128 0xb
 3558 004f 49       		.uleb128 0x49
 3559 0050 13       		.uleb128 0x13
 3560 0051 00       		.byte	0
 3561 0052 00       		.byte	0
 3562 0053 08       		.uleb128 0x8
 3563 0054 15       		.uleb128 0x15
 3564 0055 00       		.byte	0
 3565 0056 27       		.uleb128 0x27
 3566 0057 19       		.uleb128 0x19
 3567 0058 00       		.byte	0
 3568 0059 00       		.byte	0
 3569 005a 09       		.uleb128 0x9
 3570 005b 04       		.uleb128 0x4
 3571 005c 01       		.byte	0x1
 3572 005d 0B       		.uleb128 0xb
 3573 005e 0B       		.uleb128 0xb
 3574 005f 3A       		.uleb128 0x3a
 3575 0060 0B       		.uleb128 0xb
 3576 0061 3B       		.uleb128 0x3b
 3577 0062 0B       		.uleb128 0xb
 3578 0063 01       		.uleb128 0x1
 3579 0064 13       		.uleb128 0x13
 3580 0065 00       		.byte	0
 3581 0066 00       		.byte	0
 3582 0067 0A       		.uleb128 0xa
 3583 0068 28       		.uleb128 0x28
 3584 0069 00       		.byte	0
 3585 006a 03       		.uleb128 0x3
 3586 006b 0E       		.uleb128 0xe
 3587 006c 1C       		.uleb128 0x1c
 3588 006d 0D       		.uleb128 0xd
 3589 006e 00       		.byte	0
 3590 006f 00       		.byte	0
 3591 0070 0B       		.uleb128 0xb
 3592 0071 2E       		.uleb128 0x2e
 3593 0072 01       		.byte	0x1
 3594 0073 3F       		.uleb128 0x3f
 3595 0074 19       		.uleb128 0x19
 3596 0075 03       		.uleb128 0x3
 3597 0076 0E       		.uleb128 0xe
 3598 0077 3A       		.uleb128 0x3a
ARM GAS  C:\Users\Vit\AppData\Local\Temp\ccnJL0JJ.s 			page 96


 3599 0078 0B       		.uleb128 0xb
 3600 0079 3B       		.uleb128 0x3b
 3601 007a 05       		.uleb128 0x5
 3602 007b 27       		.uleb128 0x27
 3603 007c 19       		.uleb128 0x19
 3604 007d 20       		.uleb128 0x20
 3605 007e 0B       		.uleb128 0xb
 3606 007f 01       		.uleb128 0x1
 3607 0080 13       		.uleb128 0x13
 3608 0081 00       		.byte	0
 3609 0082 00       		.byte	0
 3610 0083 0C       		.uleb128 0xc
 3611 0084 05       		.uleb128 0x5
 3612 0085 00       		.byte	0
 3613 0086 03       		.uleb128 0x3
 3614 0087 0E       		.uleb128 0xe
 3615 0088 3A       		.uleb128 0x3a
 3616 0089 0B       		.uleb128 0xb
 3617 008a 3B       		.uleb128 0x3b
 3618 008b 05       		.uleb128 0x5
 3619 008c 49       		.uleb128 0x49
 3620 008d 13       		.uleb128 0x13
 3621 008e 00       		.byte	0
 3622 008f 00       		.byte	0
 3623 0090 0D       		.uleb128 0xd
 3624 0091 34       		.uleb128 0x34
 3625 0092 00       		.byte	0
 3626 0093 03       		.uleb128 0x3
 3627 0094 0E       		.uleb128 0xe
 3628 0095 3A       		.uleb128 0x3a
 3629 0096 0B       		.uleb128 0xb
 3630 0097 3B       		.uleb128 0x3b
 3631 0098 05       		.uleb128 0x5
 3632 0099 49       		.uleb128 0x49
 3633 009a 13       		.uleb128 0x13
 3634 009b 00       		.byte	0
 3635 009c 00       		.byte	0
 3636 009d 0E       		.uleb128 0xe
 3637 009e 2E       		.uleb128 0x2e
 3638 009f 00       		.byte	0
 3639 00a0 3F       		.uleb128 0x3f
 3640 00a1 19       		.uleb128 0x19
 3641 00a2 03       		.uleb128 0x3
 3642 00a3 0E       		.uleb128 0xe
 3643 00a4 3A       		.uleb128 0x3a
 3644 00a5 0B       		.uleb128 0xb
 3645 00a6 3B       		.uleb128 0x3b
 3646 00a7 0B       		.uleb128 0xb
 3647 00a8 27       		.uleb128 0x27
 3648 00a9 19       		.uleb128 0x19
 3649 00aa 11       		.uleb128 0x11
 3650 00ab 01       		.uleb128 0x1
 3651 00ac 12       		.uleb128 0x12
 3652 00ad 06       		.uleb128 0x6
 3653 00ae 40       		.uleb128 0x40
 3654 00af 18       		.uleb128 0x18
 3655 00b0 9742     		.uleb128 0x2117
ARM GAS  C:\Users\Vit\AppData\Local\Temp\ccnJL0JJ.s 			page 97


 3656 00b2 19       		.uleb128 0x19
 3657 00b3 00       		.byte	0
 3658 00b4 00       		.byte	0
 3659 00b5 0F       		.uleb128 0xf
 3660 00b6 2E       		.uleb128 0x2e
 3661 00b7 01       		.byte	0x1
 3662 00b8 3F       		.uleb128 0x3f
 3663 00b9 19       		.uleb128 0x19
 3664 00ba 03       		.uleb128 0x3
 3665 00bb 0E       		.uleb128 0xe
 3666 00bc 3A       		.uleb128 0x3a
 3667 00bd 0B       		.uleb128 0xb
 3668 00be 3B       		.uleb128 0x3b
 3669 00bf 05       		.uleb128 0x5
 3670 00c0 27       		.uleb128 0x27
 3671 00c1 19       		.uleb128 0x19
 3672 00c2 11       		.uleb128 0x11
 3673 00c3 01       		.uleb128 0x1
 3674 00c4 12       		.uleb128 0x12
 3675 00c5 06       		.uleb128 0x6
 3676 00c6 40       		.uleb128 0x40
 3677 00c7 18       		.uleb128 0x18
 3678 00c8 9742     		.uleb128 0x2117
 3679 00ca 19       		.uleb128 0x19
 3680 00cb 01       		.uleb128 0x1
 3681 00cc 13       		.uleb128 0x13
 3682 00cd 00       		.byte	0
 3683 00ce 00       		.byte	0
 3684 00cf 10       		.uleb128 0x10
 3685 00d0 34       		.uleb128 0x34
 3686 00d1 00       		.byte	0
 3687 00d2 03       		.uleb128 0x3
 3688 00d3 0E       		.uleb128 0xe
 3689 00d4 3A       		.uleb128 0x3a
 3690 00d5 0B       		.uleb128 0xb
 3691 00d6 3B       		.uleb128 0x3b
 3692 00d7 05       		.uleb128 0x5
 3693 00d8 49       		.uleb128 0x49
 3694 00d9 13       		.uleb128 0x13
 3695 00da 02       		.uleb128 0x2
 3696 00db 17       		.uleb128 0x17
 3697 00dc 00       		.byte	0
 3698 00dd 00       		.byte	0
 3699 00de 11       		.uleb128 0x11
 3700 00df 898201   		.uleb128 0x4109
 3701 00e2 00       		.byte	0
 3702 00e3 11       		.uleb128 0x11
 3703 00e4 01       		.uleb128 0x1
 3704 00e5 31       		.uleb128 0x31
 3705 00e6 13       		.uleb128 0x13
 3706 00e7 00       		.byte	0
 3707 00e8 00       		.byte	0
 3708 00e9 12       		.uleb128 0x12
 3709 00ea 2E       		.uleb128 0x2e
 3710 00eb 01       		.byte	0x1
 3711 00ec 3F       		.uleb128 0x3f
 3712 00ed 19       		.uleb128 0x19
ARM GAS  C:\Users\Vit\AppData\Local\Temp\ccnJL0JJ.s 			page 98


 3713 00ee 03       		.uleb128 0x3
 3714 00ef 0E       		.uleb128 0xe
 3715 00f0 3A       		.uleb128 0x3a
 3716 00f1 0B       		.uleb128 0xb
 3717 00f2 3B       		.uleb128 0x3b
 3718 00f3 05       		.uleb128 0x5
 3719 00f4 27       		.uleb128 0x27
 3720 00f5 19       		.uleb128 0x19
 3721 00f6 49       		.uleb128 0x49
 3722 00f7 13       		.uleb128 0x13
 3723 00f8 20       		.uleb128 0x20
 3724 00f9 0B       		.uleb128 0xb
 3725 00fa 01       		.uleb128 0x1
 3726 00fb 13       		.uleb128 0x13
 3727 00fc 00       		.byte	0
 3728 00fd 00       		.byte	0
 3729 00fe 13       		.uleb128 0x13
 3730 00ff 2E       		.uleb128 0x2e
 3731 0100 01       		.byte	0x1
 3732 0101 31       		.uleb128 0x31
 3733 0102 13       		.uleb128 0x13
 3734 0103 11       		.uleb128 0x11
 3735 0104 01       		.uleb128 0x1
 3736 0105 12       		.uleb128 0x12
 3737 0106 06       		.uleb128 0x6
 3738 0107 40       		.uleb128 0x40
 3739 0108 18       		.uleb128 0x18
 3740 0109 9742     		.uleb128 0x2117
 3741 010b 19       		.uleb128 0x19
 3742 010c 01       		.uleb128 0x1
 3743 010d 13       		.uleb128 0x13
 3744 010e 00       		.byte	0
 3745 010f 00       		.byte	0
 3746 0110 14       		.uleb128 0x14
 3747 0111 05       		.uleb128 0x5
 3748 0112 00       		.byte	0
 3749 0113 31       		.uleb128 0x31
 3750 0114 13       		.uleb128 0x13
 3751 0115 02       		.uleb128 0x2
 3752 0116 17       		.uleb128 0x17
 3753 0117 00       		.byte	0
 3754 0118 00       		.byte	0
 3755 0119 15       		.uleb128 0x15
 3756 011a 898201   		.uleb128 0x4109
 3757 011d 01       		.byte	0x1
 3758 011e 11       		.uleb128 0x11
 3759 011f 01       		.uleb128 0x1
 3760 0120 31       		.uleb128 0x31
 3761 0121 13       		.uleb128 0x13
 3762 0122 00       		.byte	0
 3763 0123 00       		.byte	0
 3764 0124 16       		.uleb128 0x16
 3765 0125 8A8201   		.uleb128 0x410a
 3766 0128 00       		.byte	0
 3767 0129 02       		.uleb128 0x2
 3768 012a 18       		.uleb128 0x18
 3769 012b 9142     		.uleb128 0x2111
ARM GAS  C:\Users\Vit\AppData\Local\Temp\ccnJL0JJ.s 			page 99


 3770 012d 18       		.uleb128 0x18
 3771 012e 00       		.byte	0
 3772 012f 00       		.byte	0
 3773 0130 17       		.uleb128 0x17
 3774 0131 34       		.uleb128 0x34
 3775 0132 00       		.byte	0
 3776 0133 31       		.uleb128 0x31
 3777 0134 13       		.uleb128 0x13
 3778 0135 00       		.byte	0
 3779 0136 00       		.byte	0
 3780 0137 18       		.uleb128 0x18
 3781 0138 0B       		.uleb128 0xb
 3782 0139 01       		.byte	0x1
 3783 013a 11       		.uleb128 0x11
 3784 013b 01       		.uleb128 0x1
 3785 013c 12       		.uleb128 0x12
 3786 013d 06       		.uleb128 0x6
 3787 013e 01       		.uleb128 0x1
 3788 013f 13       		.uleb128 0x13
 3789 0140 00       		.byte	0
 3790 0141 00       		.byte	0
 3791 0142 19       		.uleb128 0x19
 3792 0143 0B       		.uleb128 0xb
 3793 0144 01       		.byte	0x1
 3794 0145 11       		.uleb128 0x11
 3795 0146 01       		.uleb128 0x1
 3796 0147 12       		.uleb128 0x12
 3797 0148 06       		.uleb128 0x6
 3798 0149 00       		.byte	0
 3799 014a 00       		.byte	0
 3800 014b 1A       		.uleb128 0x1a
 3801 014c 34       		.uleb128 0x34
 3802 014d 00       		.byte	0
 3803 014e 31       		.uleb128 0x31
 3804 014f 13       		.uleb128 0x13
 3805 0150 02       		.uleb128 0x2
 3806 0151 17       		.uleb128 0x17
 3807 0152 00       		.byte	0
 3808 0153 00       		.byte	0
 3809 0154 1B       		.uleb128 0x1b
 3810 0155 898201   		.uleb128 0x4109
 3811 0158 01       		.byte	0x1
 3812 0159 11       		.uleb128 0x11
 3813 015a 01       		.uleb128 0x1
 3814 015b 31       		.uleb128 0x31
 3815 015c 13       		.uleb128 0x13
 3816 015d 01       		.uleb128 0x1
 3817 015e 13       		.uleb128 0x13
 3818 015f 00       		.byte	0
 3819 0160 00       		.byte	0
 3820 0161 1C       		.uleb128 0x1c
 3821 0162 05       		.uleb128 0x5
 3822 0163 00       		.byte	0
 3823 0164 03       		.uleb128 0x3
 3824 0165 0E       		.uleb128 0xe
 3825 0166 3A       		.uleb128 0x3a
 3826 0167 0B       		.uleb128 0xb
ARM GAS  C:\Users\Vit\AppData\Local\Temp\ccnJL0JJ.s 			page 100


 3827 0168 3B       		.uleb128 0x3b
 3828 0169 05       		.uleb128 0x5
 3829 016a 49       		.uleb128 0x49
 3830 016b 13       		.uleb128 0x13
 3831 016c 02       		.uleb128 0x2
 3832 016d 17       		.uleb128 0x17
 3833 016e 00       		.byte	0
 3834 016f 00       		.byte	0
 3835 0170 1D       		.uleb128 0x1d
 3836 0171 2E       		.uleb128 0x2e
 3837 0172 01       		.byte	0x1
 3838 0173 3F       		.uleb128 0x3f
 3839 0174 19       		.uleb128 0x19
 3840 0175 03       		.uleb128 0x3
 3841 0176 0E       		.uleb128 0xe
 3842 0177 3A       		.uleb128 0x3a
 3843 0178 0B       		.uleb128 0xb
 3844 0179 3B       		.uleb128 0x3b
 3845 017a 05       		.uleb128 0x5
 3846 017b 27       		.uleb128 0x27
 3847 017c 19       		.uleb128 0x19
 3848 017d 49       		.uleb128 0x49
 3849 017e 13       		.uleb128 0x13
 3850 017f 11       		.uleb128 0x11
 3851 0180 01       		.uleb128 0x1
 3852 0181 12       		.uleb128 0x12
 3853 0182 06       		.uleb128 0x6
 3854 0183 40       		.uleb128 0x40
 3855 0184 18       		.uleb128 0x18
 3856 0185 9742     		.uleb128 0x2117
 3857 0187 19       		.uleb128 0x19
 3858 0188 01       		.uleb128 0x1
 3859 0189 13       		.uleb128 0x13
 3860 018a 00       		.byte	0
 3861 018b 00       		.byte	0
 3862 018c 1E       		.uleb128 0x1e
 3863 018d 1D       		.uleb128 0x1d
 3864 018e 01       		.byte	0x1
 3865 018f 31       		.uleb128 0x31
 3866 0190 13       		.uleb128 0x13
 3867 0191 11       		.uleb128 0x11
 3868 0192 01       		.uleb128 0x1
 3869 0193 12       		.uleb128 0x12
 3870 0194 06       		.uleb128 0x6
 3871 0195 58       		.uleb128 0x58
 3872 0196 0B       		.uleb128 0xb
 3873 0197 59       		.uleb128 0x59
 3874 0198 05       		.uleb128 0x5
 3875 0199 01       		.uleb128 0x1
 3876 019a 13       		.uleb128 0x13
 3877 019b 00       		.byte	0
 3878 019c 00       		.byte	0
 3879 019d 1F       		.uleb128 0x1f
 3880 019e 05       		.uleb128 0x5
 3881 019f 00       		.byte	0
 3882 01a0 31       		.uleb128 0x31
 3883 01a1 13       		.uleb128 0x13
ARM GAS  C:\Users\Vit\AppData\Local\Temp\ccnJL0JJ.s 			page 101


 3884 01a2 00       		.byte	0
 3885 01a3 00       		.byte	0
 3886 01a4 20       		.uleb128 0x20
 3887 01a5 1D       		.uleb128 0x1d
 3888 01a6 01       		.byte	0x1
 3889 01a7 31       		.uleb128 0x31
 3890 01a8 13       		.uleb128 0x13
 3891 01a9 11       		.uleb128 0x11
 3892 01aa 01       		.uleb128 0x1
 3893 01ab 12       		.uleb128 0x12
 3894 01ac 06       		.uleb128 0x6
 3895 01ad 58       		.uleb128 0x58
 3896 01ae 0B       		.uleb128 0xb
 3897 01af 59       		.uleb128 0x59
 3898 01b0 05       		.uleb128 0x5
 3899 01b1 00       		.byte	0
 3900 01b2 00       		.byte	0
 3901 01b3 21       		.uleb128 0x21
 3902 01b4 2E       		.uleb128 0x2e
 3903 01b5 00       		.byte	0
 3904 01b6 03       		.uleb128 0x3
 3905 01b7 0E       		.uleb128 0xe
 3906 01b8 3A       		.uleb128 0x3a
 3907 01b9 0B       		.uleb128 0xb
 3908 01ba 3B       		.uleb128 0x3b
 3909 01bb 05       		.uleb128 0x5
 3910 01bc 27       		.uleb128 0x27
 3911 01bd 19       		.uleb128 0x19
 3912 01be 49       		.uleb128 0x49
 3913 01bf 13       		.uleb128 0x13
 3914 01c0 20       		.uleb128 0x20
 3915 01c1 0B       		.uleb128 0xb
 3916 01c2 00       		.byte	0
 3917 01c3 00       		.byte	0
 3918 01c4 22       		.uleb128 0x22
 3919 01c5 05       		.uleb128 0x5
 3920 01c6 00       		.byte	0
 3921 01c7 03       		.uleb128 0x3
 3922 01c8 0E       		.uleb128 0xe
 3923 01c9 3A       		.uleb128 0x3a
 3924 01ca 0B       		.uleb128 0xb
 3925 01cb 3B       		.uleb128 0x3b
 3926 01cc 05       		.uleb128 0x5
 3927 01cd 49       		.uleb128 0x49
 3928 01ce 13       		.uleb128 0x13
 3929 01cf 02       		.uleb128 0x2
 3930 01d0 18       		.uleb128 0x18
 3931 01d1 00       		.byte	0
 3932 01d2 00       		.byte	0
 3933 01d3 23       		.uleb128 0x23
 3934 01d4 1D       		.uleb128 0x1d
 3935 01d5 00       		.byte	0
 3936 01d6 31       		.uleb128 0x31
 3937 01d7 13       		.uleb128 0x13
 3938 01d8 11       		.uleb128 0x11
 3939 01d9 01       		.uleb128 0x1
 3940 01da 12       		.uleb128 0x12
ARM GAS  C:\Users\Vit\AppData\Local\Temp\ccnJL0JJ.s 			page 102


 3941 01db 06       		.uleb128 0x6
 3942 01dc 58       		.uleb128 0x58
 3943 01dd 0B       		.uleb128 0xb
 3944 01de 59       		.uleb128 0x59
 3945 01df 05       		.uleb128 0x5
 3946 01e0 00       		.byte	0
 3947 01e1 00       		.byte	0
 3948 01e2 24       		.uleb128 0x24
 3949 01e3 1D       		.uleb128 0x1d
 3950 01e4 01       		.byte	0x1
 3951 01e5 31       		.uleb128 0x31
 3952 01e6 13       		.uleb128 0x13
 3953 01e7 52       		.uleb128 0x52
 3954 01e8 01       		.uleb128 0x1
 3955 01e9 55       		.uleb128 0x55
 3956 01ea 17       		.uleb128 0x17
 3957 01eb 58       		.uleb128 0x58
 3958 01ec 0B       		.uleb128 0xb
 3959 01ed 59       		.uleb128 0x59
 3960 01ee 05       		.uleb128 0x5
 3961 01ef 01       		.uleb128 0x1
 3962 01f0 13       		.uleb128 0x13
 3963 01f1 00       		.byte	0
 3964 01f2 00       		.byte	0
 3965 01f3 25       		.uleb128 0x25
 3966 01f4 05       		.uleb128 0x5
 3967 01f5 00       		.byte	0
 3968 01f6 31       		.uleb128 0x31
 3969 01f7 13       		.uleb128 0x13
 3970 01f8 1C       		.uleb128 0x1c
 3971 01f9 0B       		.uleb128 0xb
 3972 01fa 00       		.byte	0
 3973 01fb 00       		.byte	0
 3974 01fc 26       		.uleb128 0x26
 3975 01fd 1D       		.uleb128 0x1d
 3976 01fe 01       		.byte	0x1
 3977 01ff 31       		.uleb128 0x31
 3978 0200 13       		.uleb128 0x13
 3979 0201 52       		.uleb128 0x52
 3980 0202 01       		.uleb128 0x1
 3981 0203 55       		.uleb128 0x55
 3982 0204 17       		.uleb128 0x17
 3983 0205 58       		.uleb128 0x58
 3984 0206 0B       		.uleb128 0xb
 3985 0207 59       		.uleb128 0x59
 3986 0208 05       		.uleb128 0x5
 3987 0209 00       		.byte	0
 3988 020a 00       		.byte	0
 3989 020b 27       		.uleb128 0x27
 3990 020c 2E       		.uleb128 0x2e
 3991 020d 00       		.byte	0
 3992 020e 3F       		.uleb128 0x3f
 3993 020f 19       		.uleb128 0x19
 3994 0210 03       		.uleb128 0x3
 3995 0211 0E       		.uleb128 0xe
 3996 0212 3A       		.uleb128 0x3a
 3997 0213 0B       		.uleb128 0xb
ARM GAS  C:\Users\Vit\AppData\Local\Temp\ccnJL0JJ.s 			page 103


 3998 0214 3B       		.uleb128 0x3b
 3999 0215 05       		.uleb128 0x5
 4000 0216 27       		.uleb128 0x27
 4001 0217 19       		.uleb128 0x19
 4002 0218 49       		.uleb128 0x49
 4003 0219 13       		.uleb128 0x13
 4004 021a 11       		.uleb128 0x11
 4005 021b 01       		.uleb128 0x1
 4006 021c 12       		.uleb128 0x12
 4007 021d 06       		.uleb128 0x6
 4008 021e 40       		.uleb128 0x40
 4009 021f 18       		.uleb128 0x18
 4010 0220 9742     		.uleb128 0x2117
 4011 0222 19       		.uleb128 0x19
 4012 0223 00       		.byte	0
 4013 0224 00       		.byte	0
 4014 0225 28       		.uleb128 0x28
 4015 0226 2E       		.uleb128 0x2e
 4016 0227 00       		.byte	0
 4017 0228 03       		.uleb128 0x3
 4018 0229 0E       		.uleb128 0xe
 4019 022a 3A       		.uleb128 0x3a
 4020 022b 0B       		.uleb128 0xb
 4021 022c 3B       		.uleb128 0x3b
 4022 022d 0B       		.uleb128 0xb
 4023 022e 27       		.uleb128 0x27
 4024 022f 19       		.uleb128 0x19
 4025 0230 49       		.uleb128 0x49
 4026 0231 13       		.uleb128 0x13
 4027 0232 20       		.uleb128 0x20
 4028 0233 0B       		.uleb128 0xb
 4029 0234 00       		.byte	0
 4030 0235 00       		.byte	0
 4031 0236 29       		.uleb128 0x29
 4032 0237 2E       		.uleb128 0x2e
 4033 0238 01       		.byte	0x1
 4034 0239 03       		.uleb128 0x3
 4035 023a 0E       		.uleb128 0xe
 4036 023b 3A       		.uleb128 0x3a
 4037 023c 0B       		.uleb128 0xb
 4038 023d 3B       		.uleb128 0x3b
 4039 023e 05       		.uleb128 0x5
 4040 023f 27       		.uleb128 0x27
 4041 0240 19       		.uleb128 0x19
 4042 0241 20       		.uleb128 0x20
 4043 0242 0B       		.uleb128 0xb
 4044 0243 01       		.uleb128 0x1
 4045 0244 13       		.uleb128 0x13
 4046 0245 00       		.byte	0
 4047 0246 00       		.byte	0
 4048 0247 2A       		.uleb128 0x2a
 4049 0248 2E       		.uleb128 0x2e
 4050 0249 00       		.byte	0
 4051 024a 03       		.uleb128 0x3
 4052 024b 0E       		.uleb128 0xe
 4053 024c 3A       		.uleb128 0x3a
 4054 024d 0B       		.uleb128 0xb
ARM GAS  C:\Users\Vit\AppData\Local\Temp\ccnJL0JJ.s 			page 104


 4055 024e 3B       		.uleb128 0x3b
 4056 024f 05       		.uleb128 0x5
 4057 0250 27       		.uleb128 0x27
 4058 0251 19       		.uleb128 0x19
 4059 0252 20       		.uleb128 0x20
 4060 0253 0B       		.uleb128 0xb
 4061 0254 00       		.byte	0
 4062 0255 00       		.byte	0
 4063 0256 2B       		.uleb128 0x2b
 4064 0257 2E       		.uleb128 0x2e
 4065 0258 01       		.byte	0x1
 4066 0259 3F       		.uleb128 0x3f
 4067 025a 19       		.uleb128 0x19
 4068 025b 03       		.uleb128 0x3
 4069 025c 0E       		.uleb128 0xe
 4070 025d 3A       		.uleb128 0x3a
 4071 025e 0B       		.uleb128 0xb
 4072 025f 3B       		.uleb128 0x3b
 4073 0260 0B       		.uleb128 0xb
 4074 0261 27       		.uleb128 0x27
 4075 0262 19       		.uleb128 0x19
 4076 0263 11       		.uleb128 0x11
 4077 0264 01       		.uleb128 0x1
 4078 0265 12       		.uleb128 0x12
 4079 0266 06       		.uleb128 0x6
 4080 0267 40       		.uleb128 0x40
 4081 0268 18       		.uleb128 0x18
 4082 0269 9742     		.uleb128 0x2117
 4083 026b 19       		.uleb128 0x19
 4084 026c 01       		.uleb128 0x1
 4085 026d 13       		.uleb128 0x13
 4086 026e 00       		.byte	0
 4087 026f 00       		.byte	0
 4088 0270 2C       		.uleb128 0x2c
 4089 0271 34       		.uleb128 0x34
 4090 0272 00       		.byte	0
 4091 0273 03       		.uleb128 0x3
 4092 0274 0E       		.uleb128 0xe
 4093 0275 3A       		.uleb128 0x3a
 4094 0276 0B       		.uleb128 0xb
 4095 0277 3B       		.uleb128 0x3b
 4096 0278 0B       		.uleb128 0xb
 4097 0279 49       		.uleb128 0x49
 4098 027a 13       		.uleb128 0x13
 4099 027b 02       		.uleb128 0x2
 4100 027c 17       		.uleb128 0x17
 4101 027d 00       		.byte	0
 4102 027e 00       		.byte	0
 4103 027f 2D       		.uleb128 0x2d
 4104 0280 1D       		.uleb128 0x1d
 4105 0281 00       		.byte	0
 4106 0282 31       		.uleb128 0x31
 4107 0283 13       		.uleb128 0x13
 4108 0284 52       		.uleb128 0x52
 4109 0285 01       		.uleb128 0x1
 4110 0286 55       		.uleb128 0x55
 4111 0287 17       		.uleb128 0x17
ARM GAS  C:\Users\Vit\AppData\Local\Temp\ccnJL0JJ.s 			page 105


 4112 0288 58       		.uleb128 0x58
 4113 0289 0B       		.uleb128 0xb
 4114 028a 59       		.uleb128 0x59
 4115 028b 0B       		.uleb128 0xb
 4116 028c 00       		.byte	0
 4117 028d 00       		.byte	0
 4118 028e 2E       		.uleb128 0x2e
 4119 028f 1D       		.uleb128 0x1d
 4120 0290 00       		.byte	0
 4121 0291 31       		.uleb128 0x31
 4122 0292 13       		.uleb128 0x13
 4123 0293 11       		.uleb128 0x11
 4124 0294 01       		.uleb128 0x1
 4125 0295 12       		.uleb128 0x12
 4126 0296 06       		.uleb128 0x6
 4127 0297 58       		.uleb128 0x58
 4128 0298 0B       		.uleb128 0xb
 4129 0299 59       		.uleb128 0x59
 4130 029a 0B       		.uleb128 0xb
 4131 029b 00       		.byte	0
 4132 029c 00       		.byte	0
 4133 029d 2F       		.uleb128 0x2f
 4134 029e 1D       		.uleb128 0x1d
 4135 029f 01       		.byte	0x1
 4136 02a0 31       		.uleb128 0x31
 4137 02a1 13       		.uleb128 0x13
 4138 02a2 52       		.uleb128 0x52
 4139 02a3 01       		.uleb128 0x1
 4140 02a4 55       		.uleb128 0x55
 4141 02a5 17       		.uleb128 0x17
 4142 02a6 58       		.uleb128 0x58
 4143 02a7 0B       		.uleb128 0xb
 4144 02a8 59       		.uleb128 0x59
 4145 02a9 0B       		.uleb128 0xb
 4146 02aa 01       		.uleb128 0x1
 4147 02ab 13       		.uleb128 0x13
 4148 02ac 00       		.byte	0
 4149 02ad 00       		.byte	0
 4150 02ae 30       		.uleb128 0x30
 4151 02af 0B       		.uleb128 0xb
 4152 02b0 01       		.byte	0x1
 4153 02b1 55       		.uleb128 0x55
 4154 02b2 17       		.uleb128 0x17
 4155 02b3 00       		.byte	0
 4156 02b4 00       		.byte	0
 4157 02b5 31       		.uleb128 0x31
 4158 02b6 34       		.uleb128 0x34
 4159 02b7 00       		.byte	0
 4160 02b8 31       		.uleb128 0x31
 4161 02b9 13       		.uleb128 0x13
 4162 02ba 02       		.uleb128 0x2
 4163 02bb 18       		.uleb128 0x18
 4164 02bc 00       		.byte	0
 4165 02bd 00       		.byte	0
 4166 02be 32       		.uleb128 0x32
 4167 02bf 1D       		.uleb128 0x1d
 4168 02c0 01       		.byte	0x1
ARM GAS  C:\Users\Vit\AppData\Local\Temp\ccnJL0JJ.s 			page 106


 4169 02c1 31       		.uleb128 0x31
 4170 02c2 13       		.uleb128 0x13
 4171 02c3 11       		.uleb128 0x11
 4172 02c4 01       		.uleb128 0x1
 4173 02c5 12       		.uleb128 0x12
 4174 02c6 06       		.uleb128 0x6
 4175 02c7 58       		.uleb128 0x58
 4176 02c8 0B       		.uleb128 0xb
 4177 02c9 59       		.uleb128 0x59
 4178 02ca 0B       		.uleb128 0xb
 4179 02cb 01       		.uleb128 0x1
 4180 02cc 13       		.uleb128 0x13
 4181 02cd 00       		.byte	0
 4182 02ce 00       		.byte	0
 4183 02cf 33       		.uleb128 0x33
 4184 02d0 1D       		.uleb128 0x1d
 4185 02d1 00       		.byte	0
 4186 02d2 31       		.uleb128 0x31
 4187 02d3 13       		.uleb128 0x13
 4188 02d4 52       		.uleb128 0x52
 4189 02d5 01       		.uleb128 0x1
 4190 02d6 55       		.uleb128 0x55
 4191 02d7 17       		.uleb128 0x17
 4192 02d8 58       		.uleb128 0x58
 4193 02d9 0B       		.uleb128 0xb
 4194 02da 59       		.uleb128 0x59
 4195 02db 05       		.uleb128 0x5
 4196 02dc 00       		.byte	0
 4197 02dd 00       		.byte	0
 4198 02de 34       		.uleb128 0x34
 4199 02df 2E       		.uleb128 0x2e
 4200 02e0 01       		.byte	0x1
 4201 02e1 3F       		.uleb128 0x3f
 4202 02e2 19       		.uleb128 0x19
 4203 02e3 03       		.uleb128 0x3
 4204 02e4 0E       		.uleb128 0xe
 4205 02e5 3A       		.uleb128 0x3a
 4206 02e6 0B       		.uleb128 0xb
 4207 02e7 3B       		.uleb128 0x3b
 4208 02e8 05       		.uleb128 0x5
 4209 02e9 27       		.uleb128 0x27
 4210 02ea 19       		.uleb128 0x19
 4211 02eb 11       		.uleb128 0x11
 4212 02ec 01       		.uleb128 0x1
 4213 02ed 12       		.uleb128 0x12
 4214 02ee 06       		.uleb128 0x6
 4215 02ef 40       		.uleb128 0x40
 4216 02f0 18       		.uleb128 0x18
 4217 02f1 9642     		.uleb128 0x2116
 4218 02f3 19       		.uleb128 0x19
 4219 02f4 01       		.uleb128 0x1
 4220 02f5 13       		.uleb128 0x13
 4221 02f6 00       		.byte	0
 4222 02f7 00       		.byte	0
 4223 02f8 35       		.uleb128 0x35
 4224 02f9 34       		.uleb128 0x34
 4225 02fa 00       		.byte	0
ARM GAS  C:\Users\Vit\AppData\Local\Temp\ccnJL0JJ.s 			page 107


 4226 02fb 03       		.uleb128 0x3
 4227 02fc 0E       		.uleb128 0xe
 4228 02fd 3A       		.uleb128 0x3a
 4229 02fe 0B       		.uleb128 0xb
 4230 02ff 3B       		.uleb128 0x3b
 4231 0300 0B       		.uleb128 0xb
 4232 0301 49       		.uleb128 0x49
 4233 0302 13       		.uleb128 0x13
 4234 0303 02       		.uleb128 0x2
 4235 0304 18       		.uleb128 0x18
 4236 0305 00       		.byte	0
 4237 0306 00       		.byte	0
 4238 0307 36       		.uleb128 0x36
 4239 0308 01       		.uleb128 0x1
 4240 0309 01       		.byte	0x1
 4241 030a 49       		.uleb128 0x49
 4242 030b 13       		.uleb128 0x13
 4243 030c 01       		.uleb128 0x1
 4244 030d 13       		.uleb128 0x13
 4245 030e 00       		.byte	0
 4246 030f 00       		.byte	0
 4247 0310 37       		.uleb128 0x37
 4248 0311 21       		.uleb128 0x21
 4249 0312 00       		.byte	0
 4250 0313 49       		.uleb128 0x49
 4251 0314 13       		.uleb128 0x13
 4252 0315 2F       		.uleb128 0x2f
 4253 0316 0B       		.uleb128 0xb
 4254 0317 00       		.byte	0
 4255 0318 00       		.byte	0
 4256 0319 38       		.uleb128 0x38
 4257 031a 26       		.uleb128 0x26
 4258 031b 00       		.byte	0
 4259 031c 49       		.uleb128 0x49
 4260 031d 13       		.uleb128 0x13
 4261 031e 00       		.byte	0
 4262 031f 00       		.byte	0
 4263 0320 39       		.uleb128 0x39
 4264 0321 2E       		.uleb128 0x2e
 4265 0322 00       		.byte	0
 4266 0323 3F       		.uleb128 0x3f
 4267 0324 19       		.uleb128 0x19
 4268 0325 03       		.uleb128 0x3
 4269 0326 0E       		.uleb128 0xe
 4270 0327 3A       		.uleb128 0x3a
 4271 0328 0B       		.uleb128 0xb
 4272 0329 3B       		.uleb128 0x3b
 4273 032a 0B       		.uleb128 0xb
 4274 032b 27       		.uleb128 0x27
 4275 032c 19       		.uleb128 0x19
 4276 032d 49       		.uleb128 0x49
 4277 032e 13       		.uleb128 0x13
 4278 032f 3C       		.uleb128 0x3c
 4279 0330 19       		.uleb128 0x19
 4280 0331 00       		.byte	0
 4281 0332 00       		.byte	0
 4282 0333 3A       		.uleb128 0x3a
ARM GAS  C:\Users\Vit\AppData\Local\Temp\ccnJL0JJ.s 			page 108


 4283 0334 2E       		.uleb128 0x2e
 4284 0335 01       		.byte	0x1
 4285 0336 3F       		.uleb128 0x3f
 4286 0337 19       		.uleb128 0x19
 4287 0338 03       		.uleb128 0x3
 4288 0339 0E       		.uleb128 0xe
 4289 033a 3A       		.uleb128 0x3a
 4290 033b 0B       		.uleb128 0xb
 4291 033c 3B       		.uleb128 0x3b
 4292 033d 0B       		.uleb128 0xb
 4293 033e 27       		.uleb128 0x27
 4294 033f 19       		.uleb128 0x19
 4295 0340 3C       		.uleb128 0x3c
 4296 0341 19       		.uleb128 0x19
 4297 0342 01       		.uleb128 0x1
 4298 0343 13       		.uleb128 0x13
 4299 0344 00       		.byte	0
 4300 0345 00       		.byte	0
 4301 0346 3B       		.uleb128 0x3b
 4302 0347 05       		.uleb128 0x5
 4303 0348 00       		.byte	0
 4304 0349 49       		.uleb128 0x49
 4305 034a 13       		.uleb128 0x13
 4306 034b 00       		.byte	0
 4307 034c 00       		.byte	0
 4308 034d 3C       		.uleb128 0x3c
 4309 034e 2E       		.uleb128 0x2e
 4310 034f 01       		.byte	0x1
 4311 0350 3F       		.uleb128 0x3f
 4312 0351 19       		.uleb128 0x19
 4313 0352 03       		.uleb128 0x3
 4314 0353 0E       		.uleb128 0xe
 4315 0354 3A       		.uleb128 0x3a
 4316 0355 0B       		.uleb128 0xb
 4317 0356 3B       		.uleb128 0x3b
 4318 0357 0B       		.uleb128 0xb
 4319 0358 27       		.uleb128 0x27
 4320 0359 19       		.uleb128 0x19
 4321 035a 3C       		.uleb128 0x3c
 4322 035b 19       		.uleb128 0x19
 4323 035c 00       		.byte	0
 4324 035d 00       		.byte	0
 4325 035e 00       		.byte	0
 4326              		.section	.debug_loc,"",%progbits
 4327              	.Ldebug_loc0:
 4328              	.LLST0:
 4329 0000 06000000 		.4byte	.LVL0
 4330 0004 15000000 		.4byte	.LVL1-1
 4331 0008 0100     		.2byte	0x1
 4332 000a 50       		.byte	0x50
 4333 000b 00000000 		.4byte	0
 4334 000f 00000000 		.4byte	0
 4335              	.LLST1:
 4336 0013 08000000 		.4byte	.LVL2
 4337 0017 25000000 		.4byte	.LVL3-1
 4338 001b 0100     		.2byte	0x1
 4339 001d 50       		.byte	0x50
ARM GAS  C:\Users\Vit\AppData\Local\Temp\ccnJL0JJ.s 			page 109


 4340 001e 00000000 		.4byte	0
 4341 0022 00000000 		.4byte	0
 4342              	.LLST2:
 4343 0026 00000000 		.4byte	.LVL4
 4344 002a 0A000000 		.4byte	.LVL5
 4345 002e 0100     		.2byte	0x1
 4346 0030 50       		.byte	0x50
 4347 0031 0A000000 		.4byte	.LVL5
 4348 0035 12000000 		.4byte	.LVL7
 4349 0039 0100     		.2byte	0x1
 4350 003b 54       		.byte	0x54
 4351 003c 12000000 		.4byte	.LVL7
 4352 0040 24000000 		.4byte	.LFE6
 4353 0044 0400     		.2byte	0x4
 4354 0046 F3       		.byte	0xf3
 4355 0047 01       		.uleb128 0x1
 4356 0048 50       		.byte	0x50
 4357 0049 9F       		.byte	0x9f
 4358 004a 00000000 		.4byte	0
 4359 004e 00000000 		.4byte	0
 4360              	.LLST3:
 4361 0052 00000000 		.4byte	.LVL8
 4362 0056 0C000000 		.4byte	.LVL9
 4363 005a 0100     		.2byte	0x1
 4364 005c 50       		.byte	0x50
 4365 005d 0C000000 		.4byte	.LVL9
 4366 0061 20000000 		.4byte	.LVL13
 4367 0065 0100     		.2byte	0x1
 4368 0067 54       		.byte	0x54
 4369 0068 20000000 		.4byte	.LVL13
 4370 006c 38000000 		.4byte	.LFE7
 4371 0070 0400     		.2byte	0x4
 4372 0072 F3       		.byte	0xf3
 4373 0073 01       		.uleb128 0x1
 4374 0074 50       		.byte	0x50
 4375 0075 9F       		.byte	0x9f
 4376 0076 00000000 		.4byte	0
 4377 007a 00000000 		.4byte	0
 4378              	.LLST4:
 4379 007e 00000000 		.4byte	.LVL8
 4380 0082 0F000000 		.4byte	.LVL10-1
 4381 0086 0100     		.2byte	0x1
 4382 0088 51       		.byte	0x51
 4383 0089 0F000000 		.4byte	.LVL10-1
 4384 008d 30000000 		.4byte	.LVL17
 4385 0091 0100     		.2byte	0x1
 4386 0093 55       		.byte	0x55
 4387 0094 30000000 		.4byte	.LVL17
 4388 0098 38000000 		.4byte	.LFE7
 4389 009c 0400     		.2byte	0x4
 4390 009e F3       		.byte	0xf3
 4391 009f 01       		.uleb128 0x1
 4392 00a0 51       		.byte	0x51
 4393 00a1 9F       		.byte	0x9f
 4394 00a2 00000000 		.4byte	0
 4395 00a6 00000000 		.4byte	0
 4396              	.LLST5:
ARM GAS  C:\Users\Vit\AppData\Local\Temp\ccnJL0JJ.s 			page 110


 4397 00aa 1A000000 		.4byte	.LVL12
 4398 00ae 30000000 		.4byte	.LVL16
 4399 00b2 0100     		.2byte	0x1
 4400 00b4 55       		.byte	0x55
 4401 00b5 00000000 		.4byte	0
 4402 00b9 00000000 		.4byte	0
 4403              	.LLST6:
 4404 00bd 1A000000 		.4byte	.LVL12
 4405 00c1 20000000 		.4byte	.LVL13
 4406 00c5 0100     		.2byte	0x1
 4407 00c7 54       		.byte	0x54
 4408 00c8 20000000 		.4byte	.LVL13
 4409 00cc 30000000 		.4byte	.LVL16
 4410 00d0 0400     		.2byte	0x4
 4411 00d2 F3       		.byte	0xf3
 4412 00d3 01       		.uleb128 0x1
 4413 00d4 50       		.byte	0x50
 4414 00d5 9F       		.byte	0x9f
 4415 00d6 00000000 		.4byte	0
 4416 00da 00000000 		.4byte	0
 4417              	.LLST7:
 4418 00de 2C000000 		.4byte	.LVL14
 4419 00e2 2E000000 		.4byte	.LVL15
 4420 00e6 0100     		.2byte	0x1
 4421 00e8 53       		.byte	0x53
 4422 00e9 2E000000 		.4byte	.LVL15
 4423 00ed 30000000 		.4byte	.LVL16
 4424 00f1 0100     		.2byte	0x1
 4425 00f3 51       		.byte	0x51
 4426 00f4 00000000 		.4byte	0
 4427 00f8 00000000 		.4byte	0
 4428              	.LLST8:
 4429 00fc 00000000 		.4byte	.LVL18
 4430 0100 04000000 		.4byte	.LVL19
 4431 0104 0100     		.2byte	0x1
 4432 0106 50       		.byte	0x50
 4433 0107 04000000 		.4byte	.LVL19
 4434 010b 14000000 		.4byte	.LFE8
 4435 010f 0400     		.2byte	0x4
 4436 0111 F3       		.byte	0xf3
 4437 0112 01       		.uleb128 0x1
 4438 0113 50       		.byte	0x50
 4439 0114 9F       		.byte	0x9f
 4440 0115 00000000 		.4byte	0
 4441 0119 00000000 		.4byte	0
 4442              	.LLST9:
 4443 011d 00000000 		.4byte	.LVL20
 4444 0121 0C000000 		.4byte	.LVL21
 4445 0125 0100     		.2byte	0x1
 4446 0127 50       		.byte	0x50
 4447 0128 0C000000 		.4byte	.LVL21
 4448 012c 1C000000 		.4byte	.LVL24
 4449 0130 0100     		.2byte	0x1
 4450 0132 54       		.byte	0x54
 4451 0133 1C000000 		.4byte	.LVL24
 4452 0137 38000000 		.4byte	.LFE9
 4453 013b 0400     		.2byte	0x4
ARM GAS  C:\Users\Vit\AppData\Local\Temp\ccnJL0JJ.s 			page 111


 4454 013d F3       		.byte	0xf3
 4455 013e 01       		.uleb128 0x1
 4456 013f 50       		.byte	0x50
 4457 0140 9F       		.byte	0x9f
 4458 0141 00000000 		.4byte	0
 4459 0145 00000000 		.4byte	0
 4460              	.LLST10:
 4461 0149 00000000 		.4byte	.LVL20
 4462 014d 0F000000 		.4byte	.LVL22-1
 4463 0151 0100     		.2byte	0x1
 4464 0153 51       		.byte	0x51
 4465 0154 0F000000 		.4byte	.LVL22-1
 4466 0158 22000000 		.4byte	.LVL25
 4467 015c 0100     		.2byte	0x1
 4468 015e 55       		.byte	0x55
 4469 015f 22000000 		.4byte	.LVL25
 4470 0163 38000000 		.4byte	.LFE9
 4471 0167 0400     		.2byte	0x4
 4472 0169 F3       		.byte	0xf3
 4473 016a 01       		.uleb128 0x1
 4474 016b 51       		.byte	0x51
 4475 016c 9F       		.byte	0x9f
 4476 016d 00000000 		.4byte	0
 4477 0171 00000000 		.4byte	0
 4478              	.LLST11:
 4479 0175 2C000000 		.4byte	.LVL26
 4480 0179 2E000000 		.4byte	.LVL27
 4481 017d 0100     		.2byte	0x1
 4482 017f 53       		.byte	0x53
 4483 0180 2E000000 		.4byte	.LVL27
 4484 0184 30000000 		.4byte	.LVL28
 4485 0188 0100     		.2byte	0x1
 4486 018a 54       		.byte	0x54
 4487 018b 00000000 		.4byte	0
 4488 018f 00000000 		.4byte	0
 4489              	.LLST12:
 4490 0193 00000000 		.4byte	.LVL29
 4491 0197 0A000000 		.4byte	.LVL30
 4492 019b 0100     		.2byte	0x1
 4493 019d 50       		.byte	0x50
 4494 019e 0A000000 		.4byte	.LVL30
 4495 01a2 12000000 		.4byte	.LVL32
 4496 01a6 0100     		.2byte	0x1
 4497 01a8 54       		.byte	0x54
 4498 01a9 12000000 		.4byte	.LVL32
 4499 01ad 24000000 		.4byte	.LFE10
 4500 01b1 0400     		.2byte	0x4
 4501 01b3 F3       		.byte	0xf3
 4502 01b4 01       		.uleb128 0x1
 4503 01b5 50       		.byte	0x50
 4504 01b6 9F       		.byte	0x9f
 4505 01b7 00000000 		.4byte	0
 4506 01bb 00000000 		.4byte	0
 4507              	.LLST13:
 4508 01bf 00000000 		.4byte	.LVL33
 4509 01c3 07000000 		.4byte	.LVL34-1
 4510 01c7 0100     		.2byte	0x1
ARM GAS  C:\Users\Vit\AppData\Local\Temp\ccnJL0JJ.s 			page 112


 4511 01c9 50       		.byte	0x50
 4512 01ca 07000000 		.4byte	.LVL34-1
 4513 01ce 2E000000 		.4byte	.LVL41
 4514 01d2 0100     		.2byte	0x1
 4515 01d4 54       		.byte	0x54
 4516 01d5 2E000000 		.4byte	.LVL41
 4517 01d9 34000000 		.4byte	.LFE11
 4518 01dd 0400     		.2byte	0x4
 4519 01df F3       		.byte	0xf3
 4520 01e0 01       		.uleb128 0x1
 4521 01e1 50       		.byte	0x50
 4522 01e2 9F       		.byte	0x9f
 4523 01e3 00000000 		.4byte	0
 4524 01e7 00000000 		.4byte	0
 4525              	.LLST14:
 4526 01eb 14000000 		.4byte	.LVL35
 4527 01ef 1A000000 		.4byte	.LVL36
 4528 01f3 0200     		.2byte	0x2
 4529 01f5 30       		.byte	0x30
 4530 01f6 9F       		.byte	0x9f
 4531 01f7 00000000 		.4byte	0
 4532 01fb 00000000 		.4byte	0
 4533              	.LLST15:
 4534 01ff 1E000000 		.4byte	.LVL37
 4535 0203 24000000 		.4byte	.LVL38
 4536 0207 0200     		.2byte	0x2
 4537 0209 31       		.byte	0x31
 4538 020a 9F       		.byte	0x9f
 4539 020b 00000000 		.4byte	0
 4540 020f 00000000 		.4byte	0
 4541              	.LLST16:
 4542 0213 28000000 		.4byte	.LVL39
 4543 0217 2E000000 		.4byte	.LVL40
 4544 021b 0200     		.2byte	0x2
 4545 021d 32       		.byte	0x32
 4546 021e 9F       		.byte	0x9f
 4547 021f 00000000 		.4byte	0
 4548 0223 00000000 		.4byte	0
 4549              	.LLST17:
 4550 0227 18000000 		.4byte	.LVL43
 4551 022b 1E000000 		.4byte	.LVL44
 4552 022f 0200     		.2byte	0x2
 4553 0231 30       		.byte	0x30
 4554 0232 9F       		.byte	0x9f
 4555 0233 00000000 		.4byte	0
 4556 0237 00000000 		.4byte	0
 4557              	.LLST18:
 4558 023b 22000000 		.4byte	.LVL45
 4559 023f 28000000 		.4byte	.LVL46
 4560 0243 0200     		.2byte	0x2
 4561 0245 31       		.byte	0x31
 4562 0246 9F       		.byte	0x9f
 4563 0247 00000000 		.4byte	0
 4564 024b 00000000 		.4byte	0
 4565              	.LLST19:
 4566 024f 2C000000 		.4byte	.LVL47
 4567 0253 32000000 		.4byte	.LVL48
ARM GAS  C:\Users\Vit\AppData\Local\Temp\ccnJL0JJ.s 			page 113


 4568 0257 0200     		.2byte	0x2
 4569 0259 32       		.byte	0x32
 4570 025a 9F       		.byte	0x9f
 4571 025b 00000000 		.4byte	0
 4572 025f 00000000 		.4byte	0
 4573              	.LLST20:
 4574 0263 00000000 		.4byte	.LVL49
 4575 0267 22000000 		.4byte	.LVL56
 4576 026b 0100     		.2byte	0x1
 4577 026d 50       		.byte	0x50
 4578 026e 22000000 		.4byte	.LVL56
 4579 0272 34000000 		.4byte	.LFE13
 4580 0276 0400     		.2byte	0x4
 4581 0278 F3       		.byte	0xf3
 4582 0279 01       		.uleb128 0x1
 4583 027a 50       		.byte	0x50
 4584 027b 9F       		.byte	0x9f
 4585 027c 00000000 		.4byte	0
 4586 0280 00000000 		.4byte	0
 4587              	.LLST21:
 4588 0284 1E000000 		.4byte	.LVL54
 4589 0288 20000000 		.4byte	.LVL55
 4590 028c 0100     		.2byte	0x1
 4591 028e 51       		.byte	0x51
 4592 028f 20000000 		.4byte	.LVL55
 4593 0293 22000000 		.4byte	.LVL56
 4594 0297 0100     		.2byte	0x1
 4595 0299 53       		.byte	0x53
 4596 029a 22000000 		.4byte	.LVL56
 4597 029e 24000000 		.4byte	.LVL57
 4598 02a2 0100     		.2byte	0x1
 4599 02a4 50       		.byte	0x50
 4600 02a5 00000000 		.4byte	0
 4601 02a9 00000000 		.4byte	0
 4602              	.LLST22:
 4603 02ad 0A000000 		.4byte	.LVL52
 4604 02b1 0E000000 		.4byte	.LVL53
 4605 02b5 1100     		.2byte	0x11
 4606 02b7 73       		.byte	0x73
 4607 02b8 00       		.sleb128 0
 4608 02b9 39       		.byte	0x39
 4609 02ba 25       		.byte	0x25
 4610 02bb 71       		.byte	0x71
 4611 02bc 00       		.sleb128 0
 4612 02bd 31       		.byte	0x31
 4613 02be 25       		.byte	0x25
 4614 02bf 21       		.byte	0x21
 4615 02c0 72       		.byte	0x72
 4616 02c1 00       		.sleb128 0
 4617 02c2 41       		.byte	0x41
 4618 02c3 25       		.byte	0x25
 4619 02c4 21       		.byte	0x21
 4620 02c5 31       		.byte	0x31
 4621 02c6 1A       		.byte	0x1a
 4622 02c7 9F       		.byte	0x9f
 4623 02c8 00000000 		.4byte	0
 4624 02cc 00000000 		.4byte	0
ARM GAS  C:\Users\Vit\AppData\Local\Temp\ccnJL0JJ.s 			page 114


 4625              	.LLST23:
 4626 02d0 00000000 		.4byte	.LVL58
 4627 02d4 0C000000 		.4byte	.LVL59
 4628 02d8 0100     		.2byte	0x1
 4629 02da 50       		.byte	0x50
 4630 02db 0C000000 		.4byte	.LVL59
 4631 02df 1C000000 		.4byte	.LVL62
 4632 02e3 0100     		.2byte	0x1
 4633 02e5 55       		.byte	0x55
 4634 02e6 1C000000 		.4byte	.LVL62
 4635 02ea 3C000000 		.4byte	.LFE15
 4636 02ee 0400     		.2byte	0x4
 4637 02f0 F3       		.byte	0xf3
 4638 02f1 01       		.uleb128 0x1
 4639 02f2 50       		.byte	0x50
 4640 02f3 9F       		.byte	0x9f
 4641 02f4 00000000 		.4byte	0
 4642 02f8 00000000 		.4byte	0
 4643              	.LLST24:
 4644 02fc 00000000 		.4byte	.LVL58
 4645 0300 0F000000 		.4byte	.LVL60-1
 4646 0304 0100     		.2byte	0x1
 4647 0306 51       		.byte	0x51
 4648 0307 0F000000 		.4byte	.LVL60-1
 4649 030b 30000000 		.4byte	.LVL67
 4650 030f 0100     		.2byte	0x1
 4651 0311 54       		.byte	0x54
 4652 0312 30000000 		.4byte	.LVL67
 4653 0316 3C000000 		.4byte	.LFE15
 4654 031a 0400     		.2byte	0x4
 4655 031c F3       		.byte	0xf3
 4656 031d 01       		.uleb128 0x1
 4657 031e 51       		.byte	0x51
 4658 031f 9F       		.byte	0x9f
 4659 0320 00000000 		.4byte	0
 4660 0324 00000000 		.4byte	0
 4661              	.LLST25:
 4662 0328 24000000 		.4byte	.LVL63
 4663 032c 26000000 		.4byte	.LVL64
 4664 0330 0B00     		.2byte	0xb
 4665 0332 0A       		.byte	0xa
 4666 0333 FFFF     		.2byte	0xffff
 4667 0335 75       		.byte	0x75
 4668 0336 00       		.sleb128 0
 4669 0337 24       		.byte	0x24
 4670 0338 20       		.byte	0x20
 4671 0339 73       		.byte	0x73
 4672 033a 00       		.sleb128 0
 4673 033b 1A       		.byte	0x1a
 4674 033c 9F       		.byte	0x9f
 4675 033d 26000000 		.4byte	.LVL64
 4676 0341 28000000 		.4byte	.LVL65
 4677 0345 0100     		.2byte	0x1
 4678 0347 53       		.byte	0x53
 4679 0348 00000000 		.4byte	0
 4680 034c 00000000 		.4byte	0
 4681              	.LLST26:
ARM GAS  C:\Users\Vit\AppData\Local\Temp\ccnJL0JJ.s 			page 115


 4682 0350 00000000 		.4byte	.LVL68
 4683 0354 14000000 		.4byte	.LVL71
 4684 0358 0100     		.2byte	0x1
 4685 035a 50       		.byte	0x50
 4686 035b 14000000 		.4byte	.LVL71
 4687 035f 28000000 		.4byte	.LFE16
 4688 0363 0400     		.2byte	0x4
 4689 0365 F3       		.byte	0xf3
 4690 0366 01       		.uleb128 0x1
 4691 0367 50       		.byte	0x50
 4692 0368 9F       		.byte	0x9f
 4693 0369 00000000 		.4byte	0
 4694 036d 00000000 		.4byte	0
 4695              	.LLST27:
 4696 0371 0E000000 		.4byte	.LVL69
 4697 0375 10000000 		.4byte	.LVL70
 4698 0379 0100     		.2byte	0x1
 4699 037b 52       		.byte	0x52
 4700 037c 10000000 		.4byte	.LVL70
 4701 0380 18000000 		.4byte	.LVL72
 4702 0384 0100     		.2byte	0x1
 4703 0386 53       		.byte	0x53
 4704 0387 18000000 		.4byte	.LVL72
 4705 038b 1A000000 		.4byte	.LVL73
 4706 038f 0100     		.2byte	0x1
 4707 0391 50       		.byte	0x50
 4708 0392 00000000 		.4byte	0
 4709 0396 00000000 		.4byte	0
 4710              	.LLST28:
 4711 039a 00000000 		.4byte	.LVL74
 4712 039e 0A000000 		.4byte	.LVL75
 4713 03a2 0100     		.2byte	0x1
 4714 03a4 50       		.byte	0x50
 4715 03a5 0A000000 		.4byte	.LVL75
 4716 03a9 12000000 		.4byte	.LVL77
 4717 03ad 0100     		.2byte	0x1
 4718 03af 54       		.byte	0x54
 4719 03b0 12000000 		.4byte	.LVL77
 4720 03b4 20000000 		.4byte	.LFE18
 4721 03b8 0400     		.2byte	0x4
 4722 03ba F3       		.byte	0xf3
 4723 03bb 01       		.uleb128 0x1
 4724 03bc 50       		.byte	0x50
 4725 03bd 9F       		.byte	0x9f
 4726 03be 00000000 		.4byte	0
 4727 03c2 00000000 		.4byte	0
 4728              	.LLST29:
 4729 03c6 00000000 		.4byte	.LVL78
 4730 03ca 12000000 		.4byte	.LVL79
 4731 03ce 0100     		.2byte	0x1
 4732 03d0 50       		.byte	0x50
 4733 03d1 12000000 		.4byte	.LVL79
 4734 03d5 14000000 		.4byte	.LVL80
 4735 03d9 0400     		.2byte	0x4
 4736 03db F3       		.byte	0xf3
 4737 03dc 01       		.uleb128 0x1
 4738 03dd 50       		.byte	0x50
ARM GAS  C:\Users\Vit\AppData\Local\Temp\ccnJL0JJ.s 			page 116


 4739 03de 9F       		.byte	0x9f
 4740 03df 14000000 		.4byte	.LVL80
 4741 03e3 18000000 		.4byte	.LVL81
 4742 03e7 0100     		.2byte	0x1
 4743 03e9 50       		.byte	0x50
 4744 03ea 18000000 		.4byte	.LVL81
 4745 03ee 1C000000 		.4byte	.LVL83
 4746 03f2 0400     		.2byte	0x4
 4747 03f4 F3       		.byte	0xf3
 4748 03f5 01       		.uleb128 0x1
 4749 03f6 50       		.byte	0x50
 4750 03f7 9F       		.byte	0x9f
 4751 03f8 1C000000 		.4byte	.LVL83
 4752 03fc 20000000 		.4byte	.LVL84
 4753 0400 0100     		.2byte	0x1
 4754 0402 50       		.byte	0x50
 4755 0403 20000000 		.4byte	.LVL84
 4756 0407 24000000 		.4byte	.LVL86
 4757 040b 0400     		.2byte	0x4
 4758 040d F3       		.byte	0xf3
 4759 040e 01       		.uleb128 0x1
 4760 040f 50       		.byte	0x50
 4761 0410 9F       		.byte	0x9f
 4762 0411 24000000 		.4byte	.LVL86
 4763 0415 26000000 		.4byte	.LVL87
 4764 0419 0100     		.2byte	0x1
 4765 041b 50       		.byte	0x50
 4766 041c 26000000 		.4byte	.LVL87
 4767 0420 38000000 		.4byte	.LFE19
 4768 0424 0400     		.2byte	0x4
 4769 0426 F3       		.byte	0xf3
 4770 0427 01       		.uleb128 0x1
 4771 0428 50       		.byte	0x50
 4772 0429 9F       		.byte	0x9f
 4773 042a 00000000 		.4byte	0
 4774 042e 00000000 		.4byte	0
 4775              	.LLST30:
 4776 0432 00000000 		.4byte	.LVL78
 4777 0436 12000000 		.4byte	.LVL79
 4778 043a 0200     		.2byte	0x2
 4779 043c 30       		.byte	0x30
 4780 043d 9F       		.byte	0x9f
 4781 043e 12000000 		.4byte	.LVL79
 4782 0442 14000000 		.4byte	.LVL80
 4783 0446 0100     		.2byte	0x1
 4784 0448 50       		.byte	0x50
 4785 0449 14000000 		.4byte	.LVL80
 4786 044d 1A000000 		.4byte	.LVL82
 4787 0451 0200     		.2byte	0x2
 4788 0453 30       		.byte	0x30
 4789 0454 9F       		.byte	0x9f
 4790 0455 1A000000 		.4byte	.LVL82
 4791 0459 1C000000 		.4byte	.LVL83
 4792 045d 0100     		.2byte	0x1
 4793 045f 50       		.byte	0x50
 4794 0460 1C000000 		.4byte	.LVL83
 4795 0464 22000000 		.4byte	.LVL85
ARM GAS  C:\Users\Vit\AppData\Local\Temp\ccnJL0JJ.s 			page 117


 4796 0468 0200     		.2byte	0x2
 4797 046a 30       		.byte	0x30
 4798 046b 9F       		.byte	0x9f
 4799 046c 22000000 		.4byte	.LVL85
 4800 0470 24000000 		.4byte	.LVL86
 4801 0474 0100     		.2byte	0x1
 4802 0476 50       		.byte	0x50
 4803 0477 24000000 		.4byte	.LVL86
 4804 047b 2C000000 		.4byte	.LVL89
 4805 047f 0200     		.2byte	0x2
 4806 0481 30       		.byte	0x30
 4807 0482 9F       		.byte	0x9f
 4808 0483 2C000000 		.4byte	.LVL89
 4809 0487 38000000 		.4byte	.LFE19
 4810 048b 0100     		.2byte	0x1
 4811 048d 50       		.byte	0x50
 4812 048e 00000000 		.4byte	0
 4813 0492 00000000 		.4byte	0
 4814              	.LLST31:
 4815 0496 20000000 		.4byte	.LVL91
 4816 049a 9C000000 		.4byte	.LVL103
 4817 049e 0200     		.2byte	0x2
 4818 04a0 91       		.byte	0x91
 4819 04a1 64       		.sleb128 -28
 4820 04a2 00000000 		.4byte	0
 4821 04a6 00000000 		.4byte	0
 4822              	.LLST32:
 4823 04aa 6A000000 		.4byte	.LVL100
 4824 04ae 9C000000 		.4byte	.LVL103
 4825 04b2 0100     		.2byte	0x1
 4826 04b4 56       		.byte	0x56
 4827 04b5 00000000 		.4byte	0
 4828 04b9 00000000 		.4byte	0
 4829              	.LLST33:
 4830 04bd 20000000 		.4byte	.LVL91
 4831 04c1 9C000000 		.4byte	.LVL103
 4832 04c5 0200     		.2byte	0x2
 4833 04c7 30       		.byte	0x30
 4834 04c8 9F       		.byte	0x9f
 4835 04c9 00000000 		.4byte	0
 4836 04cd 00000000 		.4byte	0
 4837              	.LLST34:
 4838 04d1 2E000000 		.4byte	.LVL92
 4839 04d5 44000000 		.4byte	.LVL94
 4840 04d9 0200     		.2byte	0x2
 4841 04db 31       		.byte	0x31
 4842 04dc 9F       		.byte	0x9f
 4843 04dd 48000000 		.4byte	.LVL95
 4844 04e1 62000000 		.4byte	.LVL98
 4845 04e5 0200     		.2byte	0x2
 4846 04e7 31       		.byte	0x31
 4847 04e8 9F       		.byte	0x9f
 4848 04e9 00000000 		.4byte	0
 4849 04ed 00000000 		.4byte	0
 4850              	.LLST35:
 4851 04f1 3A000000 		.4byte	.LVL93
 4852 04f5 44000000 		.4byte	.LVL94
ARM GAS  C:\Users\Vit\AppData\Local\Temp\ccnJL0JJ.s 			page 118


 4853 04f9 0200     		.2byte	0x2
 4854 04fb 32       		.byte	0x32
 4855 04fc 9F       		.byte	0x9f
 4856 04fd 48000000 		.4byte	.LVL95
 4857 0501 62000000 		.4byte	.LVL98
 4858 0505 0200     		.2byte	0x2
 4859 0507 32       		.byte	0x32
 4860 0508 9F       		.byte	0x9f
 4861 0509 00000000 		.4byte	0
 4862 050d 00000000 		.4byte	0
 4863              	.LLST36:
 4864 0511 4E000000 		.4byte	.LVL96
 4865 0515 62000000 		.4byte	.LVL98
 4866 0519 0200     		.2byte	0x2
 4867 051b 30       		.byte	0x30
 4868 051c 9F       		.byte	0x9f
 4869 051d 00000000 		.4byte	0
 4870 0521 00000000 		.4byte	0
 4871              	.LLST37:
 4872 0525 00000000 		.4byte	.LVL104
 4873 0529 07000000 		.4byte	.LVL105-1
 4874 052d 0100     		.2byte	0x1
 4875 052f 50       		.byte	0x50
 4876 0530 07000000 		.4byte	.LVL105-1
 4877 0534 16000000 		.4byte	.LVL107
 4878 0538 0100     		.2byte	0x1
 4879 053a 55       		.byte	0x55
 4880 053b 16000000 		.4byte	.LVL107
 4881 053f 1C000000 		.4byte	.LVL108
 4882 0543 0900     		.2byte	0x9
 4883 0545 75       		.byte	0x75
 4884 0546 00       		.sleb128 0
 4885 0547 0C       		.byte	0xc
 4886 0548 04040400 		.4byte	0x40404
 4887 054c 1A       		.byte	0x1a
 4888 054d 9F       		.byte	0x9f
 4889 054e 1C000000 		.4byte	.LVL108
 4890 0552 2E000000 		.4byte	.LVL109
 4891 0556 0100     		.2byte	0x1
 4892 0558 55       		.byte	0x55
 4893 0559 3A000000 		.4byte	.LVL113
 4894 055d 54000000 		.4byte	.LFE21
 4895 0561 0100     		.2byte	0x1
 4896 0563 55       		.byte	0x55
 4897 0564 00000000 		.4byte	0
 4898 0568 00000000 		.4byte	0
 4899              	.LLST38:
 4900 056c 0C000000 		.4byte	.LVL106
 4901 0570 38000000 		.4byte	.LVL112
 4902 0574 0100     		.2byte	0x1
 4903 0576 54       		.byte	0x54
 4904 0577 3A000000 		.4byte	.LVL113
 4905 057b 54000000 		.4byte	.LFE21
 4906 057f 0100     		.2byte	0x1
 4907 0581 54       		.byte	0x54
 4908 0582 00000000 		.4byte	0
 4909 0586 00000000 		.4byte	0
ARM GAS  C:\Users\Vit\AppData\Local\Temp\ccnJL0JJ.s 			page 119


 4910              	.LLST39:
 4911 058a 16000000 		.4byte	.LVL107
 4912 058e 2E000000 		.4byte	.LVL109
 4913 0592 0100     		.2byte	0x1
 4914 0594 53       		.byte	0x53
 4915 0595 2E000000 		.4byte	.LVL109
 4916 0599 32000000 		.4byte	.LVL110
 4917 059d 0200     		.2byte	0x2
 4918 059f 31       		.byte	0x31
 4919 05a0 9F       		.byte	0x9f
 4920 05a1 3A000000 		.4byte	.LVL113
 4921 05a5 54000000 		.4byte	.LFE21
 4922 05a9 0200     		.2byte	0x2
 4923 05ab 31       		.byte	0x31
 4924 05ac 9F       		.byte	0x9f
 4925 05ad 00000000 		.4byte	0
 4926 05b1 00000000 		.4byte	0
 4927              	.LLST40:
 4928 05b5 00000000 		.4byte	.LVL115
 4929 05b9 08000000 		.4byte	.LVL116
 4930 05bd 0100     		.2byte	0x1
 4931 05bf 50       		.byte	0x50
 4932 05c0 08000000 		.4byte	.LVL116
 4933 05c4 1C000000 		.4byte	.LFE22
 4934 05c8 0400     		.2byte	0x4
 4935 05ca F3       		.byte	0xf3
 4936 05cb 01       		.uleb128 0x1
 4937 05cc 50       		.byte	0x50
 4938 05cd 9F       		.byte	0x9f
 4939 05ce 00000000 		.4byte	0
 4940 05d2 00000000 		.4byte	0
 4941              	.LLST41:
 4942 05d6 00000000 		.4byte	.LVL117
 4943 05da 0A000000 		.4byte	.LVL118
 4944 05de 0100     		.2byte	0x1
 4945 05e0 50       		.byte	0x50
 4946 05e1 0A000000 		.4byte	.LVL118
 4947 05e5 12000000 		.4byte	.LVL120
 4948 05e9 0400     		.2byte	0x4
 4949 05eb F3       		.byte	0xf3
 4950 05ec 01       		.uleb128 0x1
 4951 05ed 50       		.byte	0x50
 4952 05ee 9F       		.byte	0x9f
 4953 05ef 12000000 		.4byte	.LVL120
 4954 05f3 14000000 		.4byte	.LVL121
 4955 05f7 0100     		.2byte	0x1
 4956 05f9 50       		.byte	0x50
 4957 05fa 14000000 		.4byte	.LVL121
 4958 05fe 20000000 		.4byte	.LFE23
 4959 0602 0400     		.2byte	0x4
 4960 0604 F3       		.byte	0xf3
 4961 0605 01       		.uleb128 0x1
 4962 0606 50       		.byte	0x50
 4963 0607 9F       		.byte	0x9f
 4964 0608 00000000 		.4byte	0
 4965 060c 00000000 		.4byte	0
 4966              	.LLST42:
ARM GAS  C:\Users\Vit\AppData\Local\Temp\ccnJL0JJ.s 			page 120


 4967 0610 00000000 		.4byte	.LVL117
 4968 0614 17000000 		.4byte	.LVL122-1
 4969 0618 0100     		.2byte	0x1
 4970 061a 51       		.byte	0x51
 4971 061b 17000000 		.4byte	.LVL122-1
 4972 061f 20000000 		.4byte	.LFE23
 4973 0623 0400     		.2byte	0x4
 4974 0625 F3       		.byte	0xf3
 4975 0626 01       		.uleb128 0x1
 4976 0627 51       		.byte	0x51
 4977 0628 9F       		.byte	0x9f
 4978 0629 00000000 		.4byte	0
 4979 062d 00000000 		.4byte	0
 4980              	.LLST43:
 4981 0631 00000000 		.4byte	.LVL117
 4982 0635 0E000000 		.4byte	.LVL119
 4983 0639 0200     		.2byte	0x2
 4984 063b 30       		.byte	0x30
 4985 063c 9F       		.byte	0x9f
 4986 063d 0E000000 		.4byte	.LVL119
 4987 0641 12000000 		.4byte	.LVL120
 4988 0645 0100     		.2byte	0x1
 4989 0647 50       		.byte	0x50
 4990 0648 12000000 		.4byte	.LVL120
 4991 064c 1A000000 		.4byte	.LVL123
 4992 0650 0200     		.2byte	0x2
 4993 0652 30       		.byte	0x30
 4994 0653 9F       		.byte	0x9f
 4995 0654 1A000000 		.4byte	.LVL123
 4996 0658 20000000 		.4byte	.LFE23
 4997 065c 0100     		.2byte	0x1
 4998 065e 50       		.byte	0x50
 4999 065f 00000000 		.4byte	0
 5000 0663 00000000 		.4byte	0
 5001              	.LLST44:
 5002 0667 00000000 		.4byte	.LVL124
 5003 066b 0A000000 		.4byte	.LVL125
 5004 066f 0100     		.2byte	0x1
 5005 0671 50       		.byte	0x50
 5006 0672 0A000000 		.4byte	.LVL125
 5007 0676 10000000 		.4byte	.LVL127
 5008 067a 0400     		.2byte	0x4
 5009 067c F3       		.byte	0xf3
 5010 067d 01       		.uleb128 0x1
 5011 067e 50       		.byte	0x50
 5012 067f 9F       		.byte	0x9f
 5013 0680 10000000 		.4byte	.LVL127
 5014 0684 12000000 		.4byte	.LVL128
 5015 0688 0100     		.2byte	0x1
 5016 068a 50       		.byte	0x50
 5017 068b 12000000 		.4byte	.LVL128
 5018 068f 20000000 		.4byte	.LFE24
 5019 0693 0400     		.2byte	0x4
 5020 0695 F3       		.byte	0xf3
 5021 0696 01       		.uleb128 0x1
 5022 0697 50       		.byte	0x50
 5023 0698 9F       		.byte	0x9f
ARM GAS  C:\Users\Vit\AppData\Local\Temp\ccnJL0JJ.s 			page 121


 5024 0699 00000000 		.4byte	0
 5025 069d 00000000 		.4byte	0
 5026              	.LLST45:
 5027 06a1 00000000 		.4byte	.LVL124
 5028 06a5 0E000000 		.4byte	.LVL126
 5029 06a9 0200     		.2byte	0x2
 5030 06ab 30       		.byte	0x30
 5031 06ac 9F       		.byte	0x9f
 5032 06ad 0E000000 		.4byte	.LVL126
 5033 06b1 10000000 		.4byte	.LVL127
 5034 06b5 0100     		.2byte	0x1
 5035 06b7 50       		.byte	0x50
 5036 06b8 10000000 		.4byte	.LVL127
 5037 06bc 18000000 		.4byte	.LVL130
 5038 06c0 0200     		.2byte	0x2
 5039 06c2 30       		.byte	0x30
 5040 06c3 9F       		.byte	0x9f
 5041 06c4 18000000 		.4byte	.LVL130
 5042 06c8 20000000 		.4byte	.LFE24
 5043 06cc 0100     		.2byte	0x1
 5044 06ce 50       		.byte	0x50
 5045 06cf 00000000 		.4byte	0
 5046 06d3 00000000 		.4byte	0
 5047              	.LLST46:
 5048 06d7 00000000 		.4byte	.LVL131
 5049 06db 0C000000 		.4byte	.LVL132
 5050 06df 0100     		.2byte	0x1
 5051 06e1 50       		.byte	0x50
 5052 06e2 0C000000 		.4byte	.LVL132
 5053 06e6 1E000000 		.4byte	.LVL133
 5054 06ea 0400     		.2byte	0x4
 5055 06ec F3       		.byte	0xf3
 5056 06ed 01       		.uleb128 0x1
 5057 06ee 50       		.byte	0x50
 5058 06ef 9F       		.byte	0x9f
 5059 06f0 1E000000 		.4byte	.LVL133
 5060 06f4 20000000 		.4byte	.LVL134
 5061 06f8 0100     		.2byte	0x1
 5062 06fa 50       		.byte	0x50
 5063 06fb 20000000 		.4byte	.LVL134
 5064 06ff 34000000 		.4byte	.LFE25
 5065 0703 0400     		.2byte	0x4
 5066 0705 F3       		.byte	0xf3
 5067 0706 01       		.uleb128 0x1
 5068 0707 50       		.byte	0x50
 5069 0708 9F       		.byte	0x9f
 5070 0709 00000000 		.4byte	0
 5071 070d 00000000 		.4byte	0
 5072              	.LLST47:
 5073 0711 00000000 		.4byte	.LVL136
 5074 0715 0C000000 		.4byte	.LVL137
 5075 0719 0100     		.2byte	0x1
 5076 071b 50       		.byte	0x50
 5077 071c 0C000000 		.4byte	.LVL137
 5078 0720 16000000 		.4byte	.LVL138
 5079 0724 0400     		.2byte	0x4
 5080 0726 F3       		.byte	0xf3
ARM GAS  C:\Users\Vit\AppData\Local\Temp\ccnJL0JJ.s 			page 122


 5081 0727 01       		.uleb128 0x1
 5082 0728 50       		.byte	0x50
 5083 0729 9F       		.byte	0x9f
 5084 072a 16000000 		.4byte	.LVL138
 5085 072e 18000000 		.4byte	.LVL139
 5086 0732 0100     		.2byte	0x1
 5087 0734 50       		.byte	0x50
 5088 0735 18000000 		.4byte	.LVL139
 5089 0739 28000000 		.4byte	.LFE26
 5090 073d 0400     		.2byte	0x4
 5091 073f F3       		.byte	0xf3
 5092 0740 01       		.uleb128 0x1
 5093 0741 50       		.byte	0x50
 5094 0742 9F       		.byte	0x9f
 5095 0743 00000000 		.4byte	0
 5096 0747 00000000 		.4byte	0
 5097              	.LLST48:
 5098 074b 00000000 		.4byte	.LVL147
 5099 074f 0F000000 		.4byte	.LVL148-1
 5100 0753 0100     		.2byte	0x1
 5101 0755 50       		.byte	0x50
 5102 0756 0F000000 		.4byte	.LVL148-1
 5103 075a 5A000000 		.4byte	.LVL157
 5104 075e 0100     		.2byte	0x1
 5105 0760 54       		.byte	0x54
 5106 0761 5A000000 		.4byte	.LVL157
 5107 0765 6C000000 		.4byte	.LFE29
 5108 0769 0400     		.2byte	0x4
 5109 076b F3       		.byte	0xf3
 5110 076c 01       		.uleb128 0x1
 5111 076d 50       		.byte	0x50
 5112 076e 9F       		.byte	0x9f
 5113 076f 00000000 		.4byte	0
 5114 0773 00000000 		.4byte	0
 5115              	.LLST49:
 5116 0777 00000000 		.4byte	.LVL147
 5117 077b 0F000000 		.4byte	.LVL148-1
 5118 077f 0100     		.2byte	0x1
 5119 0781 51       		.byte	0x51
 5120 0782 0F000000 		.4byte	.LVL148-1
 5121 0786 6C000000 		.4byte	.LFE29
 5122 078a 0400     		.2byte	0x4
 5123 078c F3       		.byte	0xf3
 5124 078d 01       		.uleb128 0x1
 5125 078e 51       		.byte	0x51
 5126 078f 9F       		.byte	0x9f
 5127 0790 00000000 		.4byte	0
 5128 0794 00000000 		.4byte	0
 5129              	.LLST50:
 5130 0798 00000000 		.4byte	.LVL147
 5131 079c 0F000000 		.4byte	.LVL148-1
 5132 07a0 0100     		.2byte	0x1
 5133 07a2 52       		.byte	0x52
 5134 07a3 0F000000 		.4byte	.LVL148-1
 5135 07a7 5A000000 		.4byte	.LVL158
 5136 07ab 0100     		.2byte	0x1
 5137 07ad 55       		.byte	0x55
ARM GAS  C:\Users\Vit\AppData\Local\Temp\ccnJL0JJ.s 			page 123


 5138 07ae 5A000000 		.4byte	.LVL158
 5139 07b2 6C000000 		.4byte	.LFE29
 5140 07b6 0400     		.2byte	0x4
 5141 07b8 F3       		.byte	0xf3
 5142 07b9 01       		.uleb128 0x1
 5143 07ba 52       		.byte	0x52
 5144 07bb 9F       		.byte	0x9f
 5145 07bc 00000000 		.4byte	0
 5146 07c0 00000000 		.4byte	0
 5147              	.LLST51:
 5148 07c4 24000000 		.4byte	.LVL149
 5149 07c8 2A000000 		.4byte	.LVL150
 5150 07cc 0100     		.2byte	0x1
 5151 07ce 50       		.byte	0x50
 5152 07cf 2E000000 		.4byte	.LVL151
 5153 07d3 34000000 		.4byte	.LVL152
 5154 07d7 0100     		.2byte	0x1
 5155 07d9 50       		.byte	0x50
 5156 07da 00000000 		.4byte	0
 5157 07de 00000000 		.4byte	0
 5158              	.LLST52:
 5159 07e2 34000000 		.4byte	.LVL152
 5160 07e6 3E000000 		.4byte	.LVL153
 5161 07ea 0100     		.2byte	0x1
 5162 07ec 56       		.byte	0x56
 5163 07ed 00000000 		.4byte	0
 5164 07f1 00000000 		.4byte	0
 5165              	.LLST53:
 5166 07f5 34000000 		.4byte	.LVL152
 5167 07f9 54000000 		.4byte	.LVL155
 5168 07fd 0100     		.2byte	0x1
 5169 07ff 55       		.byte	0x55
 5170 0800 00000000 		.4byte	0
 5171 0804 00000000 		.4byte	0
 5172              	.LLST54:
 5173 0808 34000000 		.4byte	.LVL152
 5174 080c 54000000 		.4byte	.LVL155
 5175 0810 0100     		.2byte	0x1
 5176 0812 54       		.byte	0x54
 5177 0813 00000000 		.4byte	0
 5178 0817 00000000 		.4byte	0
 5179              	.LLST55:
 5180 081b 3E000000 		.4byte	.LVL153
 5181 081f 54000000 		.4byte	.LVL155
 5182 0823 0100     		.2byte	0x1
 5183 0825 56       		.byte	0x56
 5184 0826 00000000 		.4byte	0
 5185 082a 00000000 		.4byte	0
 5186              	.LLST56:
 5187 082e 00000000 		.4byte	.LVL159
 5188 0832 0F000000 		.4byte	.LVL160-1
 5189 0836 0100     		.2byte	0x1
 5190 0838 50       		.byte	0x50
 5191 0839 0F000000 		.4byte	.LVL160-1
 5192 083d 34000000 		.4byte	.LVL166
 5193 0841 0100     		.2byte	0x1
 5194 0843 55       		.byte	0x55
ARM GAS  C:\Users\Vit\AppData\Local\Temp\ccnJL0JJ.s 			page 124


 5195 0844 34000000 		.4byte	.LVL166
 5196 0848 3C000000 		.4byte	.LFE28
 5197 084c 0400     		.2byte	0x4
 5198 084e F3       		.byte	0xf3
 5199 084f 01       		.uleb128 0x1
 5200 0850 50       		.byte	0x50
 5201 0851 9F       		.byte	0x9f
 5202 0852 00000000 		.4byte	0
 5203 0856 00000000 		.4byte	0
 5204              	.LLST57:
 5205 085a 00000000 		.4byte	.LVL159
 5206 085e 0F000000 		.4byte	.LVL160-1
 5207 0862 0100     		.2byte	0x1
 5208 0864 51       		.byte	0x51
 5209 0865 0F000000 		.4byte	.LVL160-1
 5210 0869 3C000000 		.4byte	.LFE28
 5211 086d 0400     		.2byte	0x4
 5212 086f F3       		.byte	0xf3
 5213 0870 01       		.uleb128 0x1
 5214 0871 51       		.byte	0x51
 5215 0872 9F       		.byte	0x9f
 5216 0873 00000000 		.4byte	0
 5217 0877 00000000 		.4byte	0
 5218              	.LLST58:
 5219 087b 00000000 		.4byte	.LVL159
 5220 087f 0F000000 		.4byte	.LVL160-1
 5221 0883 0100     		.2byte	0x1
 5222 0885 52       		.byte	0x52
 5223 0886 0F000000 		.4byte	.LVL160-1
 5224 088a 34000000 		.4byte	.LVL165
 5225 088e 0100     		.2byte	0x1
 5226 0890 54       		.byte	0x54
 5227 0891 34000000 		.4byte	.LVL165
 5228 0895 3C000000 		.4byte	.LFE28
 5229 0899 0400     		.2byte	0x4
 5230 089b F3       		.byte	0xf3
 5231 089c 01       		.uleb128 0x1
 5232 089d 52       		.byte	0x52
 5233 089e 9F       		.byte	0x9f
 5234 089f 00000000 		.4byte	0
 5235 08a3 00000000 		.4byte	0
 5236              	.LLST59:
 5237 08a7 20000000 		.4byte	.LVL161
 5238 08ab 26000000 		.4byte	.LVL162
 5239 08af 0100     		.2byte	0x1
 5240 08b1 50       		.byte	0x50
 5241 08b2 00000000 		.4byte	0
 5242 08b6 00000000 		.4byte	0
 5243              	.LLST60:
 5244 08ba 20000000 		.4byte	.LVL161
 5245 08be 26000000 		.4byte	.LVL162
 5246 08c2 0A00     		.2byte	0xa
 5247 08c4 70       		.byte	0x70
 5248 08c5 00       		.sleb128 0
 5249 08c6 74       		.byte	0x74
 5250 08c7 00       		.sleb128 0
 5251 08c8 22       		.byte	0x22
ARM GAS  C:\Users\Vit\AppData\Local\Temp\ccnJL0JJ.s 			page 125


 5252 08c9 0A       		.byte	0xa
 5253 08ca FFFF     		.2byte	0xffff
 5254 08cc 1A       		.byte	0x1a
 5255 08cd 9F       		.byte	0x9f
 5256 08ce 00000000 		.4byte	0
 5257 08d2 00000000 		.4byte	0
 5258              	.LLST61:
 5259 08d6 00000000 		.4byte	.LVL167
 5260 08da 09000000 		.4byte	.LVL168-1
 5261 08de 0100     		.2byte	0x1
 5262 08e0 50       		.byte	0x50
 5263 08e1 09000000 		.4byte	.LVL168-1
 5264 08e5 26000000 		.4byte	.LVL171
 5265 08e9 0100     		.2byte	0x1
 5266 08eb 54       		.byte	0x54
 5267 08ec 26000000 		.4byte	.LVL171
 5268 08f0 2D000000 		.4byte	.LVL172-1
 5269 08f4 0100     		.2byte	0x1
 5270 08f6 50       		.byte	0x50
 5271 08f7 2D000000 		.4byte	.LVL172-1
 5272 08fb 50000000 		.4byte	.LVL176
 5273 08ff 0100     		.2byte	0x1
 5274 0901 54       		.byte	0x54
 5275 0902 50000000 		.4byte	.LVL176
 5276 0906 52000000 		.4byte	.LFE30
 5277 090a 0400     		.2byte	0x4
 5278 090c F3       		.byte	0xf3
 5279 090d 01       		.uleb128 0x1
 5280 090e 50       		.byte	0x50
 5281 090f 9F       		.byte	0x9f
 5282 0910 00000000 		.4byte	0
 5283 0914 00000000 		.4byte	0
 5284              		.section	.debug_aranges,"",%progbits
 5285 0000 FC000000 		.4byte	0xfc
 5286 0004 0200     		.2byte	0x2
 5287 0006 00000000 		.4byte	.Ldebug_info0
 5288 000a 04       		.byte	0x4
 5289 000b 00       		.byte	0
 5290 000c 0000     		.2byte	0
 5291 000e 0000     		.2byte	0
 5292 0010 00000000 		.4byte	.LFB0
 5293 0014 14000000 		.4byte	.LFE0-.LFB0
 5294 0018 00000000 		.4byte	.LFB3
 5295 001c 1C000000 		.4byte	.LFE3-.LFB3
 5296 0020 00000000 		.4byte	.LFB5
 5297 0024 30000000 		.4byte	.LFE5-.LFB5
 5298 0028 00000000 		.4byte	.LFB6
 5299 002c 24000000 		.4byte	.LFE6-.LFB6
 5300 0030 00000000 		.4byte	.LFB7
 5301 0034 38000000 		.4byte	.LFE7-.LFB7
 5302 0038 00000000 		.4byte	.LFB8
 5303 003c 14000000 		.4byte	.LFE8-.LFB8
 5304 0040 00000000 		.4byte	.LFB9
 5305 0044 38000000 		.4byte	.LFE9-.LFB9
 5306 0048 00000000 		.4byte	.LFB10
 5307 004c 24000000 		.4byte	.LFE10-.LFB10
 5308 0050 00000000 		.4byte	.LFB11
ARM GAS  C:\Users\Vit\AppData\Local\Temp\ccnJL0JJ.s 			page 126


 5309 0054 34000000 		.4byte	.LFE11-.LFB11
 5310 0058 00000000 		.4byte	.LFB12
 5311 005c 3C000000 		.4byte	.LFE12-.LFB12
 5312 0060 00000000 		.4byte	.LFB13
 5313 0064 34000000 		.4byte	.LFE13-.LFB13
 5314 0068 00000000 		.4byte	.LFB14
 5315 006c 14000000 		.4byte	.LFE14-.LFB14
 5316 0070 00000000 		.4byte	.LFB15
 5317 0074 3C000000 		.4byte	.LFE15-.LFB15
 5318 0078 00000000 		.4byte	.LFB16
 5319 007c 28000000 		.4byte	.LFE16-.LFB16
 5320 0080 00000000 		.4byte	.LFB17
 5321 0084 10000000 		.4byte	.LFE17-.LFB17
 5322 0088 00000000 		.4byte	.LFB18
 5323 008c 20000000 		.4byte	.LFE18-.LFB18
 5324 0090 00000000 		.4byte	.LFB19
 5325 0094 38000000 		.4byte	.LFE19-.LFB19
 5326 0098 00000000 		.4byte	.LFB1
 5327 009c B4000000 		.4byte	.LFE1-.LFB1
 5328 00a0 00000000 		.4byte	.LFB20
 5329 00a4 14000000 		.4byte	.LFE20-.LFB20
 5330 00a8 00000000 		.4byte	.LFB21
 5331 00ac 54000000 		.4byte	.LFE21-.LFB21
 5332 00b0 00000000 		.4byte	.LFB22
 5333 00b4 1C000000 		.4byte	.LFE22-.LFB22
 5334 00b8 00000000 		.4byte	.LFB23
 5335 00bc 20000000 		.4byte	.LFE23-.LFB23
 5336 00c0 00000000 		.4byte	.LFB24
 5337 00c4 20000000 		.4byte	.LFE24-.LFB24
 5338 00c8 00000000 		.4byte	.LFB25
 5339 00cc 34000000 		.4byte	.LFE25-.LFB25
 5340 00d0 00000000 		.4byte	.LFB26
 5341 00d4 28000000 		.4byte	.LFE26-.LFB26
 5342 00d8 00000000 		.4byte	.LFB27
 5343 00dc A0000000 		.4byte	.LFE27-.LFB27
 5344 00e0 00000000 		.4byte	.LFB29
 5345 00e4 6C000000 		.4byte	.LFE29-.LFB29
 5346 00e8 00000000 		.4byte	.LFB28
 5347 00ec 3C000000 		.4byte	.LFE28-.LFB28
 5348 00f0 00000000 		.4byte	.LFB30
 5349 00f4 52000000 		.4byte	.LFE30-.LFB30
 5350 00f8 00000000 		.4byte	0
 5351 00fc 00000000 		.4byte	0
 5352              		.section	.debug_ranges,"",%progbits
 5353              	.Ldebug_ranges0:
 5354 0000 00000000 		.4byte	.LBB44
 5355 0004 02000000 		.4byte	.LBE44
 5356 0008 04000000 		.4byte	.LBB48
 5357 000c 06000000 		.4byte	.LBE48
 5358 0010 0C000000 		.4byte	.LBB56
 5359 0014 0E000000 		.4byte	.LBE56
 5360 0018 00000000 		.4byte	0
 5361 001c 00000000 		.4byte	0
 5362 0020 06000000 		.4byte	.LBB49
 5363 0024 08000000 		.4byte	.LBE49
 5364 0028 0A000000 		.4byte	.LBB55
 5365 002c 0C000000 		.4byte	.LBE55
ARM GAS  C:\Users\Vit\AppData\Local\Temp\ccnJL0JJ.s 			page 127


 5366 0030 00000000 		.4byte	0
 5367 0034 00000000 		.4byte	0
 5368 0038 08000000 		.4byte	.LBB52
 5369 003c 0A000000 		.4byte	.LBE52
 5370 0040 10000000 		.4byte	.LBB57
 5371 0044 12000000 		.4byte	.LBE57
 5372 0048 00000000 		.4byte	0
 5373 004c 00000000 		.4byte	0
 5374 0050 00000000 		.4byte	.LBB78
 5375 0054 02000000 		.4byte	.LBE78
 5376 0058 04000000 		.4byte	.LBB81
 5377 005c 10000000 		.4byte	.LBE81
 5378 0060 00000000 		.4byte	0
 5379 0064 00000000 		.4byte	0
 5380 0068 1C000000 		.4byte	.LBB84
 5381 006c 1E000000 		.4byte	.LBE84
 5382 0070 20000000 		.4byte	.LBB101
 5383 0074 74000000 		.4byte	.LBE101
 5384 0078 00000000 		.4byte	0
 5385 007c 00000000 		.4byte	0
 5386 0080 1C000000 		.4byte	.LBB86
 5387 0084 1E000000 		.4byte	.LBE86
 5388 0088 20000000 		.4byte	.LBB89
 5389 008c 26000000 		.4byte	.LBE89
 5390 0090 00000000 		.4byte	0
 5391 0094 00000000 		.4byte	0
 5392 0098 48000000 		.4byte	.LBB94
 5393 009c 4A000000 		.4byte	.LBE94
 5394 00a0 4E000000 		.4byte	.LBB98
 5395 00a4 52000000 		.4byte	.LBE98
 5396 00a8 54000000 		.4byte	.LBB99
 5397 00ac 56000000 		.4byte	.LBE99
 5398 00b0 00000000 		.4byte	0
 5399 00b4 00000000 		.4byte	0
 5400 00b8 08000000 		.4byte	.LBB106
 5401 00bc 0A000000 		.4byte	.LBE106
 5402 00c0 0C000000 		.4byte	.LBB109
 5403 00c4 16000000 		.4byte	.LBE109
 5404 00c8 00000000 		.4byte	0
 5405 00cc 00000000 		.4byte	0
 5406 00d0 00000000 		.4byte	.LFB0
 5407 00d4 14000000 		.4byte	.LFE0
 5408 00d8 00000000 		.4byte	.LFB3
 5409 00dc 1C000000 		.4byte	.LFE3
 5410 00e0 00000000 		.4byte	.LFB5
 5411 00e4 30000000 		.4byte	.LFE5
 5412 00e8 00000000 		.4byte	.LFB6
 5413 00ec 24000000 		.4byte	.LFE6
 5414 00f0 00000000 		.4byte	.LFB7
 5415 00f4 38000000 		.4byte	.LFE7
 5416 00f8 00000000 		.4byte	.LFB8
 5417 00fc 14000000 		.4byte	.LFE8
 5418 0100 00000000 		.4byte	.LFB9
 5419 0104 38000000 		.4byte	.LFE9
 5420 0108 00000000 		.4byte	.LFB10
 5421 010c 24000000 		.4byte	.LFE10
 5422 0110 00000000 		.4byte	.LFB11
ARM GAS  C:\Users\Vit\AppData\Local\Temp\ccnJL0JJ.s 			page 128


 5423 0114 34000000 		.4byte	.LFE11
 5424 0118 00000000 		.4byte	.LFB12
 5425 011c 3C000000 		.4byte	.LFE12
 5426 0120 00000000 		.4byte	.LFB13
 5427 0124 34000000 		.4byte	.LFE13
 5428 0128 00000000 		.4byte	.LFB14
 5429 012c 14000000 		.4byte	.LFE14
 5430 0130 00000000 		.4byte	.LFB15
 5431 0134 3C000000 		.4byte	.LFE15
 5432 0138 00000000 		.4byte	.LFB16
 5433 013c 28000000 		.4byte	.LFE16
 5434 0140 00000000 		.4byte	.LFB17
 5435 0144 10000000 		.4byte	.LFE17
 5436 0148 00000000 		.4byte	.LFB18
 5437 014c 20000000 		.4byte	.LFE18
 5438 0150 00000000 		.4byte	.LFB19
 5439 0154 38000000 		.4byte	.LFE19
 5440 0158 00000000 		.4byte	.LFB1
 5441 015c B4000000 		.4byte	.LFE1
 5442 0160 00000000 		.4byte	.LFB20
 5443 0164 14000000 		.4byte	.LFE20
 5444 0168 00000000 		.4byte	.LFB21
 5445 016c 54000000 		.4byte	.LFE21
 5446 0170 00000000 		.4byte	.LFB22
 5447 0174 1C000000 		.4byte	.LFE22
 5448 0178 00000000 		.4byte	.LFB23
 5449 017c 20000000 		.4byte	.LFE23
 5450 0180 00000000 		.4byte	.LFB24
 5451 0184 20000000 		.4byte	.LFE24
 5452 0188 00000000 		.4byte	.LFB25
 5453 018c 34000000 		.4byte	.LFE25
 5454 0190 00000000 		.4byte	.LFB26
 5455 0194 28000000 		.4byte	.LFE26
 5456 0198 00000000 		.4byte	.LFB27
 5457 019c A0000000 		.4byte	.LFE27
 5458 01a0 00000000 		.4byte	.LFB29
 5459 01a4 6C000000 		.4byte	.LFE29
 5460 01a8 00000000 		.4byte	.LFB28
 5461 01ac 3C000000 		.4byte	.LFE28
 5462 01b0 00000000 		.4byte	.LFB30
 5463 01b4 52000000 		.4byte	.LFE30
 5464 01b8 00000000 		.4byte	0
 5465 01bc 00000000 		.4byte	0
 5466              		.section	.debug_line,"",%progbits
 5467              	.Ldebug_line0:
 5468 0000 92040000 		.section	.debug_str,"MS",%progbits,1
 5468      02005E00 
 5468      00000201 
 5468      FB0E0D00 
 5468      01010101 
 5469              	.LASF10:
 5470 0000 75696E74 		.ascii	"uint16\000"
 5470      313600
 5471              	.LASF81:
 5472 0007 474E5520 		.ascii	"GNU C 4.9.3 20150303 (release) [ARM/embedded-4_9-br"
 5472      4320342E 
 5472      392E3320 
ARM GAS  C:\Users\Vit\AppData\Local\Temp\ccnJL0JJ.s 			page 129


 5472      32303135 
 5472      30333033 
 5473 003a 616E6368 		.ascii	"anch revision 221220] -mcpu=cortex-m0 -mthumb -g -O"
 5473      20726576 
 5473      6973696F 
 5473      6E203232 
 5473      31323230 
 5474 006d 73202D66 		.ascii	"s -ffunction-sections -ffat-lto-objects\000"
 5474      66756E63 
 5474      74696F6E 
 5474      2D736563 
 5474      74696F6E 
 5475              	.LASF79:
 5476 0095 43794578 		.ascii	"CyExitCriticalSection\000"
 5476      69744372 
 5476      69746963 
 5476      616C5365 
 5476      6374696F 
 5477              	.LASF77:
 5478 00ab 636F756E 		.ascii	"counterIntMaskTbl\000"
 5478      74657249 
 5478      6E744D61 
 5478      736B5462 
 5478      6C00
 5479              	.LASF78:
 5480 00bd 63795379 		.ascii	"cySysWdtCallback\000"
 5480      73576474 
 5480      43616C6C 
 5480      6261636B 
 5480      00
 5481              	.LASF23:
 5482 00ce 43795379 		.ascii	"CySysWdtSetMode\000"
 5482      73576474 
 5482      5365744D 
 5482      6F646500 
 5483              	.LASF32:
 5484 00de 43795379 		.ascii	"CySysWdtUnlock\000"
 5484      73576474 
 5484      556E6C6F 
 5484      636B00
 5485              	.LASF72:
 5486 00ed 43795379 		.ascii	"CySysWatchdogFeed\000"
 5486      73576174 
 5486      6368646F 
 5486      67466565 
 5486      6400
 5487              	.LASF21:
 5488 00ff 636F756E 		.ascii	"counterNum\000"
 5488      7465724E 
 5488      756D00
 5489              	.LASF85:
 5490 010a 43795379 		.ascii	"CySysClkLfclkPosedgeCatch\000"
 5490      73436C6B 
 5490      4C66636C 
 5490      6B506F73 
 5490      65646765 
 5491              	.LASF46:
ARM GAS  C:\Users\Vit\AppData\Local\Temp\ccnJL0JJ.s 			page 130


 5492 0124 43795379 		.ascii	"CySysWdtGetCascade\000"
 5492      73576474 
 5492      47657443 
 5492      61736361 
 5492      646500
 5493              	.LASF73:
 5494 0137 6C66636C 		.ascii	"lfclkPosedgeWdtCounter0Enabled\000"
 5494      6B506F73 
 5494      65646765 
 5494      57647443 
 5494      6F756E74 
 5495              	.LASF7:
 5496 0156 6C6F6E67 		.ascii	"long long unsigned int\000"
 5496      206C6F6E 
 5496      6720756E 
 5496      7369676E 
 5496      65642069 
 5497              	.LASF36:
 5498 016d 43795379 		.ascii	"CySysWdtSetClearOnMatch\000"
 5498      73576474 
 5498      53657443 
 5498      6C656172 
 5498      4F6E4D61 
 5499              	.LASF6:
 5500 0185 6C6F6E67 		.ascii	"long long int\000"
 5500      206C6F6E 
 5500      6720696E 
 5500      7400
 5501              	.LASF0:
 5502 0193 7369676E 		.ascii	"signed char\000"
 5502      65642063 
 5502      68617200 
 5503              	.LASF62:
 5504 019f 66756E63 		.ascii	"function\000"
 5504      74696F6E 
 5504      00
 5505              	.LASF31:
 5506 01a8 43795379 		.ascii	"CySysWdtLock\000"
 5506      73576474 
 5506      4C6F636B 
 5506      00
 5507              	.LASF19:
 5508 01b5 63795764 		.ascii	"cyWdtCallback\000"
 5508      7443616C 
 5508      6C626163 
 5508      6B00
 5509              	.LASF88:
 5510 01c3 43794465 		.ascii	"CyDelayUs\000"
 5510      6C617955 
 5510      7300
 5511              	.LASF18:
 5512 01cd 63795F73 		.ascii	"cy_sys_timer_delaytype_enum\000"
 5512      79735F74 
 5512      696D6572 
 5512      5F64656C 
 5512      61797479 
 5513              	.LASF45:
ARM GAS  C:\Users\Vit\AppData\Local\Temp\ccnJL0JJ.s 			page 131


 5514 01e9 62697473 		.ascii	"bits\000"
 5514      00
 5515              	.LASF4:
 5516 01ee 6C6F6E67 		.ascii	"long int\000"
 5516      20696E74 
 5516      00
 5517              	.LASF43:
 5518 01f7 72656756 		.ascii	"regValue\000"
 5518      616C7565 
 5518      00
 5519              	.LASF9:
 5520 0200 75696E74 		.ascii	"uint8\000"
 5520      3800
 5521              	.LASF37:
 5522 0206 656E6162 		.ascii	"enable\000"
 5522      6C6500
 5523              	.LASF13:
 5524 020d 646F7562 		.ascii	"double\000"
 5524      6C6500
 5525              	.LASF55:
 5526 0214 43795379 		.ascii	"CySysClkIloStop\000"
 5526      73436C6B 
 5526      496C6F53 
 5526      746F7000 
 5527              	.LASF60:
 5528 0224 636F756E 		.ascii	"countersMask\000"
 5528      74657273 
 5528      4D61736B 
 5528      00
 5529              	.LASF11:
 5530 0231 75696E74 		.ascii	"uint32\000"
 5530      333200
 5531              	.LASF63:
 5532 0238 70726576 		.ascii	"prevCallback\000"
 5532      43616C6C 
 5532      6261636B 
 5532      00
 5533              	.LASF42:
 5534 0245 43795379 		.ascii	"CySysWdtSetMatch\000"
 5534      73576474 
 5534      5365744D 
 5534      61746368 
 5534      00
 5535              	.LASF41:
 5536 0256 636F756E 		.ascii	"countersEnableStatus\000"
 5536      74657273 
 5536      456E6162 
 5536      6C655374 
 5536      61747573 
 5537              	.LASF76:
 5538 026b 77647449 		.ascii	"wdtIsrMask\000"
 5538      73724D61 
 5538      736B00
 5539              	.LASF24:
 5540 0276 43795379 		.ascii	"CySysWdtEnable\000"
 5540      73576474 
 5540      456E6162 
ARM GAS  C:\Users\Vit\AppData\Local\Temp\ccnJL0JJ.s 			page 132


 5540      6C6500
 5541              	.LASF61:
 5542 0285 43795379 		.ascii	"CySysWdtSetInterruptCallback\000"
 5542      73576474 
 5542      53657449 
 5542      6E746572 
 5542      72757074 
 5543              	.LASF25:
 5544 02a2 636F756E 		.ascii	"counterMask\000"
 5544      7465724D 
 5544      61736B00 
 5545              	.LASF48:
 5546 02ae 43795379 		.ascii	"CySysWdtGetClearOnMatch\000"
 5546      73576474 
 5546      47657443 
 5546      6C656172 
 5546      4F6E4D61 
 5547              	.LASF8:
 5548 02c6 756E7369 		.ascii	"unsigned int\000"
 5548      676E6564 
 5548      20696E74 
 5548      00
 5549              	.LASF53:
 5550 02d3 66697273 		.ascii	"firstCount\000"
 5550      74436F75 
 5550      6E7400
 5551              	.LASF65:
 5552 02de 72657443 		.ascii	"retCallback\000"
 5552      616C6C62 
 5552      61636B00 
 5553              	.LASF5:
 5554 02ea 6C6F6E67 		.ascii	"long unsigned int\000"
 5554      20756E73 
 5554      69676E65 
 5554      6420696E 
 5554      7400
 5555              	.LASF33:
 5556 02fc 696E7465 		.ascii	"interruptState\000"
 5556      72727570 
 5556      74537461 
 5556      746500
 5557              	.LASF71:
 5558 030b 6D617463 		.ascii	"matchValue\000"
 5558      6856616C 
 5558      756500
 5559              	.LASF86:
 5560 0316 43795379 		.ascii	"CySysClkLfclkPosedgeRestore\000"
 5560      73436C6B 
 5560      4C66636C 
 5560      6B506F73 
 5560      65646765 
 5561              	.LASF66:
 5562 0332 43795379 		.ascii	"CySysWdtEnableCounterIsr\000"
 5562      73576474 
 5562      456E6162 
 5562      6C65436F 
 5562      756E7465 
ARM GAS  C:\Users\Vit\AppData\Local\Temp\ccnJL0JJ.s 			page 133


 5563              	.LASF3:
 5564 034b 73686F72 		.ascii	"short unsigned int\000"
 5564      7420756E 
 5564      7369676E 
 5564      65642069 
 5564      6E7400
 5565              	.LASF83:
 5566 035e 433A5C55 		.ascii	"C:\\Users\\Vit\\Documents\\PSoC Creator\\SensorTest"
 5566      73657273 
 5566      5C566974 
 5566      5C446F63 
 5566      756D656E 
 5567 038c 5C53656E 		.ascii	"\\SensorTest.cydsn\000"
 5567      736F7254 
 5567      6573742E 
 5567      63796473 
 5567      6E00
 5568              	.LASF34:
 5569 039e 43795379 		.ascii	"CySysWdtGetEnabledStatus\000"
 5569      73576474 
 5569      47657445 
 5569      6E61626C 
 5569      65645374 
 5570              	.LASF64:
 5571 03b7 43795379 		.ascii	"CySysWdtGetInterruptCallback\000"
 5571      73576474 
 5571      47657449 
 5571      6E746572 
 5571      72757074 
 5572              	.LASF68:
 5573 03d4 43795379 		.ascii	"CySysWdtIsr\000"
 5573      73576474 
 5573      49737200 
 5574              	.LASF84:
 5575 03e0 43795379 		.ascii	"CySysClkIloStart\000"
 5575      73436C6B 
 5575      496C6F53 
 5575      74617274 
 5575      00
 5576              	.LASF44:
 5577 03f1 43795379 		.ascii	"CySysWdtSetToggleBit\000"
 5577      73576474 
 5577      53657454 
 5577      6F67676C 
 5577      65426974 
 5578              	.LASF82:
 5579 0406 2E5C4765 		.ascii	".\\Generated_Source\\PSoC4\\CyLFClk.c\000"
 5579      6E657261 
 5579      7465645F 
 5579      536F7572 
 5579      63655C50 
 5580              	.LASF15:
 5581 0429 72656733 		.ascii	"reg32\000"
 5581      3200
 5582              	.LASF87:
 5583 042f 4379456E 		.ascii	"CyEnterCriticalSection\000"
 5583      74657243 
ARM GAS  C:\Users\Vit\AppData\Local\Temp\ccnJL0JJ.s 			page 134


 5583      72697469 
 5583      63616C53 
 5583      65637469 
 5584              	.LASF20:
 5585 0446 73697A65 		.ascii	"sizetype\000"
 5585      74797065 
 5585      00
 5586              	.LASF49:
 5587 044f 43795379 		.ascii	"CySysWdtGetMatch\000"
 5587      73576474 
 5587      4765744D 
 5587      61746368 
 5587      00
 5588              	.LASF28:
 5589 0460 6D617463 		.ascii	"match\000"
 5589      6800
 5590              	.LASF16:
 5591 0466 43595F53 		.ascii	"CY_SYS_TIMER_WAIT\000"
 5591      59535F54 
 5591      494D4552 
 5591      5F574149 
 5591      5400
 5592              	.LASF59:
 5593 0478 43795379 		.ascii	"CySysWdtResetCounters\000"
 5593      73576474 
 5593      52657365 
 5593      74436F75 
 5593      6E746572 
 5594              	.LASF57:
 5595 048e 43795379 		.ascii	"CySysWdtClearInterrupt\000"
 5595      73576474 
 5595      436C6561 
 5595      72496E74 
 5595      65727275 
 5596              	.LASF12:
 5597 04a5 666C6F61 		.ascii	"float\000"
 5597      7400
 5598              	.LASF26:
 5599 04ab 43795379 		.ascii	"CySysTimerDelayUntilMatch\000"
 5599      7354696D 
 5599      65724465 
 5599      6C617955 
 5599      6E74696C 
 5600              	.LASF69:
 5601 04c5 43795379 		.ascii	"CySysTimerDelay\000"
 5601      7354696D 
 5601      65724465 
 5601      6C617900 
 5602              	.LASF51:
 5603 04d5 43795379 		.ascii	"CySysWdtLocked\000"
 5603      73576474 
 5603      4C6F636B 
 5603      656400
 5604              	.LASF80:
 5605 04e4 43794861 		.ascii	"CyHalt\000"
 5605      6C7400
 5606              	.LASF1:
ARM GAS  C:\Users\Vit\AppData\Local\Temp\ccnJL0JJ.s 			page 135


 5607 04eb 756E7369 		.ascii	"unsigned char\000"
 5607      676E6564 
 5607      20636861 
 5607      7200
 5608              	.LASF54:
 5609 04f9 6C66636C 		.ascii	"lfclkPosedgeEnabledWdtCounter\000"
 5609      6B506F73 
 5609      65646765 
 5609      456E6162 
 5609      6C656457 
 5610              	.LASF70:
 5611 0517 64656C61 		.ascii	"delay\000"
 5611      7900
 5612              	.LASF2:
 5613 051d 73686F72 		.ascii	"short int\000"
 5613      7420696E 
 5613      7400
 5614              	.LASF27:
 5615 0527 64656C61 		.ascii	"delayType\000"
 5615      79547970 
 5615      6500
 5616              	.LASF38:
 5617 0531 43795379 		.ascii	"CySysWdtDisable\000"
 5617      73576474 
 5617      44697361 
 5617      626C6500 
 5618              	.LASF52:
 5619 0541 43795379 		.ascii	"CySysClkIloEnabled\000"
 5619      73436C6B 
 5619      496C6F45 
 5619      6E61626C 
 5619      656400
 5620              	.LASF56:
 5621 0554 43795379 		.ascii	"CySysWdtGetInterruptSource\000"
 5621      73576474 
 5621      47657449 
 5621      6E746572 
 5621      72757074 
 5622              	.LASF67:
 5623 056f 43795379 		.ascii	"CySysWdtDisableCounterIsr\000"
 5623      73576474 
 5623      44697361 
 5623      626C6543 
 5623      6F756E74 
 5624              	.LASF14:
 5625 0589 63686172 		.ascii	"char\000"
 5625      00
 5626              	.LASF22:
 5627 058e 6D6F6465 		.ascii	"mode\000"
 5627      00
 5628              	.LASF50:
 5629 0593 43795379 		.ascii	"CySysWdtGetCount\000"
 5629      73576474 
 5629      47657443 
 5629      6F756E74 
 5629      00
 5630              	.LASF75:
ARM GAS  C:\Users\Vit\AppData\Local\Temp\ccnJL0JJ.s 			page 136


 5631 05a4 64697361 		.ascii	"disableServicedIsr\000"
 5631      626C6553 
 5631      65727669 
 5631      63656449 
 5631      737200
 5632              	.LASF30:
 5633 05b7 746D7056 		.ascii	"tmpValue\000"
 5633      616C7565 
 5633      00
 5634              	.LASF39:
 5635 05c0 43795379 		.ascii	"CySysWdtSetCascade\000"
 5635      73576474 
 5635      53657443 
 5635      61736361 
 5635      646500
 5636              	.LASF35:
 5637 05d3 43795379 		.ascii	"CySysWdtGetMode\000"
 5637      73576474 
 5637      4765744D 
 5637      6F646500 
 5638              	.LASF29:
 5639 05e3 636F6E66 		.ascii	"configRegValue\000"
 5639      69675265 
 5639      6756616C 
 5639      756500
 5640              	.LASF58:
 5641 05f2 7764744C 		.ascii	"wdtLockState\000"
 5641      6F636B53 
 5641      74617465 
 5641      00
 5642              	.LASF74:
 5643 05ff 6C66636C 		.ascii	"lfclkPosedgeWdtCounter0Mode\000"
 5643      6B506F73 
 5643      65646765 
 5643      57647443 
 5643      6F756E74 
 5644              	.LASF40:
 5645 061b 63617363 		.ascii	"cascadeMask\000"
 5645      6164654D 
 5645      61736B00 
 5646              	.LASF47:
 5647 0627 43795379 		.ascii	"CySysWdtGetToggleBit\000"
 5647      73576474 
 5647      47657454 
 5647      6F67676C 
 5647      65426974 
 5648              	.LASF17:
 5649 063c 43595F53 		.ascii	"CY_SYS_TIMER_INTERRUPT\000"
 5649      59535F54 
 5649      494D4552 
 5649      5F494E54 
 5649      45525255 
 5650              		.ident	"GCC: (GNU Tools for ARM Embedded Processors) 4.9.3 20150303 (release) [ARM/embedded-4_9-br
