ARM GAS  C:\Users\Vit\AppData\Local\Temp\ccxNl6wF.s 			page 1


   1              		.cpu cortex-m0
   2              		.fpu softvfp
   3              		.eabi_attribute 20, 1
   4              		.eabi_attribute 21, 1
   5              		.eabi_attribute 23, 3
   6              		.eabi_attribute 24, 1
   7              		.eabi_attribute 25, 1
   8              		.eabi_attribute 26, 1
   9              		.eabi_attribute 30, 4
  10              		.eabi_attribute 34, 0
  11              		.eabi_attribute 18, 4
  12              		.code	16
  13              		.file	"I2C.c"
  14              		.text
  15              	.Ltext0:
  16              		.cfi_sections	.debug_frame
  17              		.section	.text.I2C_Init,"ax",%progbits
  18              		.align	1
  19              		.global	I2C_Init
  20              		.code	16
  21              		.thumb_func
  22              		.type	I2C_Init, %function
  23              	I2C_Init:
  24              	.LFB0:
  25              		.file 1 ".\\Generated_Source\\PSoC4\\I2C.c"
   1:.\Generated_Source\PSoC4/I2C.c **** /*******************************************************************************
   2:.\Generated_Source\PSoC4/I2C.c **** * File Name: I2C.c
   3:.\Generated_Source\PSoC4/I2C.c **** * Version 3.0
   4:.\Generated_Source\PSoC4/I2C.c **** *
   5:.\Generated_Source\PSoC4/I2C.c **** * Description:
   6:.\Generated_Source\PSoC4/I2C.c **** *  This file provides the source code to the API for the SCB Component.
   7:.\Generated_Source\PSoC4/I2C.c **** *
   8:.\Generated_Source\PSoC4/I2C.c **** * Note:
   9:.\Generated_Source\PSoC4/I2C.c **** *
  10:.\Generated_Source\PSoC4/I2C.c **** *******************************************************************************
  11:.\Generated_Source\PSoC4/I2C.c **** * Copyright 2013-2015, Cypress Semiconductor Corporation.  All rights reserved.
  12:.\Generated_Source\PSoC4/I2C.c **** * You may use this file only in accordance with the license, terms, conditions,
  13:.\Generated_Source\PSoC4/I2C.c **** * disclaimers, and limitations in the end user license agreement accompanying
  14:.\Generated_Source\PSoC4/I2C.c **** * the software package with which this file was provided.
  15:.\Generated_Source\PSoC4/I2C.c **** *******************************************************************************/
  16:.\Generated_Source\PSoC4/I2C.c **** 
  17:.\Generated_Source\PSoC4/I2C.c **** #include "I2C_PVT.h"
  18:.\Generated_Source\PSoC4/I2C.c **** 
  19:.\Generated_Source\PSoC4/I2C.c **** #if (I2C_SCB_MODE_I2C_INC)
  20:.\Generated_Source\PSoC4/I2C.c ****     #include "I2C_I2C_PVT.h"
  21:.\Generated_Source\PSoC4/I2C.c **** #endif /* (I2C_SCB_MODE_I2C_INC) */
  22:.\Generated_Source\PSoC4/I2C.c **** 
  23:.\Generated_Source\PSoC4/I2C.c **** #if (I2C_SCB_MODE_EZI2C_INC)
  24:.\Generated_Source\PSoC4/I2C.c ****     #include "I2C_EZI2C_PVT.h"
  25:.\Generated_Source\PSoC4/I2C.c **** #endif /* (I2C_SCB_MODE_EZI2C_INC) */
  26:.\Generated_Source\PSoC4/I2C.c **** 
  27:.\Generated_Source\PSoC4/I2C.c **** #if (I2C_SCB_MODE_SPI_INC || I2C_SCB_MODE_UART_INC)
  28:.\Generated_Source\PSoC4/I2C.c ****     #include "I2C_SPI_UART_PVT.h"
  29:.\Generated_Source\PSoC4/I2C.c **** #endif /* (I2C_SCB_MODE_SPI_INC || I2C_SCB_MODE_UART_INC) */
  30:.\Generated_Source\PSoC4/I2C.c **** 
  31:.\Generated_Source\PSoC4/I2C.c **** 
  32:.\Generated_Source\PSoC4/I2C.c **** /***************************************
ARM GAS  C:\Users\Vit\AppData\Local\Temp\ccxNl6wF.s 			page 2


  33:.\Generated_Source\PSoC4/I2C.c **** *    Run Time Configuration Vars
  34:.\Generated_Source\PSoC4/I2C.c **** ***************************************/
  35:.\Generated_Source\PSoC4/I2C.c **** 
  36:.\Generated_Source\PSoC4/I2C.c **** /* Stores internal component configuration for Unconfigured mode */
  37:.\Generated_Source\PSoC4/I2C.c **** #if (I2C_SCB_MODE_UNCONFIG_CONST_CFG)
  38:.\Generated_Source\PSoC4/I2C.c ****     /* Common configuration variables */
  39:.\Generated_Source\PSoC4/I2C.c ****     uint8 I2C_scbMode = I2C_SCB_MODE_UNCONFIG;
  40:.\Generated_Source\PSoC4/I2C.c ****     uint8 I2C_scbEnableWake;
  41:.\Generated_Source\PSoC4/I2C.c ****     uint8 I2C_scbEnableIntr;
  42:.\Generated_Source\PSoC4/I2C.c **** 
  43:.\Generated_Source\PSoC4/I2C.c ****     /* I2C configuration variables */
  44:.\Generated_Source\PSoC4/I2C.c ****     uint8 I2C_mode;
  45:.\Generated_Source\PSoC4/I2C.c ****     uint8 I2C_acceptAddr;
  46:.\Generated_Source\PSoC4/I2C.c **** 
  47:.\Generated_Source\PSoC4/I2C.c ****     /* SPI/UART configuration variables */
  48:.\Generated_Source\PSoC4/I2C.c ****     volatile uint8 * I2C_rxBuffer;
  49:.\Generated_Source\PSoC4/I2C.c ****     uint8  I2C_rxDataBits;
  50:.\Generated_Source\PSoC4/I2C.c ****     uint32 I2C_rxBufferSize;
  51:.\Generated_Source\PSoC4/I2C.c **** 
  52:.\Generated_Source\PSoC4/I2C.c ****     volatile uint8 * I2C_txBuffer;
  53:.\Generated_Source\PSoC4/I2C.c ****     uint8  I2C_txDataBits;
  54:.\Generated_Source\PSoC4/I2C.c ****     uint32 I2C_txBufferSize;
  55:.\Generated_Source\PSoC4/I2C.c **** 
  56:.\Generated_Source\PSoC4/I2C.c ****     /* EZI2C configuration variables */
  57:.\Generated_Source\PSoC4/I2C.c ****     uint8 I2C_numberOfAddr;
  58:.\Generated_Source\PSoC4/I2C.c ****     uint8 I2C_subAddrSize;
  59:.\Generated_Source\PSoC4/I2C.c **** #endif /* (I2C_SCB_MODE_UNCONFIG_CONST_CFG) */
  60:.\Generated_Source\PSoC4/I2C.c **** 
  61:.\Generated_Source\PSoC4/I2C.c **** 
  62:.\Generated_Source\PSoC4/I2C.c **** /***************************************
  63:.\Generated_Source\PSoC4/I2C.c **** *     Common SCB Vars
  64:.\Generated_Source\PSoC4/I2C.c **** ***************************************/
  65:.\Generated_Source\PSoC4/I2C.c **** 
  66:.\Generated_Source\PSoC4/I2C.c **** uint8 I2C_initVar = 0u;
  67:.\Generated_Source\PSoC4/I2C.c **** 
  68:.\Generated_Source\PSoC4/I2C.c **** #if (I2C_SCB_IRQ_INTERNAL)
  69:.\Generated_Source\PSoC4/I2C.c **** #if !defined (CY_REMOVE_I2C_CUSTOM_INTR_HANDLER)
  70:.\Generated_Source\PSoC4/I2C.c ****     void (*I2C_customIntrHandler)(void) = NULL;
  71:.\Generated_Source\PSoC4/I2C.c **** #endif /* !defined (CY_REMOVE_I2C_CUSTOM_INTR_HANDLER) */
  72:.\Generated_Source\PSoC4/I2C.c **** #endif /* (I2C_SCB_IRQ_INTERNAL) */
  73:.\Generated_Source\PSoC4/I2C.c **** 
  74:.\Generated_Source\PSoC4/I2C.c **** 
  75:.\Generated_Source\PSoC4/I2C.c **** /***************************************
  76:.\Generated_Source\PSoC4/I2C.c **** *    Private Function Prototypes
  77:.\Generated_Source\PSoC4/I2C.c **** ***************************************/
  78:.\Generated_Source\PSoC4/I2C.c **** 
  79:.\Generated_Source\PSoC4/I2C.c **** static void I2C_ScbEnableIntr(void);
  80:.\Generated_Source\PSoC4/I2C.c **** static void I2C_ScbModeStop(void);
  81:.\Generated_Source\PSoC4/I2C.c **** static void I2C_ScbModePostEnable(void);
  82:.\Generated_Source\PSoC4/I2C.c **** 
  83:.\Generated_Source\PSoC4/I2C.c **** 
  84:.\Generated_Source\PSoC4/I2C.c **** /*******************************************************************************
  85:.\Generated_Source\PSoC4/I2C.c **** * Function Name: I2C_Init
  86:.\Generated_Source\PSoC4/I2C.c **** ********************************************************************************
  87:.\Generated_Source\PSoC4/I2C.c **** *
  88:.\Generated_Source\PSoC4/I2C.c **** * Summary:
  89:.\Generated_Source\PSoC4/I2C.c **** *  Initializes the SCB component to operate in one of the selected
ARM GAS  C:\Users\Vit\AppData\Local\Temp\ccxNl6wF.s 			page 3


  90:.\Generated_Source\PSoC4/I2C.c **** *  configurations: I2C, SPI, UART or EZI2C.
  91:.\Generated_Source\PSoC4/I2C.c **** *  When the configuration is set to "Unconfigured SCB", this function does
  92:.\Generated_Source\PSoC4/I2C.c **** *  not do any initialization. Use mode-specific initialization APIs instead:
  93:.\Generated_Source\PSoC4/I2C.c **** *  SCB_I2CInit, SCB_SpiInit, SCB_UartInit or SCB_EzI2CInit.
  94:.\Generated_Source\PSoC4/I2C.c **** *
  95:.\Generated_Source\PSoC4/I2C.c **** * Parameters:
  96:.\Generated_Source\PSoC4/I2C.c **** *  None
  97:.\Generated_Source\PSoC4/I2C.c **** *
  98:.\Generated_Source\PSoC4/I2C.c **** * Return:
  99:.\Generated_Source\PSoC4/I2C.c **** *  None
 100:.\Generated_Source\PSoC4/I2C.c **** *
 101:.\Generated_Source\PSoC4/I2C.c **** *******************************************************************************/
 102:.\Generated_Source\PSoC4/I2C.c **** void I2C_Init(void)
 103:.\Generated_Source\PSoC4/I2C.c **** {
  26              		.loc 1 103 0
  27              		.cfi_startproc
  28 0000 08B5     		push	{r3, lr}
  29              		.cfi_def_cfa_offset 8
  30              		.cfi_offset 3, -8
  31              		.cfi_offset 14, -4
 104:.\Generated_Source\PSoC4/I2C.c **** #if (I2C_SCB_MODE_UNCONFIG_CONST_CFG)
 105:.\Generated_Source\PSoC4/I2C.c ****     if (I2C_SCB_MODE_UNCONFIG_RUNTM_CFG)
 106:.\Generated_Source\PSoC4/I2C.c ****     {
 107:.\Generated_Source\PSoC4/I2C.c ****         I2C_initVar = 0u;
 108:.\Generated_Source\PSoC4/I2C.c ****     }
 109:.\Generated_Source\PSoC4/I2C.c ****     else
 110:.\Generated_Source\PSoC4/I2C.c ****     {
 111:.\Generated_Source\PSoC4/I2C.c ****         /* Initialization was done before this function call */
 112:.\Generated_Source\PSoC4/I2C.c ****     }
 113:.\Generated_Source\PSoC4/I2C.c **** 
 114:.\Generated_Source\PSoC4/I2C.c **** #elif (I2C_SCB_MODE_I2C_CONST_CFG)
 115:.\Generated_Source\PSoC4/I2C.c ****     I2C_I2CInit();
  32              		.loc 1 115 0
  33 0002 FFF7FEFF 		bl	I2C_I2CInit
  34              	.LVL0:
 116:.\Generated_Source\PSoC4/I2C.c **** 
 117:.\Generated_Source\PSoC4/I2C.c **** #elif (I2C_SCB_MODE_SPI_CONST_CFG)
 118:.\Generated_Source\PSoC4/I2C.c ****     I2C_SpiInit();
 119:.\Generated_Source\PSoC4/I2C.c **** 
 120:.\Generated_Source\PSoC4/I2C.c **** #elif (I2C_SCB_MODE_UART_CONST_CFG)
 121:.\Generated_Source\PSoC4/I2C.c ****     I2C_UartInit();
 122:.\Generated_Source\PSoC4/I2C.c **** 
 123:.\Generated_Source\PSoC4/I2C.c **** #elif (I2C_SCB_MODE_EZI2C_CONST_CFG)
 124:.\Generated_Source\PSoC4/I2C.c ****     I2C_EzI2CInit();
 125:.\Generated_Source\PSoC4/I2C.c **** 
 126:.\Generated_Source\PSoC4/I2C.c **** #endif /* (I2C_SCB_MODE_UNCONFIG_CONST_CFG) */
 127:.\Generated_Source\PSoC4/I2C.c **** }
  35              		.loc 1 127 0
  36              		@ sp needed
  37 0006 08BD     		pop	{r3, pc}
  38              		.cfi_endproc
  39              	.LFE0:
  40              		.size	I2C_Init, .-I2C_Init
  41              		.section	.text.I2C_Enable,"ax",%progbits
  42              		.align	1
  43              		.global	I2C_Enable
  44              		.code	16
ARM GAS  C:\Users\Vit\AppData\Local\Temp\ccxNl6wF.s 			page 4


  45              		.thumb_func
  46              		.type	I2C_Enable, %function
  47              	I2C_Enable:
  48              	.LFB1:
 128:.\Generated_Source\PSoC4/I2C.c **** 
 129:.\Generated_Source\PSoC4/I2C.c **** 
 130:.\Generated_Source\PSoC4/I2C.c **** /*******************************************************************************
 131:.\Generated_Source\PSoC4/I2C.c **** * Function Name: I2C_Enable
 132:.\Generated_Source\PSoC4/I2C.c **** ********************************************************************************
 133:.\Generated_Source\PSoC4/I2C.c **** *
 134:.\Generated_Source\PSoC4/I2C.c **** * Summary:
 135:.\Generated_Source\PSoC4/I2C.c **** *  Enables the SCB component operation.
 136:.\Generated_Source\PSoC4/I2C.c **** *  The SCB configuration should be not changed when the component is enabled.
 137:.\Generated_Source\PSoC4/I2C.c **** *  Any configuration changes should be made after disabling the component.
 138:.\Generated_Source\PSoC4/I2C.c **** *
 139:.\Generated_Source\PSoC4/I2C.c **** * Parameters:
 140:.\Generated_Source\PSoC4/I2C.c **** *  None
 141:.\Generated_Source\PSoC4/I2C.c **** *
 142:.\Generated_Source\PSoC4/I2C.c **** * Return:
 143:.\Generated_Source\PSoC4/I2C.c **** *  None
 144:.\Generated_Source\PSoC4/I2C.c **** *
 145:.\Generated_Source\PSoC4/I2C.c **** *******************************************************************************/
 146:.\Generated_Source\PSoC4/I2C.c **** void I2C_Enable(void)
 147:.\Generated_Source\PSoC4/I2C.c **** {
  49              		.loc 1 147 0
  50              		.cfi_startproc
 148:.\Generated_Source\PSoC4/I2C.c **** #if (I2C_SCB_MODE_UNCONFIG_CONST_CFG)
 149:.\Generated_Source\PSoC4/I2C.c ****     /* Enable SCB block, only if it is already configured */
 150:.\Generated_Source\PSoC4/I2C.c ****     if (!I2C_SCB_MODE_UNCONFIG_RUNTM_CFG)
 151:.\Generated_Source\PSoC4/I2C.c ****     {
 152:.\Generated_Source\PSoC4/I2C.c ****         I2C_CTRL_REG |= I2C_CTRL_ENABLED;
 153:.\Generated_Source\PSoC4/I2C.c **** 
 154:.\Generated_Source\PSoC4/I2C.c ****         I2C_ScbEnableIntr();
 155:.\Generated_Source\PSoC4/I2C.c **** 
 156:.\Generated_Source\PSoC4/I2C.c ****         /* Call PostEnable function specific to current operation mode */
 157:.\Generated_Source\PSoC4/I2C.c ****         I2C_ScbModePostEnable();
 158:.\Generated_Source\PSoC4/I2C.c ****     }
 159:.\Generated_Source\PSoC4/I2C.c **** #else
 160:.\Generated_Source\PSoC4/I2C.c ****     I2C_CTRL_REG |= I2C_CTRL_ENABLED;
  51              		.loc 1 160 0
  52 0000 8021     		mov	r1, #128
  53 0002 054A     		ldr	r2, .L3
 147:.\Generated_Source\PSoC4/I2C.c **** #if (I2C_SCB_MODE_UNCONFIG_CONST_CFG)
  54              		.loc 1 147 0
  55 0004 08B5     		push	{r3, lr}
  56              		.cfi_def_cfa_offset 8
  57              		.cfi_offset 3, -8
  58              		.cfi_offset 14, -4
  59              		.loc 1 160 0
  60 0006 1368     		ldr	r3, [r2]
  61 0008 0906     		lsl	r1, r1, #24
  62 000a 0B43     		orr	r3, r1
  63 000c 1360     		str	r3, [r2]
  64              	.LBB10:
  65              	.LBB11:
 161:.\Generated_Source\PSoC4/I2C.c **** 
 162:.\Generated_Source\PSoC4/I2C.c ****     I2C_ScbEnableIntr();
ARM GAS  C:\Users\Vit\AppData\Local\Temp\ccxNl6wF.s 			page 5


 163:.\Generated_Source\PSoC4/I2C.c **** 
 164:.\Generated_Source\PSoC4/I2C.c ****     /* Call PostEnable function specific to current operation mode */
 165:.\Generated_Source\PSoC4/I2C.c ****     I2C_ScbModePostEnable();
 166:.\Generated_Source\PSoC4/I2C.c **** #endif /* (I2C_SCB_MODE_UNCONFIG_CONST_CFG) */
 167:.\Generated_Source\PSoC4/I2C.c **** }
 168:.\Generated_Source\PSoC4/I2C.c **** 
 169:.\Generated_Source\PSoC4/I2C.c **** 
 170:.\Generated_Source\PSoC4/I2C.c **** /*******************************************************************************
 171:.\Generated_Source\PSoC4/I2C.c **** * Function Name: I2C_Start
 172:.\Generated_Source\PSoC4/I2C.c **** ********************************************************************************
 173:.\Generated_Source\PSoC4/I2C.c **** *
 174:.\Generated_Source\PSoC4/I2C.c **** * Summary:
 175:.\Generated_Source\PSoC4/I2C.c **** *  Invokes SCB_Init() and SCB_Enable().
 176:.\Generated_Source\PSoC4/I2C.c **** *  After this function call, the component is enabled and ready for operation.
 177:.\Generated_Source\PSoC4/I2C.c **** *  When configuration is set to "Unconfigured SCB", the component must first be
 178:.\Generated_Source\PSoC4/I2C.c **** *  initialized to operate in one of the following configurations: I2C, SPI, UART
 179:.\Generated_Source\PSoC4/I2C.c **** *  or EZ I2C. Otherwise this function does not enable the component.
 180:.\Generated_Source\PSoC4/I2C.c **** *
 181:.\Generated_Source\PSoC4/I2C.c **** * Parameters:
 182:.\Generated_Source\PSoC4/I2C.c **** *  None
 183:.\Generated_Source\PSoC4/I2C.c **** *
 184:.\Generated_Source\PSoC4/I2C.c **** * Return:
 185:.\Generated_Source\PSoC4/I2C.c **** *  None
 186:.\Generated_Source\PSoC4/I2C.c **** *
 187:.\Generated_Source\PSoC4/I2C.c **** * Global variables:
 188:.\Generated_Source\PSoC4/I2C.c **** *  I2C_initVar - used to check initial configuration, modified
 189:.\Generated_Source\PSoC4/I2C.c **** *  on first function call.
 190:.\Generated_Source\PSoC4/I2C.c **** *
 191:.\Generated_Source\PSoC4/I2C.c **** *******************************************************************************/
 192:.\Generated_Source\PSoC4/I2C.c **** void I2C_Start(void)
 193:.\Generated_Source\PSoC4/I2C.c **** {
 194:.\Generated_Source\PSoC4/I2C.c ****     if (0u == I2C_initVar)
 195:.\Generated_Source\PSoC4/I2C.c ****     {
 196:.\Generated_Source\PSoC4/I2C.c ****         I2C_Init();
 197:.\Generated_Source\PSoC4/I2C.c ****         I2C_initVar = 1u; /* Component was initialized */
 198:.\Generated_Source\PSoC4/I2C.c ****     }
 199:.\Generated_Source\PSoC4/I2C.c **** 
 200:.\Generated_Source\PSoC4/I2C.c ****     I2C_Enable();
 201:.\Generated_Source\PSoC4/I2C.c **** }
 202:.\Generated_Source\PSoC4/I2C.c **** 
 203:.\Generated_Source\PSoC4/I2C.c **** 
 204:.\Generated_Source\PSoC4/I2C.c **** /*******************************************************************************
 205:.\Generated_Source\PSoC4/I2C.c **** * Function Name: I2C_Stop
 206:.\Generated_Source\PSoC4/I2C.c **** ********************************************************************************
 207:.\Generated_Source\PSoC4/I2C.c **** *
 208:.\Generated_Source\PSoC4/I2C.c **** * Summary:
 209:.\Generated_Source\PSoC4/I2C.c **** *  Disables the SCB component and its interrupt.
 210:.\Generated_Source\PSoC4/I2C.c **** *  It also disables all TX interrupt sources so as not to cause an unexpected
 211:.\Generated_Source\PSoC4/I2C.c **** *  interrupt trigger because after the component is enabled, the TX FIFO 
 212:.\Generated_Source\PSoC4/I2C.c **** *  is empty.
 213:.\Generated_Source\PSoC4/I2C.c **** *
 214:.\Generated_Source\PSoC4/I2C.c **** * Parameters:
 215:.\Generated_Source\PSoC4/I2C.c **** *  None
 216:.\Generated_Source\PSoC4/I2C.c **** *
 217:.\Generated_Source\PSoC4/I2C.c **** * Return:
 218:.\Generated_Source\PSoC4/I2C.c **** *  None
 219:.\Generated_Source\PSoC4/I2C.c **** * 
ARM GAS  C:\Users\Vit\AppData\Local\Temp\ccxNl6wF.s 			page 6


 220:.\Generated_Source\PSoC4/I2C.c **** *******************************************************************************/
 221:.\Generated_Source\PSoC4/I2C.c **** void I2C_Stop(void)
 222:.\Generated_Source\PSoC4/I2C.c **** {
 223:.\Generated_Source\PSoC4/I2C.c **** #if (I2C_SCB_IRQ_INTERNAL)
 224:.\Generated_Source\PSoC4/I2C.c ****     I2C_DisableInt();
 225:.\Generated_Source\PSoC4/I2C.c **** #endif /* (I2C_SCB_IRQ_INTERNAL) */
 226:.\Generated_Source\PSoC4/I2C.c **** 
 227:.\Generated_Source\PSoC4/I2C.c ****     /* Call Stop function specific to current operation mode */
 228:.\Generated_Source\PSoC4/I2C.c ****     I2C_ScbModeStop();
 229:.\Generated_Source\PSoC4/I2C.c **** 
 230:.\Generated_Source\PSoC4/I2C.c ****     /* Disable SCB IP */
 231:.\Generated_Source\PSoC4/I2C.c ****     I2C_CTRL_REG &= (uint32) ~I2C_CTRL_ENABLED;
 232:.\Generated_Source\PSoC4/I2C.c **** 
 233:.\Generated_Source\PSoC4/I2C.c ****     /* Disable all TX interrupt sources so as not to cause an unexpected
 234:.\Generated_Source\PSoC4/I2C.c ****     * interrupt trigger because after the component is enabled, the TX FIFO
 235:.\Generated_Source\PSoC4/I2C.c ****     * is empty.
 236:.\Generated_Source\PSoC4/I2C.c ****     * For SCB IP v0, it is critical as it does not mask-out interrupt
 237:.\Generated_Source\PSoC4/I2C.c ****     * sources when they are disabled. This can cause a code lock-up in the
 238:.\Generated_Source\PSoC4/I2C.c ****     * interrupt handler because TX FIFO cannot be loaded after the block
 239:.\Generated_Source\PSoC4/I2C.c ****     * is disabled.
 240:.\Generated_Source\PSoC4/I2C.c ****     */
 241:.\Generated_Source\PSoC4/I2C.c ****     I2C_SetTxInterruptMode(I2C_NO_INTR_SOURCES);
 242:.\Generated_Source\PSoC4/I2C.c **** 
 243:.\Generated_Source\PSoC4/I2C.c **** #if (I2C_SCB_IRQ_INTERNAL)
 244:.\Generated_Source\PSoC4/I2C.c ****     I2C_ClearPendingInt();
 245:.\Generated_Source\PSoC4/I2C.c **** #endif /* (I2C_SCB_IRQ_INTERNAL) */
 246:.\Generated_Source\PSoC4/I2C.c **** }
 247:.\Generated_Source\PSoC4/I2C.c **** 
 248:.\Generated_Source\PSoC4/I2C.c **** 
 249:.\Generated_Source\PSoC4/I2C.c **** /*******************************************************************************
 250:.\Generated_Source\PSoC4/I2C.c **** * Function Name: I2C_SetRxFifoLevel
 251:.\Generated_Source\PSoC4/I2C.c **** ********************************************************************************
 252:.\Generated_Source\PSoC4/I2C.c **** *
 253:.\Generated_Source\PSoC4/I2C.c **** * Summary:
 254:.\Generated_Source\PSoC4/I2C.c **** *  Sets level in the RX FIFO to generate a RX level interrupt.
 255:.\Generated_Source\PSoC4/I2C.c **** *  When the RX FIFO has more entries than the RX FIFO level an RX level
 256:.\Generated_Source\PSoC4/I2C.c **** *  interrupt request is generated.
 257:.\Generated_Source\PSoC4/I2C.c **** *
 258:.\Generated_Source\PSoC4/I2C.c **** * Parameters:
 259:.\Generated_Source\PSoC4/I2C.c **** *  level: Level in the RX FIFO to generate RX level interrupt.
 260:.\Generated_Source\PSoC4/I2C.c **** *         The range of valid level values is between 0 and RX FIFO depth - 1.
 261:.\Generated_Source\PSoC4/I2C.c **** *
 262:.\Generated_Source\PSoC4/I2C.c **** * Return:
 263:.\Generated_Source\PSoC4/I2C.c **** *  None
 264:.\Generated_Source\PSoC4/I2C.c **** *
 265:.\Generated_Source\PSoC4/I2C.c **** *******************************************************************************/
 266:.\Generated_Source\PSoC4/I2C.c **** void I2C_SetRxFifoLevel(uint32 level)
 267:.\Generated_Source\PSoC4/I2C.c **** {
 268:.\Generated_Source\PSoC4/I2C.c ****     uint32 rxFifoCtrl;
 269:.\Generated_Source\PSoC4/I2C.c **** 
 270:.\Generated_Source\PSoC4/I2C.c ****     rxFifoCtrl = I2C_RX_FIFO_CTRL_REG;
 271:.\Generated_Source\PSoC4/I2C.c **** 
 272:.\Generated_Source\PSoC4/I2C.c ****     rxFifoCtrl &= ((uint32) ~I2C_RX_FIFO_CTRL_TRIGGER_LEVEL_MASK); /* Clear level mask bits */
 273:.\Generated_Source\PSoC4/I2C.c ****     rxFifoCtrl |= ((uint32) (I2C_RX_FIFO_CTRL_TRIGGER_LEVEL_MASK & level));
 274:.\Generated_Source\PSoC4/I2C.c **** 
 275:.\Generated_Source\PSoC4/I2C.c ****     I2C_RX_FIFO_CTRL_REG = rxFifoCtrl;
 276:.\Generated_Source\PSoC4/I2C.c **** }
ARM GAS  C:\Users\Vit\AppData\Local\Temp\ccxNl6wF.s 			page 7


 277:.\Generated_Source\PSoC4/I2C.c **** 
 278:.\Generated_Source\PSoC4/I2C.c **** 
 279:.\Generated_Source\PSoC4/I2C.c **** /*******************************************************************************
 280:.\Generated_Source\PSoC4/I2C.c **** * Function Name: I2C_SetTxFifoLevel
 281:.\Generated_Source\PSoC4/I2C.c **** ********************************************************************************
 282:.\Generated_Source\PSoC4/I2C.c **** *
 283:.\Generated_Source\PSoC4/I2C.c **** * Summary:
 284:.\Generated_Source\PSoC4/I2C.c **** *  Sets level in the TX FIFO to generate a TX level interrupt.
 285:.\Generated_Source\PSoC4/I2C.c **** *  When the TX FIFO has more entries than the TX FIFO level an TX level
 286:.\Generated_Source\PSoC4/I2C.c **** *  interrupt request is generated.
 287:.\Generated_Source\PSoC4/I2C.c **** *
 288:.\Generated_Source\PSoC4/I2C.c **** * Parameters:
 289:.\Generated_Source\PSoC4/I2C.c **** *  level: Level in the TX FIFO to generate TX level interrupt.
 290:.\Generated_Source\PSoC4/I2C.c **** *         The range of valid level values is between 0 and TX FIFO depth - 1.
 291:.\Generated_Source\PSoC4/I2C.c **** *
 292:.\Generated_Source\PSoC4/I2C.c **** * Return:
 293:.\Generated_Source\PSoC4/I2C.c **** *  None
 294:.\Generated_Source\PSoC4/I2C.c **** *
 295:.\Generated_Source\PSoC4/I2C.c **** *******************************************************************************/
 296:.\Generated_Source\PSoC4/I2C.c **** void I2C_SetTxFifoLevel(uint32 level)
 297:.\Generated_Source\PSoC4/I2C.c **** {
 298:.\Generated_Source\PSoC4/I2C.c ****     uint32 txFifoCtrl;
 299:.\Generated_Source\PSoC4/I2C.c **** 
 300:.\Generated_Source\PSoC4/I2C.c ****     txFifoCtrl = I2C_TX_FIFO_CTRL_REG;
 301:.\Generated_Source\PSoC4/I2C.c **** 
 302:.\Generated_Source\PSoC4/I2C.c ****     txFifoCtrl &= ((uint32) ~I2C_TX_FIFO_CTRL_TRIGGER_LEVEL_MASK); /* Clear level mask bits */
 303:.\Generated_Source\PSoC4/I2C.c ****     txFifoCtrl |= ((uint32) (I2C_TX_FIFO_CTRL_TRIGGER_LEVEL_MASK & level));
 304:.\Generated_Source\PSoC4/I2C.c **** 
 305:.\Generated_Source\PSoC4/I2C.c ****     I2C_TX_FIFO_CTRL_REG = txFifoCtrl;
 306:.\Generated_Source\PSoC4/I2C.c **** }
 307:.\Generated_Source\PSoC4/I2C.c **** 
 308:.\Generated_Source\PSoC4/I2C.c **** 
 309:.\Generated_Source\PSoC4/I2C.c **** #if (I2C_SCB_IRQ_INTERNAL)
 310:.\Generated_Source\PSoC4/I2C.c ****     /*******************************************************************************
 311:.\Generated_Source\PSoC4/I2C.c ****     * Function Name: I2C_SetCustomInterruptHandler
 312:.\Generated_Source\PSoC4/I2C.c ****     ********************************************************************************
 313:.\Generated_Source\PSoC4/I2C.c ****     *
 314:.\Generated_Source\PSoC4/I2C.c ****     * Summary:
 315:.\Generated_Source\PSoC4/I2C.c ****     *  Registers a function to be called by the internal interrupt handler.
 316:.\Generated_Source\PSoC4/I2C.c ****     *  First the function that is registered is called, then the internal interrupt
 317:.\Generated_Source\PSoC4/I2C.c ****     *  handler performs any operation such as software buffer management functions
 318:.\Generated_Source\PSoC4/I2C.c ****     *  before the interrupt returns.  It is the user's responsibility not to break
 319:.\Generated_Source\PSoC4/I2C.c ****     *  the software buffer operations. Only one custom handler is supported, which
 320:.\Generated_Source\PSoC4/I2C.c ****     *  is the function provided by the most recent call.
 321:.\Generated_Source\PSoC4/I2C.c ****     *  At the initialization time no custom handler is registered.
 322:.\Generated_Source\PSoC4/I2C.c ****     *
 323:.\Generated_Source\PSoC4/I2C.c ****     * Parameters:
 324:.\Generated_Source\PSoC4/I2C.c ****     *  func: Pointer to the function to register.
 325:.\Generated_Source\PSoC4/I2C.c ****     *        The value NULL indicates to remove the current custom interrupt
 326:.\Generated_Source\PSoC4/I2C.c ****     *        handler.
 327:.\Generated_Source\PSoC4/I2C.c ****     *
 328:.\Generated_Source\PSoC4/I2C.c ****     * Return:
 329:.\Generated_Source\PSoC4/I2C.c ****     *  None
 330:.\Generated_Source\PSoC4/I2C.c ****     *
 331:.\Generated_Source\PSoC4/I2C.c ****     *******************************************************************************/
 332:.\Generated_Source\PSoC4/I2C.c ****     void I2C_SetCustomInterruptHandler(void (*func)(void))
 333:.\Generated_Source\PSoC4/I2C.c ****     {
ARM GAS  C:\Users\Vit\AppData\Local\Temp\ccxNl6wF.s 			page 8


 334:.\Generated_Source\PSoC4/I2C.c ****     #if !defined (CY_REMOVE_I2C_CUSTOM_INTR_HANDLER)
 335:.\Generated_Source\PSoC4/I2C.c ****         I2C_customIntrHandler = func; /* Register interrupt handler */
 336:.\Generated_Source\PSoC4/I2C.c ****     #else
 337:.\Generated_Source\PSoC4/I2C.c ****         if (NULL != func)
 338:.\Generated_Source\PSoC4/I2C.c ****         {
 339:.\Generated_Source\PSoC4/I2C.c ****             /* Suppress compiler warning */
 340:.\Generated_Source\PSoC4/I2C.c ****         }
 341:.\Generated_Source\PSoC4/I2C.c ****     #endif /* !defined (CY_REMOVE_I2C_CUSTOM_INTR_HANDLER) */
 342:.\Generated_Source\PSoC4/I2C.c ****     }
 343:.\Generated_Source\PSoC4/I2C.c **** #endif /* (I2C_SCB_IRQ_INTERNAL) */
 344:.\Generated_Source\PSoC4/I2C.c **** 
 345:.\Generated_Source\PSoC4/I2C.c **** 
 346:.\Generated_Source\PSoC4/I2C.c **** /*******************************************************************************
 347:.\Generated_Source\PSoC4/I2C.c **** * Function Name: I2C_ScbModeEnableIntr
 348:.\Generated_Source\PSoC4/I2C.c **** ********************************************************************************
 349:.\Generated_Source\PSoC4/I2C.c **** *
 350:.\Generated_Source\PSoC4/I2C.c **** * Summary:
 351:.\Generated_Source\PSoC4/I2C.c **** *  Enables an interrupt for a specific mode.
 352:.\Generated_Source\PSoC4/I2C.c **** *
 353:.\Generated_Source\PSoC4/I2C.c **** * Parameters:
 354:.\Generated_Source\PSoC4/I2C.c **** *  None
 355:.\Generated_Source\PSoC4/I2C.c **** *
 356:.\Generated_Source\PSoC4/I2C.c **** * Return:
 357:.\Generated_Source\PSoC4/I2C.c **** *  None
 358:.\Generated_Source\PSoC4/I2C.c **** *
 359:.\Generated_Source\PSoC4/I2C.c **** *******************************************************************************/
 360:.\Generated_Source\PSoC4/I2C.c **** static void I2C_ScbEnableIntr(void)
 361:.\Generated_Source\PSoC4/I2C.c **** {
 362:.\Generated_Source\PSoC4/I2C.c **** #if (I2C_SCB_IRQ_INTERNAL)
 363:.\Generated_Source\PSoC4/I2C.c ****     /* Enable interrupt in NVIC */
 364:.\Generated_Source\PSoC4/I2C.c ****     #if (I2C_SCB_MODE_UNCONFIG_CONST_CFG)
 365:.\Generated_Source\PSoC4/I2C.c ****         if (0u != I2C_scbEnableIntr)
 366:.\Generated_Source\PSoC4/I2C.c ****         {
 367:.\Generated_Source\PSoC4/I2C.c ****             I2C_EnableInt();
 368:.\Generated_Source\PSoC4/I2C.c ****         }
 369:.\Generated_Source\PSoC4/I2C.c **** 
 370:.\Generated_Source\PSoC4/I2C.c ****     #else
 371:.\Generated_Source\PSoC4/I2C.c ****         I2C_EnableInt();
  66              		.loc 1 371 0
  67 000e 0B20     		mov	r0, #11
  68 0010 FFF7FEFF 		bl	CyIntEnable
  69              	.LVL1:
  70              	.LBE11:
  71              	.LBE10:
 167:.\Generated_Source\PSoC4/I2C.c **** 
  72              		.loc 1 167 0
  73              		@ sp needed
  74 0014 08BD     		pop	{r3, pc}
  75              	.L4:
  76 0016 C046     		.align	2
  77              	.L3:
  78 0018 00000740 		.word	1074200576
  79              		.cfi_endproc
  80              	.LFE1:
  81              		.size	I2C_Enable, .-I2C_Enable
  82              		.section	.text.I2C_Start,"ax",%progbits
  83              		.align	1
ARM GAS  C:\Users\Vit\AppData\Local\Temp\ccxNl6wF.s 			page 9


  84              		.global	I2C_Start
  85              		.code	16
  86              		.thumb_func
  87              		.type	I2C_Start, %function
  88              	I2C_Start:
  89              	.LFB2:
 193:.\Generated_Source\PSoC4/I2C.c ****     if (0u == I2C_initVar)
  90              		.loc 1 193 0
  91              		.cfi_startproc
  92 0000 10B5     		push	{r4, lr}
  93              		.cfi_def_cfa_offset 8
  94              		.cfi_offset 4, -8
  95              		.cfi_offset 14, -4
 194:.\Generated_Source\PSoC4/I2C.c ****     {
  96              		.loc 1 194 0
  97 0002 054C     		ldr	r4, .L8
  98 0004 2378     		ldrb	r3, [r4]
  99 0006 002B     		cmp	r3, #0
 100 0008 03D1     		bne	.L6
 101              	.LBB12:
 102              	.LBB13:
 115:.\Generated_Source\PSoC4/I2C.c **** 
 103              		.loc 1 115 0
 104 000a FFF7FEFF 		bl	I2C_I2CInit
 105              	.LVL2:
 106              	.LBE13:
 107              	.LBE12:
 197:.\Generated_Source\PSoC4/I2C.c ****     }
 108              		.loc 1 197 0
 109 000e 0123     		mov	r3, #1
 110 0010 2370     		strb	r3, [r4]
 111              	.L6:
 200:.\Generated_Source\PSoC4/I2C.c **** }
 112              		.loc 1 200 0
 113 0012 FFF7FEFF 		bl	I2C_Enable
 114              	.LVL3:
 201:.\Generated_Source\PSoC4/I2C.c **** 
 115              		.loc 1 201 0
 116              		@ sp needed
 117 0016 10BD     		pop	{r4, pc}
 118              	.L9:
 119              		.align	2
 120              	.L8:
 121 0018 00000000 		.word	.LANCHOR0
 122              		.cfi_endproc
 123              	.LFE2:
 124              		.size	I2C_Start, .-I2C_Start
 125              		.section	.text.I2C_Stop,"ax",%progbits
 126              		.align	1
 127              		.global	I2C_Stop
 128              		.code	16
 129              		.thumb_func
 130              		.type	I2C_Stop, %function
 131              	I2C_Stop:
 132              	.LFB3:
 222:.\Generated_Source\PSoC4/I2C.c **** #if (I2C_SCB_IRQ_INTERNAL)
 133              		.loc 1 222 0
ARM GAS  C:\Users\Vit\AppData\Local\Temp\ccxNl6wF.s 			page 10


 134              		.cfi_startproc
 135 0000 08B5     		push	{r3, lr}
 136              		.cfi_def_cfa_offset 8
 137              		.cfi_offset 3, -8
 138              		.cfi_offset 14, -4
 224:.\Generated_Source\PSoC4/I2C.c **** #endif /* (I2C_SCB_IRQ_INTERNAL) */
 139              		.loc 1 224 0
 140 0002 0B20     		mov	r0, #11
 141 0004 FFF7FEFF 		bl	CyIntDisable
 142              	.LVL4:
 143              	.LBB14:
 144              	.LBB15:
 372:.\Generated_Source\PSoC4/I2C.c **** 
 373:.\Generated_Source\PSoC4/I2C.c ****     #endif /* (I2C_SCB_MODE_UNCONFIG_CONST_CFG) */
 374:.\Generated_Source\PSoC4/I2C.c **** #endif /* (I2C_SCB_IRQ_INTERNAL) */
 375:.\Generated_Source\PSoC4/I2C.c **** }
 376:.\Generated_Source\PSoC4/I2C.c **** 
 377:.\Generated_Source\PSoC4/I2C.c **** 
 378:.\Generated_Source\PSoC4/I2C.c **** /*******************************************************************************
 379:.\Generated_Source\PSoC4/I2C.c **** * Function Name: I2C_ScbModePostEnable
 380:.\Generated_Source\PSoC4/I2C.c **** ********************************************************************************
 381:.\Generated_Source\PSoC4/I2C.c **** *
 382:.\Generated_Source\PSoC4/I2C.c **** * Summary:
 383:.\Generated_Source\PSoC4/I2C.c **** *  Calls the PostEnable function for a specific operation mode.
 384:.\Generated_Source\PSoC4/I2C.c **** *
 385:.\Generated_Source\PSoC4/I2C.c **** * Parameters:
 386:.\Generated_Source\PSoC4/I2C.c **** *  None
 387:.\Generated_Source\PSoC4/I2C.c **** *
 388:.\Generated_Source\PSoC4/I2C.c **** * Return:
 389:.\Generated_Source\PSoC4/I2C.c **** *  None
 390:.\Generated_Source\PSoC4/I2C.c **** *
 391:.\Generated_Source\PSoC4/I2C.c **** *******************************************************************************/
 392:.\Generated_Source\PSoC4/I2C.c **** static void I2C_ScbModePostEnable(void)
 393:.\Generated_Source\PSoC4/I2C.c **** {
 394:.\Generated_Source\PSoC4/I2C.c **** #if (I2C_SCB_MODE_UNCONFIG_CONST_CFG)
 395:.\Generated_Source\PSoC4/I2C.c **** #if (!I2C_CY_SCBIP_V1)
 396:.\Generated_Source\PSoC4/I2C.c ****     if (I2C_SCB_MODE_SPI_RUNTM_CFG)
 397:.\Generated_Source\PSoC4/I2C.c ****     {
 398:.\Generated_Source\PSoC4/I2C.c ****         I2C_SpiPostEnable();
 399:.\Generated_Source\PSoC4/I2C.c ****     }
 400:.\Generated_Source\PSoC4/I2C.c ****     else if (I2C_SCB_MODE_UART_RUNTM_CFG)
 401:.\Generated_Source\PSoC4/I2C.c ****     {
 402:.\Generated_Source\PSoC4/I2C.c ****         I2C_UartPostEnable();
 403:.\Generated_Source\PSoC4/I2C.c ****     }
 404:.\Generated_Source\PSoC4/I2C.c ****     else
 405:.\Generated_Source\PSoC4/I2C.c ****     {
 406:.\Generated_Source\PSoC4/I2C.c ****         /* Unknown mode: do nothing */
 407:.\Generated_Source\PSoC4/I2C.c ****     }
 408:.\Generated_Source\PSoC4/I2C.c **** #endif /* (!I2C_CY_SCBIP_V1) */
 409:.\Generated_Source\PSoC4/I2C.c **** 
 410:.\Generated_Source\PSoC4/I2C.c **** #elif (I2C_SCB_MODE_SPI_CONST_CFG)
 411:.\Generated_Source\PSoC4/I2C.c ****     I2C_SpiPostEnable();
 412:.\Generated_Source\PSoC4/I2C.c **** 
 413:.\Generated_Source\PSoC4/I2C.c **** #elif (I2C_SCB_MODE_UART_CONST_CFG)
 414:.\Generated_Source\PSoC4/I2C.c ****     I2C_UartPostEnable();
 415:.\Generated_Source\PSoC4/I2C.c **** 
 416:.\Generated_Source\PSoC4/I2C.c **** #else
ARM GAS  C:\Users\Vit\AppData\Local\Temp\ccxNl6wF.s 			page 11


 417:.\Generated_Source\PSoC4/I2C.c ****     /* Unknown mode: do nothing */
 418:.\Generated_Source\PSoC4/I2C.c **** #endif /* (I2C_SCB_MODE_UNCONFIG_CONST_CFG) */
 419:.\Generated_Source\PSoC4/I2C.c **** }
 420:.\Generated_Source\PSoC4/I2C.c **** 
 421:.\Generated_Source\PSoC4/I2C.c **** 
 422:.\Generated_Source\PSoC4/I2C.c **** /*******************************************************************************
 423:.\Generated_Source\PSoC4/I2C.c **** * Function Name: I2C_ScbModeStop
 424:.\Generated_Source\PSoC4/I2C.c **** ********************************************************************************
 425:.\Generated_Source\PSoC4/I2C.c **** *
 426:.\Generated_Source\PSoC4/I2C.c **** * Summary:
 427:.\Generated_Source\PSoC4/I2C.c **** *  Calls the Stop function for a specific operation mode.
 428:.\Generated_Source\PSoC4/I2C.c **** *
 429:.\Generated_Source\PSoC4/I2C.c **** * Parameters:
 430:.\Generated_Source\PSoC4/I2C.c **** *  None
 431:.\Generated_Source\PSoC4/I2C.c **** *
 432:.\Generated_Source\PSoC4/I2C.c **** * Return:
 433:.\Generated_Source\PSoC4/I2C.c **** *  None
 434:.\Generated_Source\PSoC4/I2C.c **** *
 435:.\Generated_Source\PSoC4/I2C.c **** *******************************************************************************/
 436:.\Generated_Source\PSoC4/I2C.c **** static void I2C_ScbModeStop(void)
 437:.\Generated_Source\PSoC4/I2C.c **** {
 438:.\Generated_Source\PSoC4/I2C.c **** #if (I2C_SCB_MODE_UNCONFIG_CONST_CFG)
 439:.\Generated_Source\PSoC4/I2C.c ****     if (I2C_SCB_MODE_I2C_RUNTM_CFG)
 440:.\Generated_Source\PSoC4/I2C.c ****     {
 441:.\Generated_Source\PSoC4/I2C.c ****         I2C_I2CStop();
 442:.\Generated_Source\PSoC4/I2C.c ****     }
 443:.\Generated_Source\PSoC4/I2C.c ****     else if (I2C_SCB_MODE_EZI2C_RUNTM_CFG)
 444:.\Generated_Source\PSoC4/I2C.c ****     {
 445:.\Generated_Source\PSoC4/I2C.c ****         I2C_EzI2CStop();
 446:.\Generated_Source\PSoC4/I2C.c ****     }
 447:.\Generated_Source\PSoC4/I2C.c **** #if (!I2C_CY_SCBIP_V1)
 448:.\Generated_Source\PSoC4/I2C.c ****     else if (I2C_SCB_MODE_SPI_RUNTM_CFG)
 449:.\Generated_Source\PSoC4/I2C.c ****     {
 450:.\Generated_Source\PSoC4/I2C.c ****         I2C_SpiStop();
 451:.\Generated_Source\PSoC4/I2C.c ****     }
 452:.\Generated_Source\PSoC4/I2C.c ****     else if (I2C_SCB_MODE_UART_RUNTM_CFG)
 453:.\Generated_Source\PSoC4/I2C.c ****     {
 454:.\Generated_Source\PSoC4/I2C.c ****         I2C_UartStop();
 455:.\Generated_Source\PSoC4/I2C.c ****     }
 456:.\Generated_Source\PSoC4/I2C.c **** #endif /* (!I2C_CY_SCBIP_V1) */
 457:.\Generated_Source\PSoC4/I2C.c ****     else
 458:.\Generated_Source\PSoC4/I2C.c ****     {
 459:.\Generated_Source\PSoC4/I2C.c ****         /* Unknown mode: do nothing */
 460:.\Generated_Source\PSoC4/I2C.c ****     }
 461:.\Generated_Source\PSoC4/I2C.c **** #elif (I2C_SCB_MODE_I2C_CONST_CFG)
 462:.\Generated_Source\PSoC4/I2C.c ****     I2C_I2CStop();
 145              		.loc 1 462 0
 146 0008 FFF7FEFF 		bl	I2C_I2CStop
 147              	.LVL5:
 148              	.LBE15:
 149              	.LBE14:
 231:.\Generated_Source\PSoC4/I2C.c **** 
 150              		.loc 1 231 0
 151 000c 054A     		ldr	r2, .L11
 244:.\Generated_Source\PSoC4/I2C.c **** #endif /* (I2C_SCB_IRQ_INTERNAL) */
 152              		.loc 1 244 0
 153 000e 0B20     		mov	r0, #11
ARM GAS  C:\Users\Vit\AppData\Local\Temp\ccxNl6wF.s 			page 12


 231:.\Generated_Source\PSoC4/I2C.c **** 
 154              		.loc 1 231 0
 155 0010 1368     		ldr	r3, [r2]
 246:.\Generated_Source\PSoC4/I2C.c **** 
 156              		.loc 1 246 0
 157              		@ sp needed
 231:.\Generated_Source\PSoC4/I2C.c **** 
 158              		.loc 1 231 0
 159 0012 5B00     		lsl	r3, r3, #1
 160 0014 5B08     		lsr	r3, r3, #1
 161 0016 1360     		str	r3, [r2]
 241:.\Generated_Source\PSoC4/I2C.c **** 
 162              		.loc 1 241 0
 163 0018 0022     		mov	r2, #0
 164 001a 034B     		ldr	r3, .L11+4
 165 001c 1A60     		str	r2, [r3]
 244:.\Generated_Source\PSoC4/I2C.c **** #endif /* (I2C_SCB_IRQ_INTERNAL) */
 166              		.loc 1 244 0
 167 001e FFF7FEFF 		bl	CyIntClearPending
 168              	.LVL6:
 246:.\Generated_Source\PSoC4/I2C.c **** 
 169              		.loc 1 246 0
 170 0022 08BD     		pop	{r3, pc}
 171              	.L12:
 172              		.align	2
 173              	.L11:
 174 0024 00000740 		.word	1074200576
 175 0028 880F0740 		.word	1074204552
 176              		.cfi_endproc
 177              	.LFE3:
 178              		.size	I2C_Stop, .-I2C_Stop
 179              		.section	.text.I2C_SetRxFifoLevel,"ax",%progbits
 180              		.align	1
 181              		.global	I2C_SetRxFifoLevel
 182              		.code	16
 183              		.thumb_func
 184              		.type	I2C_SetRxFifoLevel, %function
 185              	I2C_SetRxFifoLevel:
 186              	.LFB4:
 267:.\Generated_Source\PSoC4/I2C.c ****     uint32 rxFifoCtrl;
 187              		.loc 1 267 0
 188              		.cfi_startproc
 189              	.LVL7:
 272:.\Generated_Source\PSoC4/I2C.c ****     rxFifoCtrl |= ((uint32) (I2C_RX_FIFO_CTRL_TRIGGER_LEVEL_MASK & level));
 190              		.loc 1 272 0
 191 0000 0722     		mov	r2, #7
 270:.\Generated_Source\PSoC4/I2C.c **** 
 192              		.loc 1 270 0
 193 0002 0349     		ldr	r1, .L14
 273:.\Generated_Source\PSoC4/I2C.c **** 
 194              		.loc 1 273 0
 195 0004 1040     		and	r0, r2
 196              	.LVL8:
 270:.\Generated_Source\PSoC4/I2C.c **** 
 197              		.loc 1 270 0
 198 0006 0B68     		ldr	r3, [r1]
 199              	.LVL9:
ARM GAS  C:\Users\Vit\AppData\Local\Temp\ccxNl6wF.s 			page 13


 276:.\Generated_Source\PSoC4/I2C.c **** 
 200              		.loc 1 276 0
 201              		@ sp needed
 272:.\Generated_Source\PSoC4/I2C.c ****     rxFifoCtrl |= ((uint32) (I2C_RX_FIFO_CTRL_TRIGGER_LEVEL_MASK & level));
 202              		.loc 1 272 0
 203 0008 9343     		bic	r3, r2
 204              	.LVL10:
 273:.\Generated_Source\PSoC4/I2C.c **** 
 205              		.loc 1 273 0
 206 000a 1843     		orr	r0, r3
 207              	.LVL11:
 275:.\Generated_Source\PSoC4/I2C.c **** }
 208              		.loc 1 275 0
 209 000c 0860     		str	r0, [r1]
 276:.\Generated_Source\PSoC4/I2C.c **** 
 210              		.loc 1 276 0
 211 000e 7047     		bx	lr
 212              	.L15:
 213              		.align	2
 214              	.L14:
 215 0010 04030740 		.word	1074201348
 216              		.cfi_endproc
 217              	.LFE4:
 218              		.size	I2C_SetRxFifoLevel, .-I2C_SetRxFifoLevel
 219              		.section	.text.I2C_SetTxFifoLevel,"ax",%progbits
 220              		.align	1
 221              		.global	I2C_SetTxFifoLevel
 222              		.code	16
 223              		.thumb_func
 224              		.type	I2C_SetTxFifoLevel, %function
 225              	I2C_SetTxFifoLevel:
 226              	.LFB5:
 297:.\Generated_Source\PSoC4/I2C.c ****     uint32 txFifoCtrl;
 227              		.loc 1 297 0
 228              		.cfi_startproc
 229              	.LVL12:
 302:.\Generated_Source\PSoC4/I2C.c ****     txFifoCtrl |= ((uint32) (I2C_TX_FIFO_CTRL_TRIGGER_LEVEL_MASK & level));
 230              		.loc 1 302 0
 231 0000 0722     		mov	r2, #7
 300:.\Generated_Source\PSoC4/I2C.c **** 
 232              		.loc 1 300 0
 233 0002 0349     		ldr	r1, .L17
 303:.\Generated_Source\PSoC4/I2C.c **** 
 234              		.loc 1 303 0
 235 0004 1040     		and	r0, r2
 236              	.LVL13:
 300:.\Generated_Source\PSoC4/I2C.c **** 
 237              		.loc 1 300 0
 238 0006 0B68     		ldr	r3, [r1]
 239              	.LVL14:
 306:.\Generated_Source\PSoC4/I2C.c **** 
 240              		.loc 1 306 0
 241              		@ sp needed
 302:.\Generated_Source\PSoC4/I2C.c ****     txFifoCtrl |= ((uint32) (I2C_TX_FIFO_CTRL_TRIGGER_LEVEL_MASK & level));
 242              		.loc 1 302 0
 243 0008 9343     		bic	r3, r2
 244              	.LVL15:
ARM GAS  C:\Users\Vit\AppData\Local\Temp\ccxNl6wF.s 			page 14


 303:.\Generated_Source\PSoC4/I2C.c **** 
 245              		.loc 1 303 0
 246 000a 1843     		orr	r0, r3
 247              	.LVL16:
 305:.\Generated_Source\PSoC4/I2C.c **** }
 248              		.loc 1 305 0
 249 000c 0860     		str	r0, [r1]
 306:.\Generated_Source\PSoC4/I2C.c **** 
 250              		.loc 1 306 0
 251 000e 7047     		bx	lr
 252              	.L18:
 253              		.align	2
 254              	.L17:
 255 0010 04020740 		.word	1074201092
 256              		.cfi_endproc
 257              	.LFE5:
 258              		.size	I2C_SetTxFifoLevel, .-I2C_SetTxFifoLevel
 259              		.section	.text.I2C_SetCustomInterruptHandler,"ax",%progbits
 260              		.align	1
 261              		.global	I2C_SetCustomInterruptHandler
 262              		.code	16
 263              		.thumb_func
 264              		.type	I2C_SetCustomInterruptHandler, %function
 265              	I2C_SetCustomInterruptHandler:
 266              	.LFB6:
 333:.\Generated_Source\PSoC4/I2C.c ****     #if !defined (CY_REMOVE_I2C_CUSTOM_INTR_HANDLER)
 267              		.loc 1 333 0
 268              		.cfi_startproc
 269              	.LVL17:
 335:.\Generated_Source\PSoC4/I2C.c ****     #else
 270              		.loc 1 335 0
 271 0000 014B     		ldr	r3, .L20
 342:.\Generated_Source\PSoC4/I2C.c **** #endif /* (I2C_SCB_IRQ_INTERNAL) */
 272              		.loc 1 342 0
 273              		@ sp needed
 335:.\Generated_Source\PSoC4/I2C.c ****     #else
 274              		.loc 1 335 0
 275 0002 5860     		str	r0, [r3, #4]
 342:.\Generated_Source\PSoC4/I2C.c **** #endif /* (I2C_SCB_IRQ_INTERNAL) */
 276              		.loc 1 342 0
 277 0004 7047     		bx	lr
 278              	.L21:
 279 0006 C046     		.align	2
 280              	.L20:
 281 0008 00000000 		.word	.LANCHOR0
 282              		.cfi_endproc
 283              	.LFE6:
 284              		.size	I2C_SetCustomInterruptHandler, .-I2C_SetCustomInterruptHandler
 285              		.section	.text.I2C_I2CSlaveNackGeneration,"ax",%progbits
 286              		.align	1
 287              		.global	I2C_I2CSlaveNackGeneration
 288              		.code	16
 289              		.thumb_func
 290              		.type	I2C_I2CSlaveNackGeneration, %function
 291              	I2C_I2CSlaveNackGeneration:
 292              	.LFB10:
 463:.\Generated_Source\PSoC4/I2C.c **** 
ARM GAS  C:\Users\Vit\AppData\Local\Temp\ccxNl6wF.s 			page 15


 464:.\Generated_Source\PSoC4/I2C.c **** #elif (I2C_SCB_MODE_EZI2C_CONST_CFG)
 465:.\Generated_Source\PSoC4/I2C.c ****     I2C_EzI2CStop();
 466:.\Generated_Source\PSoC4/I2C.c **** 
 467:.\Generated_Source\PSoC4/I2C.c **** #elif (I2C_SCB_MODE_SPI_CONST_CFG)
 468:.\Generated_Source\PSoC4/I2C.c ****     I2C_SpiStop();
 469:.\Generated_Source\PSoC4/I2C.c **** 
 470:.\Generated_Source\PSoC4/I2C.c **** #elif (I2C_SCB_MODE_UART_CONST_CFG)
 471:.\Generated_Source\PSoC4/I2C.c ****     I2C_UartStop();
 472:.\Generated_Source\PSoC4/I2C.c **** 
 473:.\Generated_Source\PSoC4/I2C.c **** #else
 474:.\Generated_Source\PSoC4/I2C.c ****     /* Unknown mode: do nothing */
 475:.\Generated_Source\PSoC4/I2C.c **** #endif /* (I2C_SCB_MODE_UNCONFIG_CONST_CFG) */
 476:.\Generated_Source\PSoC4/I2C.c **** }
 477:.\Generated_Source\PSoC4/I2C.c **** 
 478:.\Generated_Source\PSoC4/I2C.c **** 
 479:.\Generated_Source\PSoC4/I2C.c **** #if (I2C_SCB_MODE_UNCONFIG_CONST_CFG)
 480:.\Generated_Source\PSoC4/I2C.c ****     /*******************************************************************************
 481:.\Generated_Source\PSoC4/I2C.c ****     * Function Name: I2C_SetPins
 482:.\Generated_Source\PSoC4/I2C.c ****     ********************************************************************************
 483:.\Generated_Source\PSoC4/I2C.c ****     *
 484:.\Generated_Source\PSoC4/I2C.c ****     * Summary:
 485:.\Generated_Source\PSoC4/I2C.c ****     *  Sets the pins settings accordingly to the selected operation mode.
 486:.\Generated_Source\PSoC4/I2C.c ****     *  Only available in the Unconfigured operation mode. The mode specific
 487:.\Generated_Source\PSoC4/I2C.c ****     *  initialization function calls it.
 488:.\Generated_Source\PSoC4/I2C.c ****     *  Pins configuration is set by PSoC Creator when a specific mode of operation
 489:.\Generated_Source\PSoC4/I2C.c ****     *  is selected in design time.
 490:.\Generated_Source\PSoC4/I2C.c ****     *
 491:.\Generated_Source\PSoC4/I2C.c ****     * Parameters:
 492:.\Generated_Source\PSoC4/I2C.c ****     *  mode:      Mode of SCB operation.
 493:.\Generated_Source\PSoC4/I2C.c ****     *  subMode:   Sub-mode of SCB operation. It is only required for SPI and UART
 494:.\Generated_Source\PSoC4/I2C.c ****     *             modes.
 495:.\Generated_Source\PSoC4/I2C.c ****     *  uartEnableMask: enables TX or RX direction and RTS and CTS signals.
 496:.\Generated_Source\PSoC4/I2C.c ****     *
 497:.\Generated_Source\PSoC4/I2C.c ****     * Return:
 498:.\Generated_Source\PSoC4/I2C.c ****     *  None
 499:.\Generated_Source\PSoC4/I2C.c ****     *
 500:.\Generated_Source\PSoC4/I2C.c ****     *******************************************************************************/
 501:.\Generated_Source\PSoC4/I2C.c ****     void I2C_SetPins(uint32 mode, uint32 subMode, uint32 uartEnableMask)
 502:.\Generated_Source\PSoC4/I2C.c ****     {
 503:.\Generated_Source\PSoC4/I2C.c ****         uint32 hsiomSel [I2C_SCB_PINS_NUMBER];
 504:.\Generated_Source\PSoC4/I2C.c ****         uint32 pinsDm   [I2C_SCB_PINS_NUMBER];
 505:.\Generated_Source\PSoC4/I2C.c **** 
 506:.\Generated_Source\PSoC4/I2C.c ****     #if (!I2C_CY_SCBIP_V1)
 507:.\Generated_Source\PSoC4/I2C.c ****         uint32 pinsInBuf = 0u;
 508:.\Generated_Source\PSoC4/I2C.c ****     #endif /* (!I2C_CY_SCBIP_V1) */
 509:.\Generated_Source\PSoC4/I2C.c **** 
 510:.\Generated_Source\PSoC4/I2C.c ****         uint32 i;
 511:.\Generated_Source\PSoC4/I2C.c **** 
 512:.\Generated_Source\PSoC4/I2C.c ****         /* Set default HSIOM to GPIO and Drive Mode to Analog Hi-Z */
 513:.\Generated_Source\PSoC4/I2C.c ****         for (i = 0u; i < I2C_SCB_PINS_NUMBER; i++)
 514:.\Generated_Source\PSoC4/I2C.c ****         {
 515:.\Generated_Source\PSoC4/I2C.c ****             hsiomSel[i]  = I2C_HSIOM_DEF_SEL;
 516:.\Generated_Source\PSoC4/I2C.c ****             pinsDm[i]    = I2C_PIN_DM_ALG_HIZ;
 517:.\Generated_Source\PSoC4/I2C.c ****         }
 518:.\Generated_Source\PSoC4/I2C.c **** 
 519:.\Generated_Source\PSoC4/I2C.c ****         if ((I2C_SCB_MODE_I2C   == mode) ||
 520:.\Generated_Source\PSoC4/I2C.c ****            (I2C_SCB_MODE_EZI2C == mode))
ARM GAS  C:\Users\Vit\AppData\Local\Temp\ccxNl6wF.s 			page 16


 521:.\Generated_Source\PSoC4/I2C.c ****         {
 522:.\Generated_Source\PSoC4/I2C.c ****             hsiomSel[I2C_RX_SCL_MOSI_PIN_INDEX] = I2C_HSIOM_I2C_SEL;
 523:.\Generated_Source\PSoC4/I2C.c ****             hsiomSel[I2C_TX_SDA_MISO_PIN_INDEX] = I2C_HSIOM_I2C_SEL;
 524:.\Generated_Source\PSoC4/I2C.c **** 
 525:.\Generated_Source\PSoC4/I2C.c ****             pinsDm[I2C_RX_SCL_MOSI_PIN_INDEX] = I2C_PIN_DM_OD_LO;
 526:.\Generated_Source\PSoC4/I2C.c ****             pinsDm[I2C_TX_SDA_MISO_PIN_INDEX] = I2C_PIN_DM_OD_LO;
 527:.\Generated_Source\PSoC4/I2C.c ****         }
 528:.\Generated_Source\PSoC4/I2C.c ****     #if (!I2C_CY_SCBIP_V1)
 529:.\Generated_Source\PSoC4/I2C.c ****         else if (I2C_SCB_MODE_SPI == mode)
 530:.\Generated_Source\PSoC4/I2C.c ****         {
 531:.\Generated_Source\PSoC4/I2C.c ****             hsiomSel[I2C_RX_SCL_MOSI_PIN_INDEX] = I2C_HSIOM_SPI_SEL;
 532:.\Generated_Source\PSoC4/I2C.c ****             hsiomSel[I2C_TX_SDA_MISO_PIN_INDEX] = I2C_HSIOM_SPI_SEL;
 533:.\Generated_Source\PSoC4/I2C.c ****             hsiomSel[I2C_SCLK_PIN_INDEX] = I2C_HSIOM_SPI_SEL;
 534:.\Generated_Source\PSoC4/I2C.c **** 
 535:.\Generated_Source\PSoC4/I2C.c ****             if (I2C_SPI_SLAVE == subMode)
 536:.\Generated_Source\PSoC4/I2C.c ****             {
 537:.\Generated_Source\PSoC4/I2C.c ****                 /* Slave */
 538:.\Generated_Source\PSoC4/I2C.c ****                 pinsDm[I2C_RX_SCL_MOSI_PIN_INDEX] = I2C_PIN_DM_DIG_HIZ;
 539:.\Generated_Source\PSoC4/I2C.c ****                 pinsDm[I2C_TX_SDA_MISO_PIN_INDEX] = I2C_PIN_DM_STRONG;
 540:.\Generated_Source\PSoC4/I2C.c ****                 pinsDm[I2C_SCLK_PIN_INDEX] = I2C_PIN_DM_DIG_HIZ;
 541:.\Generated_Source\PSoC4/I2C.c **** 
 542:.\Generated_Source\PSoC4/I2C.c ****             #if (I2C_SS0_PIN)
 543:.\Generated_Source\PSoC4/I2C.c ****                 /* Only SS0 is valid choice for Slave */
 544:.\Generated_Source\PSoC4/I2C.c ****                 hsiomSel[I2C_SS0_PIN_INDEX] = I2C_HSIOM_SPI_SEL;
 545:.\Generated_Source\PSoC4/I2C.c ****                 pinsDm  [I2C_SS0_PIN_INDEX] = I2C_PIN_DM_DIG_HIZ;
 546:.\Generated_Source\PSoC4/I2C.c ****             #endif /* (I2C_SS0_PIN) */
 547:.\Generated_Source\PSoC4/I2C.c **** 
 548:.\Generated_Source\PSoC4/I2C.c ****             #if (I2C_TX_SDA_MISO_PIN)
 549:.\Generated_Source\PSoC4/I2C.c ****                 /* Disable input buffer */
 550:.\Generated_Source\PSoC4/I2C.c ****                  pinsInBuf |= I2C_TX_SDA_MISO_PIN_MASK;
 551:.\Generated_Source\PSoC4/I2C.c ****             #endif /* (I2C_TX_SDA_MISO_PIN) */
 552:.\Generated_Source\PSoC4/I2C.c ****             }
 553:.\Generated_Source\PSoC4/I2C.c ****             else /* (Master) */
 554:.\Generated_Source\PSoC4/I2C.c ****             {
 555:.\Generated_Source\PSoC4/I2C.c ****                 pinsDm[I2C_RX_SCL_MOSI_PIN_INDEX] = I2C_PIN_DM_STRONG;
 556:.\Generated_Source\PSoC4/I2C.c ****                 pinsDm[I2C_TX_SDA_MISO_PIN_INDEX] = I2C_PIN_DM_DIG_HIZ;
 557:.\Generated_Source\PSoC4/I2C.c ****                 pinsDm[I2C_SCLK_PIN_INDEX] = I2C_PIN_DM_STRONG;
 558:.\Generated_Source\PSoC4/I2C.c **** 
 559:.\Generated_Source\PSoC4/I2C.c ****             #if (I2C_SS0_PIN)
 560:.\Generated_Source\PSoC4/I2C.c ****                 hsiomSel [I2C_SS0_PIN_INDEX] = I2C_HSIOM_SPI_SEL;
 561:.\Generated_Source\PSoC4/I2C.c ****                 pinsDm   [I2C_SS0_PIN_INDEX] = I2C_PIN_DM_STRONG;
 562:.\Generated_Source\PSoC4/I2C.c ****                 pinsInBuf |= I2C_SS0_PIN_MASK;
 563:.\Generated_Source\PSoC4/I2C.c ****             #endif /* (I2C_SS0_PIN) */
 564:.\Generated_Source\PSoC4/I2C.c **** 
 565:.\Generated_Source\PSoC4/I2C.c ****             #if (I2C_SS1_PIN)
 566:.\Generated_Source\PSoC4/I2C.c ****                 hsiomSel [I2C_SS1_PIN_INDEX] = I2C_HSIOM_SPI_SEL;
 567:.\Generated_Source\PSoC4/I2C.c ****                 pinsDm   [I2C_SS1_PIN_INDEX] = I2C_PIN_DM_STRONG;
 568:.\Generated_Source\PSoC4/I2C.c ****                 pinsInBuf |= I2C_SS1_PIN_MASK;
 569:.\Generated_Source\PSoC4/I2C.c ****             #endif /* (I2C_SS1_PIN) */
 570:.\Generated_Source\PSoC4/I2C.c **** 
 571:.\Generated_Source\PSoC4/I2C.c ****             #if (I2C_SS2_PIN)
 572:.\Generated_Source\PSoC4/I2C.c ****                 hsiomSel [I2C_SS2_PIN_INDEX] = I2C_HSIOM_SPI_SEL;
 573:.\Generated_Source\PSoC4/I2C.c ****                 pinsDm   [I2C_SS2_PIN_INDEX] = I2C_PIN_DM_STRONG;
 574:.\Generated_Source\PSoC4/I2C.c ****                 pinsInBuf |= I2C_SS2_PIN_MASK;
 575:.\Generated_Source\PSoC4/I2C.c ****             #endif /* (I2C_SS2_PIN) */
 576:.\Generated_Source\PSoC4/I2C.c **** 
 577:.\Generated_Source\PSoC4/I2C.c ****             #if (I2C_SS3_PIN)
ARM GAS  C:\Users\Vit\AppData\Local\Temp\ccxNl6wF.s 			page 17


 578:.\Generated_Source\PSoC4/I2C.c ****                 hsiomSel [I2C_SS3_PIN_INDEX] = I2C_HSIOM_SPI_SEL;
 579:.\Generated_Source\PSoC4/I2C.c ****                 pinsDm   [I2C_SS3_PIN_INDEX] = I2C_PIN_DM_STRONG;
 580:.\Generated_Source\PSoC4/I2C.c ****                 pinsInBuf |= I2C_SS3_PIN_MASK;
 581:.\Generated_Source\PSoC4/I2C.c ****             #endif /* (I2C_SS3_PIN) */
 582:.\Generated_Source\PSoC4/I2C.c **** 
 583:.\Generated_Source\PSoC4/I2C.c ****                 /* Disable input buffers */
 584:.\Generated_Source\PSoC4/I2C.c ****             #if (I2C_RX_SCL_MOSI_PIN)
 585:.\Generated_Source\PSoC4/I2C.c ****                 pinsInBuf |= I2C_RX_SCL_MOSI_PIN_MASK;
 586:.\Generated_Source\PSoC4/I2C.c ****             #endif /* (I2C_RX_SCL_MOSI_PIN) */
 587:.\Generated_Source\PSoC4/I2C.c **** 
 588:.\Generated_Source\PSoC4/I2C.c ****              #if (I2C_RX_WAKE_SCL_MOSI_PIN)
 589:.\Generated_Source\PSoC4/I2C.c ****                 pinsInBuf |= I2C_RX_WAKE_SCL_MOSI_PIN_MASK;
 590:.\Generated_Source\PSoC4/I2C.c ****             #endif /* (I2C_RX_WAKE_SCL_MOSI_PIN) */
 591:.\Generated_Source\PSoC4/I2C.c **** 
 592:.\Generated_Source\PSoC4/I2C.c ****             #if (I2C_SCLK_PIN)
 593:.\Generated_Source\PSoC4/I2C.c ****                 pinsInBuf |= I2C_SCLK_PIN_MASK;
 594:.\Generated_Source\PSoC4/I2C.c ****             #endif /* (I2C_SCLK_PIN) */
 595:.\Generated_Source\PSoC4/I2C.c ****             }
 596:.\Generated_Source\PSoC4/I2C.c ****         }
 597:.\Generated_Source\PSoC4/I2C.c ****         else /* UART */
 598:.\Generated_Source\PSoC4/I2C.c ****         {
 599:.\Generated_Source\PSoC4/I2C.c ****             if (I2C_UART_MODE_SMARTCARD == subMode)
 600:.\Generated_Source\PSoC4/I2C.c ****             {
 601:.\Generated_Source\PSoC4/I2C.c ****                 /* SmartCard */
 602:.\Generated_Source\PSoC4/I2C.c ****                 hsiomSel[I2C_TX_SDA_MISO_PIN_INDEX] = I2C_HSIOM_UART_SEL;
 603:.\Generated_Source\PSoC4/I2C.c ****                 pinsDm  [I2C_TX_SDA_MISO_PIN_INDEX] = I2C_PIN_DM_OD_LO;
 604:.\Generated_Source\PSoC4/I2C.c ****             }
 605:.\Generated_Source\PSoC4/I2C.c ****             else /* Standard or IrDA */
 606:.\Generated_Source\PSoC4/I2C.c ****             {
 607:.\Generated_Source\PSoC4/I2C.c ****                 if (0u != (I2C_UART_RX_PIN_ENABLE & uartEnableMask))
 608:.\Generated_Source\PSoC4/I2C.c ****                 {
 609:.\Generated_Source\PSoC4/I2C.c ****                     hsiomSel[I2C_RX_SCL_MOSI_PIN_INDEX] = I2C_HSIOM_UART_SEL;
 610:.\Generated_Source\PSoC4/I2C.c ****                     pinsDm  [I2C_RX_SCL_MOSI_PIN_INDEX] = I2C_PIN_DM_DIG_HIZ;
 611:.\Generated_Source\PSoC4/I2C.c ****                 }
 612:.\Generated_Source\PSoC4/I2C.c **** 
 613:.\Generated_Source\PSoC4/I2C.c ****                 if (0u != (I2C_UART_TX_PIN_ENABLE & uartEnableMask))
 614:.\Generated_Source\PSoC4/I2C.c ****                 {
 615:.\Generated_Source\PSoC4/I2C.c ****                     hsiomSel[I2C_TX_SDA_MISO_PIN_INDEX] = I2C_HSIOM_UART_SEL;
 616:.\Generated_Source\PSoC4/I2C.c ****                     pinsDm  [I2C_TX_SDA_MISO_PIN_INDEX] = I2C_PIN_DM_STRONG;
 617:.\Generated_Source\PSoC4/I2C.c **** 
 618:.\Generated_Source\PSoC4/I2C.c ****                 #if (I2C_TX_SDA_MISO_PIN)
 619:.\Generated_Source\PSoC4/I2C.c ****                      pinsInBuf |= I2C_TX_SDA_MISO_PIN_MASK;
 620:.\Generated_Source\PSoC4/I2C.c ****                 #endif /* (I2C_TX_SDA_MISO_PIN) */
 621:.\Generated_Source\PSoC4/I2C.c ****                 }
 622:.\Generated_Source\PSoC4/I2C.c **** 
 623:.\Generated_Source\PSoC4/I2C.c ****             #if !(I2C_CY_SCBIP_V0 || I2C_CY_SCBIP_V1)
 624:.\Generated_Source\PSoC4/I2C.c ****                 if (I2C_UART_MODE_STD == subMode)
 625:.\Generated_Source\PSoC4/I2C.c ****                 {
 626:.\Generated_Source\PSoC4/I2C.c ****                     if (0u != (I2C_UART_CTS_PIN_ENABLE & uartEnableMask))
 627:.\Generated_Source\PSoC4/I2C.c ****                     {
 628:.\Generated_Source\PSoC4/I2C.c ****                         /* CTS input is multiplexed with SCLK */
 629:.\Generated_Source\PSoC4/I2C.c ****                         hsiomSel[I2C_SCLK_PIN_INDEX] = I2C_HSIOM_UART_SEL;
 630:.\Generated_Source\PSoC4/I2C.c ****                         pinsDm  [I2C_SCLK_PIN_INDEX] = I2C_PIN_DM_DIG_HIZ;
 631:.\Generated_Source\PSoC4/I2C.c ****                     }
 632:.\Generated_Source\PSoC4/I2C.c **** 
 633:.\Generated_Source\PSoC4/I2C.c ****                     if (0u != (I2C_UART_RTS_PIN_ENABLE & uartEnableMask))
 634:.\Generated_Source\PSoC4/I2C.c ****                     {
ARM GAS  C:\Users\Vit\AppData\Local\Temp\ccxNl6wF.s 			page 18


 635:.\Generated_Source\PSoC4/I2C.c ****                         /* RTS output is multiplexed with SS0 */
 636:.\Generated_Source\PSoC4/I2C.c ****                         hsiomSel[I2C_SS0_PIN_INDEX] = I2C_HSIOM_UART_SEL;
 637:.\Generated_Source\PSoC4/I2C.c ****                         pinsDm  [I2C_SS0_PIN_INDEX] = I2C_PIN_DM_STRONG;
 638:.\Generated_Source\PSoC4/I2C.c **** 
 639:.\Generated_Source\PSoC4/I2C.c ****                     #if (I2C_SS0_PIN)
 640:.\Generated_Source\PSoC4/I2C.c ****                         /* Disable input buffer */
 641:.\Generated_Source\PSoC4/I2C.c ****                         pinsInBuf |= I2C_SS0_PIN_MASK;
 642:.\Generated_Source\PSoC4/I2C.c ****                     #endif /* (I2C_SS0_PIN) */
 643:.\Generated_Source\PSoC4/I2C.c ****                     }
 644:.\Generated_Source\PSoC4/I2C.c ****                 }
 645:.\Generated_Source\PSoC4/I2C.c ****             #endif /* !(I2C_CY_SCBIP_V0 || I2C_CY_SCBIP_V1) */
 646:.\Generated_Source\PSoC4/I2C.c ****             }
 647:.\Generated_Source\PSoC4/I2C.c ****         }
 648:.\Generated_Source\PSoC4/I2C.c ****     #endif /* (!I2C_CY_SCBIP_V1) */
 649:.\Generated_Source\PSoC4/I2C.c **** 
 650:.\Generated_Source\PSoC4/I2C.c ****     /* Configure pins: set HSIOM, DM and InputBufEnable */
 651:.\Generated_Source\PSoC4/I2C.c ****     /* Note: the DR register settings do not effect the pin output if HSIOM is other than GPIO */
 652:.\Generated_Source\PSoC4/I2C.c **** 
 653:.\Generated_Source\PSoC4/I2C.c ****     #if (I2C_RX_WAKE_SCL_MOSI_PIN)
 654:.\Generated_Source\PSoC4/I2C.c ****         I2C_SET_HSIOM_SEL(I2C_RX_WAKE_SCL_MOSI_HSIOM_REG,
 655:.\Generated_Source\PSoC4/I2C.c ****                                        I2C_RX_WAKE_SCL_MOSI_HSIOM_MASK,
 656:.\Generated_Source\PSoC4/I2C.c ****                                        I2C_RX_WAKE_SCL_MOSI_HSIOM_POS,
 657:.\Generated_Source\PSoC4/I2C.c ****                                        hsiomSel[I2C_RX_WAKE_SCL_MOSI_PIN_INDEX]);
 658:.\Generated_Source\PSoC4/I2C.c **** 
 659:.\Generated_Source\PSoC4/I2C.c ****         I2C_uart_rx_wake_i2c_scl_spi_mosi_SetDriveMode((uint8)
 660:.\Generated_Source\PSoC4/I2C.c ****                                                                pinsDm[I2C_RX_WAKE_SCL_MOSI_PIN_INDE
 661:.\Generated_Source\PSoC4/I2C.c **** 
 662:.\Generated_Source\PSoC4/I2C.c ****         I2C_SET_INP_DIS(I2C_uart_rx_wake_i2c_scl_spi_mosi_INP_DIS,
 663:.\Generated_Source\PSoC4/I2C.c ****                                      I2C_uart_rx_wake_i2c_scl_spi_mosi_MASK,
 664:.\Generated_Source\PSoC4/I2C.c ****                                      (0u != (pinsInBuf & I2C_RX_WAKE_SCL_MOSI_PIN_MASK)));
 665:.\Generated_Source\PSoC4/I2C.c **** 
 666:.\Generated_Source\PSoC4/I2C.c ****          /* Set interrupt on falling edge */
 667:.\Generated_Source\PSoC4/I2C.c ****         I2C_SET_INCFG_TYPE(I2C_RX_WAKE_SCL_MOSI_INTCFG_REG,
 668:.\Generated_Source\PSoC4/I2C.c ****                                         I2C_RX_WAKE_SCL_MOSI_INTCFG_TYPE_MASK,
 669:.\Generated_Source\PSoC4/I2C.c ****                                         I2C_RX_WAKE_SCL_MOSI_INTCFG_TYPE_POS,
 670:.\Generated_Source\PSoC4/I2C.c ****                                         I2C_INTCFG_TYPE_FALLING_EDGE);
 671:.\Generated_Source\PSoC4/I2C.c ****     #endif /* (I2C_RX_WAKE_SCL_MOSI_PIN) */
 672:.\Generated_Source\PSoC4/I2C.c **** 
 673:.\Generated_Source\PSoC4/I2C.c ****     #if (I2C_RX_SCL_MOSI_PIN)
 674:.\Generated_Source\PSoC4/I2C.c ****         I2C_SET_HSIOM_SEL(I2C_RX_SCL_MOSI_HSIOM_REG,
 675:.\Generated_Source\PSoC4/I2C.c ****                                        I2C_RX_SCL_MOSI_HSIOM_MASK,
 676:.\Generated_Source\PSoC4/I2C.c ****                                        I2C_RX_SCL_MOSI_HSIOM_POS,
 677:.\Generated_Source\PSoC4/I2C.c ****                                         hsiomSel[I2C_RX_SCL_MOSI_PIN_INDEX]);
 678:.\Generated_Source\PSoC4/I2C.c **** 
 679:.\Generated_Source\PSoC4/I2C.c ****         I2C_uart_rx_i2c_scl_spi_mosi_SetDriveMode((uint8) pinsDm[I2C_RX_SCL_MOSI_PIN_INDEX]);
 680:.\Generated_Source\PSoC4/I2C.c **** 
 681:.\Generated_Source\PSoC4/I2C.c ****     #if (!I2C_CY_SCBIP_V1)
 682:.\Generated_Source\PSoC4/I2C.c ****         I2C_SET_INP_DIS(I2C_uart_rx_i2c_scl_spi_mosi_INP_DIS,
 683:.\Generated_Source\PSoC4/I2C.c ****                                      I2C_uart_rx_i2c_scl_spi_mosi_MASK,
 684:.\Generated_Source\PSoC4/I2C.c ****                                      (0u != (pinsInBuf & I2C_RX_SCL_MOSI_PIN_MASK)));
 685:.\Generated_Source\PSoC4/I2C.c ****     #endif /* (!I2C_CY_SCBIP_V1) */
 686:.\Generated_Source\PSoC4/I2C.c ****     #endif /* (I2C_RX_SCL_MOSI_PIN) */
 687:.\Generated_Source\PSoC4/I2C.c **** 
 688:.\Generated_Source\PSoC4/I2C.c ****     #if (I2C_TX_SDA_MISO_PIN)
 689:.\Generated_Source\PSoC4/I2C.c ****         I2C_SET_HSIOM_SEL(I2C_TX_SDA_MISO_HSIOM_REG,
 690:.\Generated_Source\PSoC4/I2C.c ****                                        I2C_TX_SDA_MISO_HSIOM_MASK,
 691:.\Generated_Source\PSoC4/I2C.c ****                                        I2C_TX_SDA_MISO_HSIOM_POS,
ARM GAS  C:\Users\Vit\AppData\Local\Temp\ccxNl6wF.s 			page 19


 692:.\Generated_Source\PSoC4/I2C.c ****                                         hsiomSel[I2C_TX_SDA_MISO_PIN_INDEX]);
 693:.\Generated_Source\PSoC4/I2C.c **** 
 694:.\Generated_Source\PSoC4/I2C.c ****         I2C_uart_tx_i2c_sda_spi_miso_SetDriveMode((uint8) pinsDm[I2C_TX_SDA_MISO_PIN_INDEX]);
 695:.\Generated_Source\PSoC4/I2C.c **** 
 696:.\Generated_Source\PSoC4/I2C.c ****     #if (!I2C_CY_SCBIP_V1)
 697:.\Generated_Source\PSoC4/I2C.c ****         I2C_SET_INP_DIS(I2C_uart_tx_i2c_sda_spi_miso_INP_DIS,
 698:.\Generated_Source\PSoC4/I2C.c ****                                      I2C_uart_tx_i2c_sda_spi_miso_MASK,
 699:.\Generated_Source\PSoC4/I2C.c ****                                     (0u != (pinsInBuf & I2C_TX_SDA_MISO_PIN_MASK)));
 700:.\Generated_Source\PSoC4/I2C.c ****     #endif /* (!I2C_CY_SCBIP_V1) */
 701:.\Generated_Source\PSoC4/I2C.c ****     #endif /* (I2C_RX_SCL_MOSI_PIN) */
 702:.\Generated_Source\PSoC4/I2C.c **** 
 703:.\Generated_Source\PSoC4/I2C.c ****     #if (I2C_SCLK_PIN)
 704:.\Generated_Source\PSoC4/I2C.c ****         I2C_SET_HSIOM_SEL(I2C_SCLK_HSIOM_REG,
 705:.\Generated_Source\PSoC4/I2C.c ****                                        I2C_SCLK_HSIOM_MASK,
 706:.\Generated_Source\PSoC4/I2C.c ****                                        I2C_SCLK_HSIOM_POS,
 707:.\Generated_Source\PSoC4/I2C.c ****                                        hsiomSel[I2C_SCLK_PIN_INDEX]);
 708:.\Generated_Source\PSoC4/I2C.c **** 
 709:.\Generated_Source\PSoC4/I2C.c ****         I2C_spi_sclk_SetDriveMode((uint8) pinsDm[I2C_SCLK_PIN_INDEX]);
 710:.\Generated_Source\PSoC4/I2C.c **** 
 711:.\Generated_Source\PSoC4/I2C.c ****         I2C_SET_INP_DIS(I2C_spi_sclk_INP_DIS,
 712:.\Generated_Source\PSoC4/I2C.c ****                                      I2C_spi_sclk_MASK,
 713:.\Generated_Source\PSoC4/I2C.c ****                                      (0u != (pinsInBuf & I2C_SCLK_PIN_MASK)));
 714:.\Generated_Source\PSoC4/I2C.c ****     #endif /* (I2C_SCLK_PIN) */
 715:.\Generated_Source\PSoC4/I2C.c **** 
 716:.\Generated_Source\PSoC4/I2C.c ****     #if (I2C_SS0_PIN)
 717:.\Generated_Source\PSoC4/I2C.c ****         I2C_SET_HSIOM_SEL(I2C_SS0_HSIOM_REG,
 718:.\Generated_Source\PSoC4/I2C.c ****                                        I2C_SS0_HSIOM_MASK,
 719:.\Generated_Source\PSoC4/I2C.c ****                                        I2C_SS0_HSIOM_POS,
 720:.\Generated_Source\PSoC4/I2C.c ****                                        hsiomSel[I2C_SS0_PIN_INDEX]);
 721:.\Generated_Source\PSoC4/I2C.c **** 
 722:.\Generated_Source\PSoC4/I2C.c ****         I2C_spi_ss0_SetDriveMode((uint8) pinsDm[I2C_SS0_PIN_INDEX]);
 723:.\Generated_Source\PSoC4/I2C.c **** 
 724:.\Generated_Source\PSoC4/I2C.c ****         I2C_SET_INP_DIS(I2C_spi_ss0_INP_DIS,
 725:.\Generated_Source\PSoC4/I2C.c ****                                      I2C_spi_ss0_MASK,
 726:.\Generated_Source\PSoC4/I2C.c ****                                      (0u != (pinsInBuf & I2C_SS0_PIN_MASK)));
 727:.\Generated_Source\PSoC4/I2C.c ****     #endif /* (I2C_SS0_PIN) */
 728:.\Generated_Source\PSoC4/I2C.c **** 
 729:.\Generated_Source\PSoC4/I2C.c ****     #if (I2C_SS1_PIN)
 730:.\Generated_Source\PSoC4/I2C.c ****         I2C_SET_HSIOM_SEL(I2C_SS1_HSIOM_REG,
 731:.\Generated_Source\PSoC4/I2C.c ****                                        I2C_SS1_HSIOM_MASK,
 732:.\Generated_Source\PSoC4/I2C.c ****                                        I2C_SS1_HSIOM_POS,
 733:.\Generated_Source\PSoC4/I2C.c ****                                        hsiomSel[I2C_SS1_PIN_INDEX]);
 734:.\Generated_Source\PSoC4/I2C.c **** 
 735:.\Generated_Source\PSoC4/I2C.c ****         I2C_spi_ss1_SetDriveMode((uint8) pinsDm[I2C_SS1_PIN_INDEX]);
 736:.\Generated_Source\PSoC4/I2C.c **** 
 737:.\Generated_Source\PSoC4/I2C.c ****         I2C_SET_INP_DIS(I2C_spi_ss1_INP_DIS,
 738:.\Generated_Source\PSoC4/I2C.c ****                                      I2C_spi_ss1_MASK,
 739:.\Generated_Source\PSoC4/I2C.c ****                                      (0u != (pinsInBuf & I2C_SS1_PIN_MASK)));
 740:.\Generated_Source\PSoC4/I2C.c ****     #endif /* (I2C_SS1_PIN) */
 741:.\Generated_Source\PSoC4/I2C.c **** 
 742:.\Generated_Source\PSoC4/I2C.c ****     #if (I2C_SS2_PIN)
 743:.\Generated_Source\PSoC4/I2C.c ****         I2C_SET_HSIOM_SEL(I2C_SS2_HSIOM_REG,
 744:.\Generated_Source\PSoC4/I2C.c ****                                        I2C_SS2_HSIOM_MASK,
 745:.\Generated_Source\PSoC4/I2C.c ****                                        I2C_SS2_HSIOM_POS,
 746:.\Generated_Source\PSoC4/I2C.c ****                                        hsiomSel[I2C_SS2_PIN_INDEX]);
 747:.\Generated_Source\PSoC4/I2C.c **** 
 748:.\Generated_Source\PSoC4/I2C.c ****         I2C_spi_ss2_SetDriveMode((uint8) pinsDm[I2C_SS2_PIN_INDEX]);
ARM GAS  C:\Users\Vit\AppData\Local\Temp\ccxNl6wF.s 			page 20


 749:.\Generated_Source\PSoC4/I2C.c **** 
 750:.\Generated_Source\PSoC4/I2C.c ****         I2C_SET_INP_DIS(I2C_spi_ss2_INP_DIS,
 751:.\Generated_Source\PSoC4/I2C.c ****                                      I2C_spi_ss2_MASK,
 752:.\Generated_Source\PSoC4/I2C.c ****                                      (0u != (pinsInBuf & I2C_SS2_PIN_MASK)));
 753:.\Generated_Source\PSoC4/I2C.c ****     #endif /* (I2C_SS2_PIN) */
 754:.\Generated_Source\PSoC4/I2C.c **** 
 755:.\Generated_Source\PSoC4/I2C.c ****     #if (I2C_SS3_PIN)
 756:.\Generated_Source\PSoC4/I2C.c ****         I2C_SET_HSIOM_SEL(I2C_SS3_HSIOM_REG,
 757:.\Generated_Source\PSoC4/I2C.c ****                                        I2C_SS3_HSIOM_MASK,
 758:.\Generated_Source\PSoC4/I2C.c ****                                        I2C_SS3_HSIOM_POS,
 759:.\Generated_Source\PSoC4/I2C.c ****                                        hsiomSel[I2C_SS3_PIN_INDEX]);
 760:.\Generated_Source\PSoC4/I2C.c **** 
 761:.\Generated_Source\PSoC4/I2C.c ****         I2C_spi_ss3_SetDriveMode((uint8) pinsDm[I2C_SS3_PIN_INDEX]);
 762:.\Generated_Source\PSoC4/I2C.c **** 
 763:.\Generated_Source\PSoC4/I2C.c ****         I2C_SET_INP_DIS(I2C_spi_ss3_INP_DIS,
 764:.\Generated_Source\PSoC4/I2C.c ****                                      I2C_spi_ss3_MASK,
 765:.\Generated_Source\PSoC4/I2C.c ****                                      (0u != (pinsInBuf & I2C_SS3_PIN_MASK)));
 766:.\Generated_Source\PSoC4/I2C.c ****     #endif /* (I2C_SS3_PIN) */
 767:.\Generated_Source\PSoC4/I2C.c ****     }
 768:.\Generated_Source\PSoC4/I2C.c **** 
 769:.\Generated_Source\PSoC4/I2C.c **** #endif /* (I2C_SCB_MODE_UNCONFIG_CONST_CFG) */
 770:.\Generated_Source\PSoC4/I2C.c **** 
 771:.\Generated_Source\PSoC4/I2C.c **** 
 772:.\Generated_Source\PSoC4/I2C.c **** #if (I2C_CY_SCBIP_V0 || I2C_CY_SCBIP_V1)
 773:.\Generated_Source\PSoC4/I2C.c ****     /*******************************************************************************
 774:.\Generated_Source\PSoC4/I2C.c ****     * Function Name: I2C_I2CSlaveNackGeneration
 775:.\Generated_Source\PSoC4/I2C.c ****     ********************************************************************************
 776:.\Generated_Source\PSoC4/I2C.c ****     *
 777:.\Generated_Source\PSoC4/I2C.c ****     * Summary:
 778:.\Generated_Source\PSoC4/I2C.c ****     *  Sets command to generate NACK to the address or data.
 779:.\Generated_Source\PSoC4/I2C.c ****     *
 780:.\Generated_Source\PSoC4/I2C.c ****     * Parameters:
 781:.\Generated_Source\PSoC4/I2C.c ****     *  None
 782:.\Generated_Source\PSoC4/I2C.c ****     *
 783:.\Generated_Source\PSoC4/I2C.c ****     * Return:
 784:.\Generated_Source\PSoC4/I2C.c ****     *  None
 785:.\Generated_Source\PSoC4/I2C.c ****     *
 786:.\Generated_Source\PSoC4/I2C.c ****     *******************************************************************************/
 787:.\Generated_Source\PSoC4/I2C.c ****     void I2C_I2CSlaveNackGeneration(void)
 788:.\Generated_Source\PSoC4/I2C.c ****     {
 293              		.loc 1 788 0
 294              		.cfi_startproc
 789:.\Generated_Source\PSoC4/I2C.c ****         /* Check for EC_AM toggle condition: EC_AM and clock stretching for address are enabled */
 790:.\Generated_Source\PSoC4/I2C.c ****         if ((0u != (I2C_CTRL_REG & I2C_CTRL_EC_AM_MODE)) &&
 295              		.loc 1 790 0
 296 0000 8020     		mov	r0, #128
 297 0002 0A4B     		ldr	r3, .L27
 298 0004 4000     		lsl	r0, r0, #1
 299 0006 1A68     		ldr	r2, [r3]
 300 0008 0242     		tst	r2, r0
 301 000a 0AD0     		beq	.L23
 791:.\Generated_Source\PSoC4/I2C.c ****             (0u == (I2C_I2C_CTRL_REG & I2C_I2C_CTRL_S_NOT_READY_ADDR_NACK)))
 302              		.loc 1 791 0 discriminator 1
 303 000c 084A     		ldr	r2, .L27+4
 304 000e 1268     		ldr	r2, [r2]
 790:.\Generated_Source\PSoC4/I2C.c ****             (0u == (I2C_I2C_CTRL_REG & I2C_I2C_CTRL_S_NOT_READY_ADDR_NACK)))
 305              		.loc 1 790 0 discriminator 1
ARM GAS  C:\Users\Vit\AppData\Local\Temp\ccxNl6wF.s 			page 21


 306 0010 5204     		lsl	r2, r2, #17
 307 0012 06D4     		bmi	.L23
 792:.\Generated_Source\PSoC4/I2C.c ****         {
 793:.\Generated_Source\PSoC4/I2C.c ****             /* Toggle EC_AM before NACK generation */
 794:.\Generated_Source\PSoC4/I2C.c ****             I2C_CTRL_REG &= ~I2C_CTRL_EC_AM_MODE;
 308              		.loc 1 794 0
 309 0014 1A68     		ldr	r2, [r3]
 310 0016 0749     		ldr	r1, .L27+8
 311 0018 1140     		and	r1, r2
 312 001a 1960     		str	r1, [r3]
 795:.\Generated_Source\PSoC4/I2C.c ****             I2C_CTRL_REG |=  I2C_CTRL_EC_AM_MODE;
 313              		.loc 1 795 0
 314 001c 1A68     		ldr	r2, [r3]
 315 001e 0243     		orr	r2, r0
 316 0020 1A60     		str	r2, [r3]
 317              	.L23:
 796:.\Generated_Source\PSoC4/I2C.c ****         }
 797:.\Generated_Source\PSoC4/I2C.c **** 
 798:.\Generated_Source\PSoC4/I2C.c ****         I2C_I2C_SLAVE_CMD_REG = I2C_I2C_SLAVE_CMD_S_NACK;
 318              		.loc 1 798 0
 319 0022 0222     		mov	r2, #2
 320 0024 044B     		ldr	r3, .L27+12
 799:.\Generated_Source\PSoC4/I2C.c ****     }
 321              		.loc 1 799 0
 322              		@ sp needed
 798:.\Generated_Source\PSoC4/I2C.c ****     }
 323              		.loc 1 798 0
 324 0026 1A60     		str	r2, [r3]
 325              		.loc 1 799 0
 326 0028 7047     		bx	lr
 327              	.L28:
 328 002a C046     		.align	2
 329              	.L27:
 330 002c 00000740 		.word	1074200576
 331 0030 60000740 		.word	1074200672
 332 0034 FFFEFFFF 		.word	-257
 333 0038 6C000740 		.word	1074200684
 334              		.cfi_endproc
 335              	.LFE10:
 336              		.size	I2C_I2CSlaveNackGeneration, .-I2C_I2CSlaveNackGeneration
 337              		.global	I2C_customIntrHandler
 338              		.global	I2C_initVar
 339              		.bss
 340              		.align	2
 341              		.set	.LANCHOR0,. + 0
 342              		.type	I2C_initVar, %object
 343              		.size	I2C_initVar, 1
 344              	I2C_initVar:
 345 0000 00       		.space	1
 346 0001 000000   		.space	3
 347              		.type	I2C_customIntrHandler, %object
 348              		.size	I2C_customIntrHandler, 4
 349              	I2C_customIntrHandler:
 350 0004 00000000 		.space	4
 351              		.text
 352              	.Letext0:
 353              		.file 2 "Generated_Source\\PSoC4/cytypes.h"
ARM GAS  C:\Users\Vit\AppData\Local\Temp\ccxNl6wF.s 			page 22


 354              		.file 3 ".\\Generated_Source\\PSoC4\\I2C_I2C_PVT.h"
 355              		.file 4 "Generated_Source\\PSoC4/CyLib.h"