ARM GAS  C:\Users\Vit\AppData\Local\Temp\cccDTN3f.s 			page 1


   1              		.cpu cortex-m0
   2              		.fpu softvfp
   3              		.eabi_attribute 20, 1
   4              		.eabi_attribute 21, 1
   5              		.eabi_attribute 23, 3
   6              		.eabi_attribute 24, 1
   7              		.eabi_attribute 25, 1
   8              		.eabi_attribute 26, 1
   9              		.eabi_attribute 30, 4
  10              		.eabi_attribute 34, 0
  11              		.eabi_attribute 18, 4
  12              		.code	16
  13              		.file	"LM92.c"
  14              		.text
  15              	.Ltext0:
  16              		.cfi_sections	.debug_frame
  17              		.section	.text.LM92_GetRegisters,"ax",%progbits
  18              		.align	1
  19              		.global	LM92_GetRegisters
  20              		.code	16
  21              		.thumb_func
  22              		.type	LM92_GetRegisters, %function
  23              	LM92_GetRegisters:
  24              	.LFB33:
  25              		.file 1 ".\\LM92.c"
   1:.\LM92.c      **** /* ========================================
   2:.\LM92.c      ****  *
   3:.\LM92.c      ****  * Copyright YOUR COMPANY, THE YEAR
   4:.\LM92.c      ****  * All Rights Reserved
   5:.\LM92.c      ****  * UNPUBLISHED, LICENSED SOFTWARE.
   6:.\LM92.c      ****  *
   7:.\LM92.c      ****  * CONFIDENTIAL AND PROPRIETARY INFORMATION
   8:.\LM92.c      ****  * WHICH IS THE PROPERTY OF your company.
   9:.\LM92.c      ****  *
  10:.\LM92.c      ****  * ========================================
  11:.\LM92.c      **** */
  12:.\LM92.c      **** 
  13:.\LM92.c      **** #include <LM92.h>
  14:.\LM92.c      **** #include <math.h>
  15:.\LM92.c      **** #include <bcd.h>
  16:.\LM92.c      **** 
  17:.\LM92.c      **** volatile const uint32 LM92_I2C_ADRESS = 0x4B;// [10010(A1)(A0)], (A1 = 1, A0 = 1, in current projec
  18:.\LM92.c      **** 
  19:.\LM92.c      **** extern uint32 I2C_SendBuffer(uint32_t DevAddress, uint8_t *pData, uint16_t Size);
  20:.\LM92.c      **** extern uint8 I2C_ReadRegister(uint32 Adress, uint8 *pData, uint8 Register, uint8 Registers_Lenght_B
  21:.\LM92.c      **** 
  22:.\LM92.c      **** 
  23:.\LM92.c      **** 
  24:.\LM92.c      **** 
  25:.\LM92.c      **** //((Bufer[0] << 8) + Bufer[1]) >>3;
  26:.\LM92.c      **** 
  27:.\LM92.c      **** void LM92_GetRegisters()
  28:.\LM92.c      **** {
  26              		.loc 1 28 0
  27              		.cfi_startproc
  28 0000 73B5     		push	{r0, r1, r4, r5, r6, lr}
  29              		.cfi_def_cfa_offset 24
ARM GAS  C:\Users\Vit\AppData\Local\Temp\cccDTN3f.s 			page 2


  30              		.cfi_offset 0, -24
  31              		.cfi_offset 1, -20
  32              		.cfi_offset 4, -16
  33              		.cfi_offset 5, -12
  34              		.cfi_offset 6, -8
  35              		.cfi_offset 14, -4
  29:.\LM92.c      ****     uint8 Bufer[2];
  30:.\LM92.c      ****     
  31:.\LM92.c      ****     I2C_ReadRegister(LM92_I2C_ADRESS, Bufer, LM92_REG_Tempiraure, 16);
  36              		.loc 1 31 0
  37 0002 274E     		ldr	r6, .L2
  38 0004 01AC     		add	r4, sp, #4
  39 0006 3068     		ldr	r0, [r6]
  40 0008 211C     		mov	r1, r4
  41 000a 0022     		mov	r2, #0
  42 000c 1023     		mov	r3, #16
  43 000e FFF7FEFF 		bl	I2C_ReadRegister
  44              	.LVL0:
  32:.\LM92.c      ****     LM92_Operational_Struct.Temp_Reg = ((Bufer[0] << 8) + Bufer[1]) >>3;
  45              		.loc 1 32 0
  46 0012 2378     		ldrb	r3, [r4]
  47 0014 6278     		ldrb	r2, [r4, #1]
  48 0016 1B02     		lsl	r3, r3, #8
  49 0018 224D     		ldr	r5, .L2+4
  50 001a 9B18     		add	r3, r3, r2
  51 001c DB10     		asr	r3, r3, #3
  52 001e 2B80     		strh	r3, [r5]
  33:.\LM92.c      ****     I2C_ReadRegister(LM92_I2C_ADRESS, Bufer, LM92_REG_MANUFACURERS_ID, 16);
  53              		.loc 1 33 0
  54 0020 3068     		ldr	r0, [r6]
  55 0022 211C     		mov	r1, r4
  56 0024 0722     		mov	r2, #7
  57 0026 1023     		mov	r3, #16
  58 0028 FFF7FEFF 		bl	I2C_ReadRegister
  59              	.LVL1:
  34:.\LM92.c      ****     LM92_Operational_Struct.Manufacture_ID = (Bufer[0] << 8) | Bufer[1];
  60              		.loc 1 34 0
  61 002c 2378     		ldrb	r3, [r4]
  62 002e 6278     		ldrb	r2, [r4, #1]
  63 0030 1B02     		lsl	r3, r3, #8
  64 0032 1343     		orr	r3, r2
  65 0034 EB81     		strh	r3, [r5, #14]
  35:.\LM92.c      ****     I2C_ReadRegister(LM92_I2C_ADRESS, Bufer, LM92_REG_Configuration, 8);
  66              		.loc 1 35 0
  67 0036 3068     		ldr	r0, [r6]
  68 0038 211C     		mov	r1, r4
  69 003a 0122     		mov	r2, #1
  70 003c 0823     		mov	r3, #8
  71 003e FFF7FEFF 		bl	I2C_ReadRegister
  72              	.LVL2:
  36:.\LM92.c      ****     LM92_Operational_Struct.Config = Bufer[0];
  73              		.loc 1 36 0
  74 0042 2378     		ldrb	r3, [r4]
  37:.\LM92.c      ****     I2C_ReadRegister(LM92_I2C_ADRESS, Bufer, LM92_REG_TEMP_CRIT, 16);
  75              		.loc 1 37 0
  76 0044 3068     		ldr	r0, [r6]
  36:.\LM92.c      ****     LM92_Operational_Struct.Config = Bufer[0];
ARM GAS  C:\Users\Vit\AppData\Local\Temp\cccDTN3f.s 			page 3


  77              		.loc 1 36 0
  78 0046 2B71     		strb	r3, [r5, #4]
  79              		.loc 1 37 0
  80 0048 211C     		mov	r1, r4
  81 004a 0322     		mov	r2, #3
  82 004c 1023     		mov	r3, #16
  83 004e FFF7FEFF 		bl	I2C_ReadRegister
  84              	.LVL3:
  38:.\LM92.c      ****     LM92_Operational_Struct.T_Crit = (Bufer[0] << 8) | Bufer[1];
  85              		.loc 1 38 0
  86 0052 2378     		ldrb	r3, [r4]
  87 0054 6278     		ldrb	r2, [r4, #1]
  88 0056 1B02     		lsl	r3, r3, #8
  89 0058 1343     		orr	r3, r2
  90 005a 6B81     		strh	r3, [r5, #10]
  39:.\LM92.c      ****     I2C_ReadRegister(LM92_I2C_ADRESS, Bufer, LM92_REG_TEMP_HI, 16);
  91              		.loc 1 39 0
  92 005c 3068     		ldr	r0, [r6]
  93 005e 211C     		mov	r1, r4
  94 0060 0522     		mov	r2, #5
  95 0062 1023     		mov	r3, #16
  96 0064 FFF7FEFF 		bl	I2C_ReadRegister
  97              	.LVL4:
  40:.\LM92.c      ****     LM92_Operational_Struct.T_HI = (Bufer[0] << 8) | Bufer[1];
  98              		.loc 1 40 0
  99 0068 2378     		ldrb	r3, [r4]
 100 006a 6278     		ldrb	r2, [r4, #1]
 101 006c 1B02     		lsl	r3, r3, #8
 102 006e 1343     		orr	r3, r2
 103 0070 EB80     		strh	r3, [r5, #6]
  41:.\LM92.c      ****     I2C_ReadRegister(LM92_I2C_ADRESS, Bufer, LM92_REG_TEMP_LOW, 16);
 104              		.loc 1 41 0
 105 0072 3068     		ldr	r0, [r6]
 106 0074 211C     		mov	r1, r4
 107 0076 0422     		mov	r2, #4
 108 0078 1023     		mov	r3, #16
 109 007a FFF7FEFF 		bl	I2C_ReadRegister
 110              	.LVL5:
  42:.\LM92.c      ****     LM92_Operational_Struct.T_Low = (Bufer[0] << 8) | Bufer[1];
 111              		.loc 1 42 0
 112 007e 2378     		ldrb	r3, [r4]
 113 0080 6278     		ldrb	r2, [r4, #1]
 114 0082 1B02     		lsl	r3, r3, #8
 115 0084 1343     		orr	r3, r2
 116 0086 2B81     		strh	r3, [r5, #8]
  43:.\LM92.c      ****     I2C_ReadRegister(LM92_I2C_ADRESS, Bufer, LM92_REG_TEMP_HYSTERESIS, 16);
 117              		.loc 1 43 0
 118 0088 3068     		ldr	r0, [r6]
 119 008a 211C     		mov	r1, r4
 120 008c 0222     		mov	r2, #2
 121 008e 1023     		mov	r3, #16
 122 0090 FFF7FEFF 		bl	I2C_ReadRegister
 123              	.LVL6:
  44:.\LM92.c      ****     LM92_Operational_Struct.T_Hysteresis = (Bufer[0] << 8) | Bufer[1];
 124              		.loc 1 44 0
 125 0094 2378     		ldrb	r3, [r4]
 126 0096 6278     		ldrb	r2, [r4, #1]
ARM GAS  C:\Users\Vit\AppData\Local\Temp\cccDTN3f.s 			page 4


 127 0098 1B02     		lsl	r3, r3, #8
 128 009a 1343     		orr	r3, r2
 129 009c AB81     		strh	r3, [r5, #12]
  45:.\LM92.c      **** }
 130              		.loc 1 45 0
 131              		@ sp needed
 132 009e 73BD     		pop	{r0, r1, r4, r5, r6, pc}
 133              	.L3:
 134              		.align	2
 135              	.L2:
 136 00a0 00000000 		.word	.LANCHOR0
 137 00a4 00000000 		.word	LM92_Operational_Struct
 138              		.cfi_endproc
 139              	.LFE33:
 140              		.size	LM92_GetRegisters, .-LM92_GetRegisters
 141              		.global	__aeabi_i2d
 142              		.global	__aeabi_dmul
 143              		.global	__aeabi_d2f
 144              		.global	__aeabi_fcmpgt
 145              		.global	__aeabi_fcmplt
 146              		.global	__aeabi_f2uiz
 147              		.global	__aeabi_fmul
 148              		.global	__aeabi_uidivmod
 149              		.global	__aeabi_uidiv
 150              		.global	__aeabi_idiv
 151              		.section	.text.LM92_GetTemperature,"ax",%progbits
 152              		.align	1
 153              		.global	LM92_GetTemperature
 154              		.code	16
 155              		.thumb_func
 156              		.type	LM92_GetTemperature, %function
 157              	LM92_GetTemperature:
 158              	.LFB34:
  46:.\LM92.c      **** 
  47:.\LM92.c      **** void LM92_GetTemperature()
  48:.\LM92.c      **** {
 159              		.loc 1 48 0
 160              		.cfi_startproc
 161 0000 F8B5     		push	{r3, r4, r5, r6, r7, lr}
 162              		.cfi_def_cfa_offset 24
 163              		.cfi_offset 3, -24
 164              		.cfi_offset 4, -20
 165              		.cfi_offset 5, -16
 166              		.cfi_offset 6, -12
 167              		.cfi_offset 7, -8
 168              		.cfi_offset 14, -4
  49:.\LM92.c      ****     float F_Temp = LM92_Operational_Struct.Temp_Reg * 0.0625;
 169              		.loc 1 49 0
 170 0002 994C     		ldr	r4, .L23
 171 0004 2088     		ldrh	r0, [r4]
 172 0006 FFF7FEFF 		bl	__aeabi_i2d
 173              	.LVL7:
 174 000a 0022     		mov	r2, #0
 175 000c 974B     		ldr	r3, .L23+4
 176 000e FFF7FEFF 		bl	__aeabi_dmul
 177              	.LVL8:
 178 0012 FFF7FEFF 		bl	__aeabi_d2f
ARM GAS  C:\Users\Vit\AppData\Local\Temp\cccDTN3f.s 			page 5


 179              	.LVL9:
  50:.\LM92.c      ****     
  51:.\LM92.c      ****     if(F_Temp > 0)
 180              		.loc 1 51 0
 181 0016 0021     		mov	r1, #0
  49:.\LM92.c      ****     float F_Temp = LM92_Operational_Struct.Temp_Reg * 0.0625;
 182              		.loc 1 49 0
 183 0018 051C     		add	r5, r0, #0
 184              	.LVL10:
 185              		.loc 1 51 0
 186 001a FFF7FEFF 		bl	__aeabi_fcmpgt
 187              	.LVL11:
 188 001e 0028     		cmp	r0, #0
 189 0020 02D0     		beq	.L20
  52:.\LM92.c      ****     {
  53:.\LM92.c      ****         LM92_Operational_Struct.Sign = 0;
 190              		.loc 1 53 0
 191 0022 0023     		mov	r3, #0
 192 0024 A370     		strb	r3, [r4, #2]
 193 0026 05E0     		b	.L7
 194              	.L20:
  54:.\LM92.c      ****     }    
  55:.\LM92.c      ****     else
  56:.\LM92.c      ****     {
  57:.\LM92.c      ****         LM92_Operational_Struct.Sign = 1;
 195              		.loc 1 57 0
 196 0028 0123     		mov	r3, #1
  58:.\LM92.c      ****         F_Temp = fabsf(F_Temp);
 197              		.loc 1 58 0
 198 002a 9D40     		lsl	r5, r5, r3
 199              	.LVL12:
  57:.\LM92.c      ****         F_Temp = fabsf(F_Temp);
 200              		.loc 1 57 0
 201 002c A370     		strb	r3, [r4, #2]
 202              		.loc 1 58 0
 203 002e DD40     		lsr	r5, r5, r3
 204              	.LVL13:
  59:.\LM92.c      ****         LM92_Operational_Struct.Display_String[0] = '-';//If Tempiratura < 0, add sign [-] under nu
 205              		.loc 1 59 0
 206 0030 2C33     		add	r3, r3, #44
 207 0032 6375     		strb	r3, [r4, #21]
 208              	.LVL14:
 209              	.L7:
  60:.\LM92.c      ****     }
  61:.\LM92.c      ****     
  62:.\LM92.c      ****     if(F_Temp < 9)
 210              		.loc 1 62 0
 211 0034 281C     		add	r0, r5, #0
 212 0036 8E49     		ldr	r1, .L23+8
 213 0038 FFF7FEFF 		bl	__aeabi_fcmplt
 214              	.LVL15:
 215 003c 061C     		mov	r6, r0
  63:.\LM92.c      ****     {
  64:.\LM92.c      ****         LM92_Operational_Struct.Temp_Integer[0] = (uint8)F_Temp;//Get First integer number
 216              		.loc 1 64 0
 217 003e 281C     		add	r0, r5, #0
  62:.\LM92.c      ****     {
ARM GAS  C:\Users\Vit\AppData\Local\Temp\cccDTN3f.s 			page 6


 218              		.loc 1 62 0
 219 0040 002E     		cmp	r6, #0
 220 0042 41D0     		beq	.L21
 221              		.loc 1 64 0
 222 0044 FFF7FEFF 		bl	__aeabi_f2uiz
 223              	.LVL16:
  65:.\LM92.c      ****         LM92_Operational_Struct.Temp_Integer[1] = 0;
 224              		.loc 1 65 0
 225 0048 0026     		mov	r6, #0
  64:.\LM92.c      ****         LM92_Operational_Struct.Temp_Integer[1] = 0;
 226              		.loc 1 64 0
 227 004a C7B2     		uxtb	r7, r0
  66:.\LM92.c      ****         LM92_Operational_Struct.Temp_Integer[2] = 0;
  67:.\LM92.c      ****         LM92_Operational_Struct.Temp_Fractional[0] = (uint8)((uint16)(F_Temp * 100)%10);//Get first
 228              		.loc 1 67 0
 229 004c 8949     		ldr	r1, .L23+12
  64:.\LM92.c      ****         LM92_Operational_Struct.Temp_Integer[1] = 0;
 230              		.loc 1 64 0
 231 004e 2774     		strb	r7, [r4, #16]
  65:.\LM92.c      ****         LM92_Operational_Struct.Temp_Integer[2] = 0;
 232              		.loc 1 65 0
 233 0050 6674     		strb	r6, [r4, #17]
  66:.\LM92.c      ****         LM92_Operational_Struct.Temp_Integer[2] = 0;
 234              		.loc 1 66 0
 235 0052 A674     		strb	r6, [r4, #18]
 236              		.loc 1 67 0
 237 0054 281C     		add	r0, r5, #0
 238 0056 FFF7FEFF 		bl	__aeabi_fmul
 239              	.LVL17:
 240 005a FFF7FEFF 		bl	__aeabi_f2uiz
 241              	.LVL18:
 242 005e 85B2     		uxth	r5, r0
 243              	.LVL19:
 244 0060 281C     		mov	r0, r5
 245 0062 0A21     		mov	r1, #10
 246 0064 FFF7FEFF 		bl	__aeabi_uidivmod
 247              	.LVL20:
  68:.\LM92.c      ****         LM92_Operational_Struct.Temp_Fractional[1] = (uint8)(((uint16)(F_Temp * 100)%100)/10);//get
 248              		.loc 1 68 0
 249 0068 281C     		mov	r0, r5
  67:.\LM92.c      ****         LM92_Operational_Struct.Temp_Fractional[1] = (uint8)(((uint16)(F_Temp * 100)%100)/10);//get
 250              		.loc 1 67 0
 251 006a E174     		strb	r1, [r4, #19]
 252              		.loc 1 68 0
 253 006c 6421     		mov	r1, #100
 254 006e FFF7FEFF 		bl	__aeabi_uidivmod
 255              	.LVL21:
 256 0072 88B2     		uxth	r0, r1
 257 0074 0A21     		mov	r1, #10
 258 0076 FFF7FEFF 		bl	__aeabi_uidiv
 259              	.LVL22:
 260 007a 2075     		strb	r0, [r4, #20]
  69:.\LM92.c      ****         
  70:.\LM92.c      ****         BCD_Uchar(LM92_Operational_Struct.Temp_Integer[0]);
 261              		.loc 1 70 0
 262 007c 381C     		mov	r0, r7
 263 007e FFF7FEFF 		bl	BCD_Uchar
ARM GAS  C:\Users\Vit\AppData\Local\Temp\cccDTN3f.s 			page 7


 264              	.LVL23:
  71:.\LM92.c      ****         LM92_Operational_Struct.Display_String[0 + LM92_Operational_Struct.Sign] = *(BCD_GetPointer
 265              		.loc 1 71 0
 266 0082 A578     		ldrb	r5, [r4, #2]
 267 0084 FFF7FEFF 		bl	BCD_GetPointerBuf
 268              	.LVL24:
 269 0088 0378     		ldrb	r3, [r0]
 270 008a 6519     		add	r5, r4, r5
 271 008c 6B75     		strb	r3, [r5, #21]
  72:.\LM92.c      ****         BCD_Uchar(LM92_Operational_Struct.Temp_Fractional[1]);
 272              		.loc 1 72 0
 273 008e 207D     		ldrb	r0, [r4, #20]
 274 0090 FFF7FEFF 		bl	BCD_Uchar
 275              	.LVL25:
  73:.\LM92.c      ****         
  74:.\LM92.c      ****         LM92_Operational_Struct.Display_String[1 + LM92_Operational_Struct.Sign] = ',';
 276              		.loc 1 74 0
 277 0094 2C23     		mov	r3, #44
 278 0096 A578     		ldrb	r5, [r4, #2]
 279 0098 6519     		add	r5, r4, r5
 280 009a AB75     		strb	r3, [r5, #22]
  75:.\LM92.c      ****         
  76:.\LM92.c      ****         LM92_Operational_Struct.Display_String[2 + LM92_Operational_Struct.Sign] = *(BCD_GetPointer
 281              		.loc 1 76 0
 282 009c FFF7FEFF 		bl	BCD_GetPointerBuf
 283              	.LVL26:
 284 00a0 0378     		ldrb	r3, [r0]
 285 00a2 EB75     		strb	r3, [r5, #23]
  77:.\LM92.c      ****         BCD_Uchar(LM92_Operational_Struct.Temp_Fractional[0]);
 286              		.loc 1 77 0
 287 00a4 E07C     		ldrb	r0, [r4, #19]
 288 00a6 FFF7FEFF 		bl	BCD_Uchar
 289              	.LVL27:
  78:.\LM92.c      ****         LM92_Operational_Struct.Display_String[3 + LM92_Operational_Struct.Sign] = *(BCD_GetPointer
 290              		.loc 1 78 0
 291 00aa A578     		ldrb	r5, [r4, #2]
 292 00ac FFF7FEFF 		bl	BCD_GetPointerBuf
 293              	.LVL28:
 294 00b0 0335     		add	r5, r5, #3
 295 00b2 0378     		ldrb	r3, [r0]
 296 00b4 6519     		add	r5, r4, r5
 297 00b6 6B75     		strb	r3, [r5, #21]
  79:.\LM92.c      ****         
  80:.\LM92.c      ****         LM92_Operational_Struct.Display_String[4 + LM92_Operational_Struct.Sign] = 128;// Add [째] 
 298              		.loc 1 80 0
 299 00b8 A378     		ldrb	r3, [r4, #2]
 300 00ba E418     		add	r4, r4, r3
 301 00bc 8023     		mov	r3, #128
 302 00be 6376     		strb	r3, [r4, #25]
  81:.\LM92.c      ****         LM92_Operational_Struct.Display_String[5 + LM92_Operational_Struct.Sign] = 'C';
 303              		.loc 1 81 0
 304 00c0 3D3B     		sub	r3, r3, #61
 305 00c2 A376     		strb	r3, [r4, #26]
  82:.\LM92.c      ****         LM92_Operational_Struct.Display_String[6 + LM92_Operational_Struct.Sign] = '\0';
 306              		.loc 1 82 0
 307 00c4 E676     		strb	r6, [r4, #27]
 308 00c6 CEE0     		b	.L4
ARM GAS  C:\Users\Vit\AppData\Local\Temp\cccDTN3f.s 			page 8


 309              	.LVL29:
 310              	.L21:
  83:.\LM92.c      ****         // Output string -> [I1][,][f1][f2][째][C][EndOfString']
  84:.\LM92.c      ****     }
  85:.\LM92.c      ****         else if((F_Temp > 9) && (F_Temp < 99))
 311              		.loc 1 85 0
 312 00c8 6949     		ldr	r1, .L23+8
 313 00ca FFF7FEFF 		bl	__aeabi_fcmpgt
 314              	.LVL30:
 315 00ce 0028     		cmp	r0, #0
 316 00d0 5DD0     		beq	.L11
 317              		.loc 1 85 0 is_stmt 0 discriminator 1
 318 00d2 281C     		add	r0, r5, #0
 319 00d4 6849     		ldr	r1, .L23+16
 320 00d6 FFF7FEFF 		bl	__aeabi_fcmplt
 321              	.LVL31:
 322 00da 0028     		cmp	r0, #0
 323 00dc 57D0     		beq	.L11
  86:.\LM92.c      ****         {
  87:.\LM92.c      ****             LM92_Operational_Struct.Temp_Integer[0] = (uint8)F_Temp%10;
 324              		.loc 1 87 0 is_stmt 1
 325 00de 281C     		add	r0, r5, #0
 326 00e0 FFF7FEFF 		bl	__aeabi_f2uiz
 327              	.LVL32:
 328 00e4 C7B2     		uxtb	r7, r0
 329 00e6 381C     		mov	r0, r7
 330 00e8 0A21     		mov	r1, #10
 331 00ea FFF7FEFF 		bl	__aeabi_uidivmod
 332              	.LVL33:
  88:.\LM92.c      ****             LM92_Operational_Struct.Temp_Integer[1] = (uint8)F_Temp/10;
 333              		.loc 1 88 0
 334 00ee 381C     		mov	r0, r7
  87:.\LM92.c      ****             LM92_Operational_Struct.Temp_Integer[1] = (uint8)F_Temp/10;
 335              		.loc 1 87 0
 336 00f0 2174     		strb	r1, [r4, #16]
 337              		.loc 1 88 0
 338 00f2 0A21     		mov	r1, #10
 339 00f4 FFF7FEFF 		bl	__aeabi_uidiv
 340              	.LVL34:
 341 00f8 C7B2     		uxtb	r7, r0
  89:.\LM92.c      ****             LM92_Operational_Struct.Temp_Integer[2] = 0;
  90:.\LM92.c      ****             LM92_Operational_Struct.Temp_Fractional[0] = (uint8)((uint16)(F_Temp * 100)%10);
 342              		.loc 1 90 0
 343 00fa 5E49     		ldr	r1, .L23+12
  88:.\LM92.c      ****             LM92_Operational_Struct.Temp_Integer[2] = 0;
 344              		.loc 1 88 0
 345 00fc 6774     		strb	r7, [r4, #17]
  89:.\LM92.c      ****             LM92_Operational_Struct.Temp_Integer[2] = 0;
 346              		.loc 1 89 0
 347 00fe A674     		strb	r6, [r4, #18]
 348              		.loc 1 90 0
 349 0100 281C     		add	r0, r5, #0
 350 0102 FFF7FEFF 		bl	__aeabi_fmul
 351              	.LVL35:
 352 0106 FFF7FEFF 		bl	__aeabi_f2uiz
 353              	.LVL36:
 354 010a 85B2     		uxth	r5, r0
ARM GAS  C:\Users\Vit\AppData\Local\Temp\cccDTN3f.s 			page 9


 355              	.LVL37:
 356 010c 281C     		mov	r0, r5
 357 010e 0A21     		mov	r1, #10
 358 0110 FFF7FEFF 		bl	__aeabi_uidivmod
 359              	.LVL38:
  91:.\LM92.c      ****             LM92_Operational_Struct.Temp_Fractional[1] = (uint8)(((uint16)(F_Temp * 100)%100)/10);
 360              		.loc 1 91 0
 361 0114 281C     		mov	r0, r5
  90:.\LM92.c      ****             LM92_Operational_Struct.Temp_Fractional[1] = (uint8)(((uint16)(F_Temp * 100)%100)/10);
 362              		.loc 1 90 0
 363 0116 E174     		strb	r1, [r4, #19]
 364              		.loc 1 91 0
 365 0118 6421     		mov	r1, #100
 366 011a FFF7FEFF 		bl	__aeabi_uidivmod
 367              	.LVL39:
 368 011e 88B2     		uxth	r0, r1
 369 0120 0A21     		mov	r1, #10
 370 0122 FFF7FEFF 		bl	__aeabi_uidiv
 371              	.LVL40:
 372 0126 2075     		strb	r0, [r4, #20]
  92:.\LM92.c      ****             
  93:.\LM92.c      ****             BCD_Uchar(LM92_Operational_Struct.Temp_Integer[1]);
 373              		.loc 1 93 0
 374 0128 381C     		mov	r0, r7
 375 012a FFF7FEFF 		bl	BCD_Uchar
 376              	.LVL41:
  94:.\LM92.c      ****             LM92_Operational_Struct.Display_String[0 + LM92_Operational_Struct.Sign] = *(BCD_GetPoi
 377              		.loc 1 94 0
 378 012e A578     		ldrb	r5, [r4, #2]
 379 0130 FFF7FEFF 		bl	BCD_GetPointerBuf
 380              	.LVL42:
 381 0134 8278     		ldrb	r2, [r0, #2]
 382 0136 6319     		add	r3, r4, r5
 383 0138 5A75     		strb	r2, [r3, #21]
  95:.\LM92.c      ****             BCD_Uchar(LM92_Operational_Struct.Temp_Integer[0]);
 384              		.loc 1 95 0
 385 013a 207C     		ldrb	r0, [r4, #16]
 386 013c FFF7FEFF 		bl	BCD_Uchar
 387              	.LVL43:
  96:.\LM92.c      ****             LM92_Operational_Struct.Display_String[1 + LM92_Operational_Struct.Sign] = *(BCD_GetPoi
 388              		.loc 1 96 0
 389 0140 A578     		ldrb	r5, [r4, #2]
 390 0142 FFF7FEFF 		bl	BCD_GetPointerBuf
 391              	.LVL44:
  97:.\LM92.c      ****             
  98:.\LM92.c      ****             LM92_Operational_Struct.Display_String[2 + LM92_Operational_Struct.Sign] = ',';
 392              		.loc 1 98 0
 393 0146 2C22     		mov	r2, #44
  96:.\LM92.c      ****             LM92_Operational_Struct.Display_String[1 + LM92_Operational_Struct.Sign] = *(BCD_GetPoi
 394              		.loc 1 96 0
 395 0148 8378     		ldrb	r3, [r0, #2]
 396 014a 0135     		add	r5, r5, #1
 397 014c 6519     		add	r5, r4, r5
 398 014e 6B75     		strb	r3, [r5, #21]
 399              		.loc 1 98 0
 400 0150 A378     		ldrb	r3, [r4, #2]
 401 0152 E318     		add	r3, r4, r3
ARM GAS  C:\Users\Vit\AppData\Local\Temp\cccDTN3f.s 			page 10


 402 0154 DA75     		strb	r2, [r3, #23]
  99:.\LM92.c      ****             
 100:.\LM92.c      ****             BCD_Uchar(LM92_Operational_Struct.Temp_Fractional[1]);
 403              		.loc 1 100 0
 404 0156 207D     		ldrb	r0, [r4, #20]
 405 0158 FFF7FEFF 		bl	BCD_Uchar
 406              	.LVL45:
 101:.\LM92.c      ****             LM92_Operational_Struct.Display_String[3 + LM92_Operational_Struct.Sign] = *(BCD_GetPoi
 407              		.loc 1 101 0
 408 015c A578     		ldrb	r5, [r4, #2]
 409 015e FFF7FEFF 		bl	BCD_GetPointerBuf
 410              	.LVL46:
 411 0162 0335     		add	r5, r5, #3
 412 0164 8378     		ldrb	r3, [r0, #2]
 413 0166 6519     		add	r5, r4, r5
 414 0168 6B75     		strb	r3, [r5, #21]
 102:.\LM92.c      ****             BCD_Uchar(LM92_Operational_Struct.Temp_Fractional[0]);
 415              		.loc 1 102 0
 416 016a E07C     		ldrb	r0, [r4, #19]
 417 016c FFF7FEFF 		bl	BCD_Uchar
 418              	.LVL47:
 103:.\LM92.c      ****             LM92_Operational_Struct.Display_String[4 + LM92_Operational_Struct.Sign] = *(BCD_GetPoi
 419              		.loc 1 103 0
 420 0170 A578     		ldrb	r5, [r4, #2]
 421 0172 FFF7FEFF 		bl	BCD_GetPointerBuf
 422              	.LVL48:
 423 0176 0435     		add	r5, r5, #4
 424 0178 8378     		ldrb	r3, [r0, #2]
 425 017a 6519     		add	r5, r4, r5
 426 017c 6B75     		strb	r3, [r5, #21]
 104:.\LM92.c      ****             
 105:.\LM92.c      ****             LM92_Operational_Struct.Display_String[5 + LM92_Operational_Struct.Sign] = 128;
 427              		.loc 1 105 0
 428 017e A378     		ldrb	r3, [r4, #2]
 429 0180 E418     		add	r4, r4, r3
 430 0182 8023     		mov	r3, #128
 431 0184 A376     		strb	r3, [r4, #26]
 106:.\LM92.c      ****             LM92_Operational_Struct.Display_String[6 + LM92_Operational_Struct.Sign] = 'C';
 432              		.loc 1 106 0
 433 0186 3D3B     		sub	r3, r3, #61
 434 0188 E376     		strb	r3, [r4, #27]
 107:.\LM92.c      ****             LM92_Operational_Struct.Display_String[7 + LM92_Operational_Struct.Sign] = '\0';
 435              		.loc 1 107 0
 436 018a 2677     		strb	r6, [r4, #28]
 437 018c 6BE0     		b	.L4
 438              	.LVL49:
 439              	.L11:
 108:.\LM92.c      ****             //Output string -> [I1][I2][,][f1][f2][째][C][EndOfString']
 109:.\LM92.c      ****         }
 110:.\LM92.c      ****             else if(F_Temp > 99)
 440              		.loc 1 110 0
 441 018e 281C     		add	r0, r5, #0
 442 0190 3949     		ldr	r1, .L23+16
 443 0192 FFF7FEFF 		bl	__aeabi_fcmpgt
 444              	.LVL50:
 445 0196 0028     		cmp	r0, #0
 446 0198 65D0     		beq	.L4
ARM GAS  C:\Users\Vit\AppData\Local\Temp\cccDTN3f.s 			page 11


 111:.\LM92.c      ****             {
 112:.\LM92.c      ****                 LM92_Operational_Struct.Temp_Integer[0] = (uint8)F_Temp%10;
 447              		.loc 1 112 0
 448 019a 281C     		add	r0, r5, #0
 449 019c FFF7FEFF 		bl	__aeabi_f2uiz
 450              	.LVL51:
 451 01a0 C6B2     		uxtb	r6, r0
 452 01a2 301C     		mov	r0, r6
 453 01a4 0A21     		mov	r1, #10
 454 01a6 FFF7FEFF 		bl	__aeabi_uidivmod
 455              	.LVL52:
 113:.\LM92.c      ****                 LM92_Operational_Struct.Temp_Integer[1] = ((uint8)F_Temp&100)/10;
 456              		.loc 1 113 0
 457 01aa 6427     		mov	r7, #100
 458 01ac 301C     		mov	r0, r6
 112:.\LM92.c      ****                 LM92_Operational_Struct.Temp_Integer[1] = ((uint8)F_Temp&100)/10;
 459              		.loc 1 112 0
 460 01ae 2174     		strb	r1, [r4, #16]
 461              		.loc 1 113 0
 462 01b0 3840     		and	r0, r7
 463 01b2 0A21     		mov	r1, #10
 464 01b4 FFF7FEFF 		bl	__aeabi_idiv
 465              	.LVL53:
 114:.\LM92.c      ****                 LM92_Operational_Struct.Temp_Integer[2] = (uint8)F_Temp/100;
 466              		.loc 1 114 0
 467 01b8 391C     		mov	r1, r7
 113:.\LM92.c      ****                 LM92_Operational_Struct.Temp_Integer[1] = ((uint8)F_Temp&100)/10;
 468              		.loc 1 113 0
 469 01ba 6074     		strb	r0, [r4, #17]
 470              		.loc 1 114 0
 471 01bc 301C     		mov	r0, r6
 472 01be FFF7FEFF 		bl	__aeabi_uidiv
 473              	.LVL54:
 474 01c2 C6B2     		uxtb	r6, r0
 475 01c4 A674     		strb	r6, [r4, #18]
 115:.\LM92.c      ****                 LM92_Operational_Struct.Temp_Fractional[0] = ((uint8)((uint16)F_Temp * 100)%10);
 476              		.loc 1 115 0
 477 01c6 281C     		add	r0, r5, #0
 478 01c8 FFF7FEFF 		bl	__aeabi_f2uiz
 479              	.LVL55:
 480 01cc 7843     		mul	r0, r7
 481 01ce C5B2     		uxtb	r5, r0
 482              	.LVL56:
 483 01d0 281C     		mov	r0, r5
 484 01d2 0A21     		mov	r1, #10
 485 01d4 FFF7FEFF 		bl	__aeabi_uidivmod
 486              	.LVL57:
 116:.\LM92.c      ****                 LM92_Operational_Struct.Temp_Fractional[1] = (((uint8)((uint16)F_Temp * 100)%100)/1
 487              		.loc 1 116 0
 488 01d8 281C     		mov	r0, r5
 115:.\LM92.c      ****                 LM92_Operational_Struct.Temp_Fractional[0] = ((uint8)((uint16)F_Temp * 100)%10);
 489              		.loc 1 115 0
 490 01da E174     		strb	r1, [r4, #19]
 491              		.loc 1 116 0
 492 01dc 391C     		mov	r1, r7
 493 01de FFF7FEFF 		bl	__aeabi_uidivmod
 494              	.LVL58:
ARM GAS  C:\Users\Vit\AppData\Local\Temp\cccDTN3f.s 			page 12


 495 01e2 C8B2     		uxtb	r0, r1
 496 01e4 0A21     		mov	r1, #10
 497 01e6 FFF7FEFF 		bl	__aeabi_uidiv
 498              	.LVL59:
 499 01ea 2075     		strb	r0, [r4, #20]
 117:.\LM92.c      ****                 
 118:.\LM92.c      ****                 BCD_Uchar(LM92_Operational_Struct.Temp_Integer[2]);
 500              		.loc 1 118 0
 501 01ec 301C     		mov	r0, r6
 502 01ee FFF7FEFF 		bl	BCD_Uchar
 503              	.LVL60:
 119:.\LM92.c      ****                 LM92_Operational_Struct.Display_String[0 + LM92_Operational_Struct.Sign] = *(BCD_Ge
 504              		.loc 1 119 0
 505 01f2 A578     		ldrb	r5, [r4, #2]
 506 01f4 FFF7FEFF 		bl	BCD_GetPointerBuf
 507              	.LVL61:
 508 01f8 8378     		ldrb	r3, [r0, #2]
 509 01fa 6519     		add	r5, r4, r5
 510 01fc 6B75     		strb	r3, [r5, #21]
 120:.\LM92.c      ****                 BCD_Uchar(LM92_Operational_Struct.Temp_Integer[1]);
 511              		.loc 1 120 0
 512 01fe 607C     		ldrb	r0, [r4, #17]
 513 0200 FFF7FEFF 		bl	BCD_Uchar
 514              	.LVL62:
 121:.\LM92.c      ****                 LM92_Operational_Struct.Display_String[1 + LM92_Operational_Struct.Sign] = *(BCD_Ge
 515              		.loc 1 121 0
 516 0204 A578     		ldrb	r5, [r4, #2]
 517 0206 FFF7FEFF 		bl	BCD_GetPointerBuf
 518              	.LVL63:
 519 020a 0135     		add	r5, r5, #1
 520 020c 8378     		ldrb	r3, [r0, #2]
 521 020e 6519     		add	r5, r4, r5
 522 0210 6B75     		strb	r3, [r5, #21]
 122:.\LM92.c      ****                 BCD_Uchar(LM92_Operational_Struct.Temp_Integer[0]);
 523              		.loc 1 122 0
 524 0212 207C     		ldrb	r0, [r4, #16]
 525 0214 FFF7FEFF 		bl	BCD_Uchar
 526              	.LVL64:
 123:.\LM92.c      ****                 LM92_Operational_Struct.Display_String[2 + LM92_Operational_Struct.Sign] = *(BCD_Ge
 527              		.loc 1 123 0
 528 0218 A578     		ldrb	r5, [r4, #2]
 529 021a FFF7FEFF 		bl	BCD_GetPointerBuf
 530              	.LVL65:
 124:.\LM92.c      ****                 
 125:.\LM92.c      ****                 LM92_Operational_Struct.Display_String[3 + LM92_Operational_Struct.Sign] = ',';
 531              		.loc 1 125 0
 532 021e 2C22     		mov	r2, #44
 123:.\LM92.c      ****                 LM92_Operational_Struct.Display_String[2 + LM92_Operational_Struct.Sign] = *(BCD_Ge
 533              		.loc 1 123 0
 534 0220 8378     		ldrb	r3, [r0, #2]
 535 0222 0235     		add	r5, r5, #2
 536 0224 6519     		add	r5, r4, r5
 537 0226 6B75     		strb	r3, [r5, #21]
 538              		.loc 1 125 0
 539 0228 A378     		ldrb	r3, [r4, #2]
 540 022a E318     		add	r3, r4, r3
 541 022c 1A76     		strb	r2, [r3, #24]
ARM GAS  C:\Users\Vit\AppData\Local\Temp\cccDTN3f.s 			page 13


 126:.\LM92.c      ****                 
 127:.\LM92.c      ****                 BCD_Uchar(LM92_Operational_Struct.Temp_Fractional[1]);
 542              		.loc 1 127 0
 543 022e 207D     		ldrb	r0, [r4, #20]
 544 0230 FFF7FEFF 		bl	BCD_Uchar
 545              	.LVL66:
 128:.\LM92.c      ****                 LM92_Operational_Struct.Display_String[4 + LM92_Operational_Struct.Sign] = *(BCD_Ge
 546              		.loc 1 128 0
 547 0234 A578     		ldrb	r5, [r4, #2]
 548 0236 FFF7FEFF 		bl	BCD_GetPointerBuf
 549              	.LVL67:
 550 023a 0435     		add	r5, r5, #4
 551 023c 8378     		ldrb	r3, [r0, #2]
 552 023e 6519     		add	r5, r4, r5
 553 0240 6B75     		strb	r3, [r5, #21]
 129:.\LM92.c      ****                 BCD_Uchar(LM92_Operational_Struct.Temp_Fractional[0]);
 554              		.loc 1 129 0
 555 0242 E07C     		ldrb	r0, [r4, #19]
 556 0244 FFF7FEFF 		bl	BCD_Uchar
 557              	.LVL68:
 130:.\LM92.c      ****                 LM92_Operational_Struct.Display_String[5 + LM92_Operational_Struct.Sign] = *(BCD_Ge
 558              		.loc 1 130 0
 559 0248 A578     		ldrb	r5, [r4, #2]
 560 024a FFF7FEFF 		bl	BCD_GetPointerBuf
 561              	.LVL69:
 562 024e 0535     		add	r5, r5, #5
 563 0250 8378     		ldrb	r3, [r0, #2]
 564 0252 6519     		add	r5, r4, r5
 565 0254 6B75     		strb	r3, [r5, #21]
 131:.\LM92.c      ****                 
 132:.\LM92.c      ****                 LM92_Operational_Struct.Display_String[6 + LM92_Operational_Struct.Sign] = 128;
 566              		.loc 1 132 0
 567 0256 A378     		ldrb	r3, [r4, #2]
 568 0258 E418     		add	r4, r4, r3
 569 025a 8023     		mov	r3, #128
 570 025c E376     		strb	r3, [r4, #27]
 133:.\LM92.c      ****                 LM92_Operational_Struct.Display_String[7 + LM92_Operational_Struct.Sign] = 'C';
 571              		.loc 1 133 0
 572 025e 3D3B     		sub	r3, r3, #61
 573 0260 2377     		strb	r3, [r4, #28]
 134:.\LM92.c      ****                 LM92_Operational_Struct.Display_String[8 + LM92_Operational_Struct.Sign] = '\0';
 574              		.loc 1 134 0
 575 0262 0023     		mov	r3, #0
 576 0264 6377     		strb	r3, [r4, #29]
 577              	.L4:
 135:.\LM92.c      ****                 //Output string -> [I1][I2][I3][,][f1][f2][째][C][EndOfString']
 136:.\LM92.c      ****             }
 137:.\LM92.c      ****     
 138:.\LM92.c      ****     
 139:.\LM92.c      **** }
 578              		.loc 1 139 0
 579              		@ sp needed
 580 0266 F8BD     		pop	{r3, r4, r5, r6, r7, pc}
 581              	.L24:
 582              		.align	2
 583              	.L23:
 584 0268 00000000 		.word	LM92_Operational_Struct
ARM GAS  C:\Users\Vit\AppData\Local\Temp\cccDTN3f.s 			page 14


 585 026c 0000B03F 		.word	1068498944
 586 0270 00001041 		.word	1091567616
 587 0274 0000C842 		.word	1120403456
 588 0278 0000C642 		.word	1120272384
 589              		.cfi_endproc
 590              	.LFE34:
 591              		.size	LM92_GetTemperature, .-LM92_GetTemperature
 592              		.global	LM92_I2C_ADRESS
 593              		.comm	LM92_Operational_Struct,32,2
 594              		.data
 595              		.align	2
 596              		.set	.LANCHOR0,. + 0
 597              		.type	LM92_I2C_ADRESS, %object
 598              		.size	LM92_I2C_ADRESS, 4
 599              	LM92_I2C_ADRESS:
 600 0000 4B000000 		.word	75
 601              		.text
 602              	.Letext0:
 603              		.file 2 "c:\\my programs\\psoc\\psoc creator\\3.3\\psoc creator\\import\\gnu\\arm\\4.9.3\\arm-none
 604              		.file 3 "c:\\my programs\\psoc\\psoc creator\\3.3\\psoc creator\\import\\gnu\\arm\\4.9.3\\arm-none
 605              		.file 4 "Generated_Source\\PSoC4/cytypes.h"
 606              		.file 5 "./LM92.h"
 607              		.file 6 "./bcd.h"