ARM GAS  C:\Users\Vit\AppData\Local\Temp\ccaIXlnT.s 			page 1


   1              		.cpu cortex-m0
   2              		.fpu softvfp
   3              		.eabi_attribute 20, 1
   4              		.eabi_attribute 21, 1
   5              		.eabi_attribute 23, 3
   6              		.eabi_attribute 24, 1
   7              		.eabi_attribute 25, 1
   8              		.eabi_attribute 26, 1
   9              		.eabi_attribute 30, 4
  10              		.eabi_attribute 34, 0
  11              		.eabi_attribute 18, 4
  12              		.code	16
  13              		.file	"main.c"
  14              		.text
  15              	.Ltext0:
  16              		.cfi_sections	.debug_frame
  17              		.section	.text.LM92_Action,"ax",%progbits
  18              		.align	1
  19              		.global	LM92_Action
  20              		.code	16
  21              		.thumb_func
  22              		.type	LM92_Action, %function
  23              	LM92_Action:
  24              	.LFB35:
  25              		.file 1 ".\\main.c"
   1:.\main.c      **** /* ========================================
   2:.\main.c      ****  *
   3:.\main.c      ****  * Copyright YOUR COMPANY, THE YEAR
   4:.\main.c      ****  * All Rights Reserved
   5:.\main.c      ****  * UNPUBLISHED, LICENSED SOFTWARE.
   6:.\main.c      ****  *
   7:.\main.c      ****  * CONFIDENTIAL AND PROPRIETARY INFORMATION
   8:.\main.c      ****  * WHICH IS THE PROPERTY OF your company.
   9:.\main.c      ****  *
  10:.\main.c      ****  * ========================================
  11:.\main.c      **** */
  12:.\main.c      **** #include <project.h>
  13:.\main.c      **** #include <SSD1306.h>
  14:.\main.c      **** #include <LM92.h>
  15:.\main.c      **** #include <BCD.h>
  16:.\main.c      **** #include <string.h>
  17:.\main.c      **** #include <TaskDispatcher.h>
  18:.\main.c      **** #include <Battery.h>
  19:.\main.c      **** 
  20:.\main.c      **** 
  21:.\main.c      **** void Battery_Get_Volts();
  22:.\main.c      **** void ADC_Get_Battery_Volts();
  23:.\main.c      **** 
  24:.\main.c      **** uint32 I2C_SendBuffer(uint32_t DevAddress, uint8_t *pData, uint16_t Size)
  25:.\main.c      **** {
  26:.\main.c      ****     volatile uint32 Error;
  27:.\main.c      ****     I2C_I2CMasterClearStatus();
  28:.\main.c      ****     Error = I2C_I2CMasterWriteBuf(DevAddress, pData, Size, I2C_I2C_MODE_COMPLETE_XFER);
  29:.\main.c      ****     while((I2C_I2CMasterStatus() & I2C_I2C_MSTAT_WR_CMPLT) == 0)
  30:.\main.c      ****     {
  31:.\main.c      ****         
  32:.\main.c      ****     }
ARM GAS  C:\Users\Vit\AppData\Local\Temp\ccaIXlnT.s 			page 2


  33:.\main.c      ****     return Error;
  34:.\main.c      **** }
  35:.\main.c      **** 
  36:.\main.c      **** uint8 I2C_ReadRegister(uint32 Adress, uint8 *pData, uint8 Register, uint8 Registers_Lenght_Bit)
  37:.\main.c      **** {
  38:.\main.c      ****     uint8_t Error;
  39:.\main.c      ****     uint8 Reg[1] = {Register};
  40:.\main.c      ****     I2C_I2CMasterClearStatus();
  41:.\main.c      ****     Error = I2C_I2CMasterWriteBuf(Adress, Reg, 1, I2C_I2C_MODE_NO_STOP);
  42:.\main.c      ****     while((I2C_I2CMasterStatus() & I2C_I2C_MSTAT_WR_CMPLT) == 0)
  43:.\main.c      ****     {
  44:.\main.c      ****         
  45:.\main.c      ****     }
  46:.\main.c      ****     I2C_I2CMasterClearStatus();
  47:.\main.c      ****     Error = I2C_I2CMasterReadBuf(Adress, pData, (Registers_Lenght_Bit/8), I2C_I2C_MODE_REPEAT_START
  48:.\main.c      ****     while((I2C_I2CMasterStatus() & I2C_I2C_MSTAT_RD_CMPLT) == 0)
  49:.\main.c      ****     {
  50:.\main.c      ****         
  51:.\main.c      ****     }
  52:.\main.c      ****     I2C_I2CMasterClearStatus();
  53:.\main.c      ****     return (uint8)Error;
  54:.\main.c      **** }
  55:.\main.c      **** 
  56:.\main.c      **** void LM92_Action()
  57:.\main.c      **** {
  26              		.loc 1 57 0
  27              		.cfi_startproc
  28 0000 08B5     		push	{r3, lr}
  29              		.cfi_def_cfa_offset 8
  30              		.cfi_offset 3, -8
  31              		.cfi_offset 14, -4
  58:.\main.c      ****     LM92_GetRegisters();
  32              		.loc 1 58 0
  33 0002 FFF7FEFF 		bl	LM92_GetRegisters
  34              	.LVL0:
  59:.\main.c      ****     LM92_GetTemperature();
  35              		.loc 1 59 0
  36 0006 FFF7FEFF 		bl	LM92_GetTemperature
  37              	.LVL1:
  60:.\main.c      ****     LCD_GotoXY(0,0);
  38              		.loc 1 60 0
  39 000a 0020     		mov	r0, #0
  40 000c 011C     		mov	r1, r0
  41 000e FFF7FEFF 		bl	LCD_GotoXY
  42              	.LVL2:
  61:.\main.c      ****     LCD_FStr("LM92 Temp: ");
  43              		.loc 1 61 0
  44 0012 0948     		ldr	r0, .L2
  45 0014 FFF7FEFF 		bl	LCD_FStr
  46              	.LVL3:
  62:.\main.c      ****     LCD_GotoXY(11,0);
  47              		.loc 1 62 0
  48 0018 0021     		mov	r1, #0
  49 001a 0B20     		mov	r0, #11
  50 001c FFF7FEFF 		bl	LCD_GotoXY
  51              	.LVL4:
  63:.\main.c      ****     LCD_FStr(LM92_Operational_Struct.Display_String);
ARM GAS  C:\Users\Vit\AppData\Local\Temp\ccaIXlnT.s 			page 3


  52              		.loc 1 63 0
  53 0020 0648     		ldr	r0, .L2+4
  54 0022 FFF7FEFF 		bl	LCD_FStr
  55              	.LVL5:
  64:.\main.c      ****     LCD_Update();
  56              		.loc 1 64 0
  57 0026 FFF7FEFF 		bl	LCD_Update
  58              	.LVL6:
  65:.\main.c      ****     SetTimerTask(LM92_Action, 500);
  59              		.loc 1 65 0
  60 002a FA21     		mov	r1, #250
  61 002c 0448     		ldr	r0, .L2+8
  62 002e 4900     		lsl	r1, r1, #1
  63 0030 FFF7FEFF 		bl	SetTimerTask
  64              	.LVL7:
  66:.\main.c      **** }
  65              		.loc 1 66 0
  66              		@ sp needed
  67 0034 08BD     		pop	{r3, pc}
  68              	.L3:
  69 0036 C046     		.align	2
  70              	.L2:
  71 0038 00000000 		.word	.LC0
  72 003c 15000000 		.word	LM92_Operational_Struct+21
  73 0040 00000000 		.word	LM92_Action
  74              		.cfi_endproc
  75              	.LFE35:
  76              		.size	LM92_Action, .-LM92_Action
  77              		.section	.text.ADC_Start_Convert_Task,"ax",%progbits
  78              		.align	1
  79              		.global	ADC_Start_Convert_Task
  80              		.code	16
  81              		.thumb_func
  82              		.type	ADC_Start_Convert_Task, %function
  83              	ADC_Start_Convert_Task:
  84              	.LFB36:
  67:.\main.c      **** 
  68:.\main.c      **** void ADC_Start_Convert_Task()
  69:.\main.c      **** {
  85              		.loc 1 69 0
  86              		.cfi_startproc
  87 0000 08B5     		push	{r3, lr}
  88              		.cfi_def_cfa_offset 8
  89              		.cfi_offset 3, -8
  90              		.cfi_offset 14, -4
  70:.\main.c      ****     ADC_StartConvert();
  91              		.loc 1 70 0
  92 0002 FFF7FEFF 		bl	ADC_StartConvert
  93              	.LVL8:
  71:.\main.c      ****     SetTimerTask(ADC_Get_Battery_Volts, 10);
  94              		.loc 1 71 0
  95 0006 0248     		ldr	r0, .L5
  96 0008 0A21     		mov	r1, #10
  97 000a FFF7FEFF 		bl	SetTimerTask
  98              	.LVL9:
  72:.\main.c      **** }
  99              		.loc 1 72 0
ARM GAS  C:\Users\Vit\AppData\Local\Temp\ccaIXlnT.s 			page 4


 100              		@ sp needed
 101 000e 08BD     		pop	{r3, pc}
 102              	.L6:
 103              		.align	2
 104              	.L5:
 105 0010 00000000 		.word	ADC_Get_Battery_Volts
 106              		.cfi_endproc
 107              	.LFE36:
 108              		.size	ADC_Start_Convert_Task, .-ADC_Start_Convert_Task
 109              		.section	.text.ADC_Get_Battery_Volts,"ax",%progbits
 110              		.align	1
 111              		.global	ADC_Get_Battery_Volts
 112              		.code	16
 113              		.thumb_func
 114              		.type	ADC_Get_Battery_Volts, %function
 115              	ADC_Get_Battery_Volts:
 116              	.LFB37:
  73:.\main.c      **** 
  74:.\main.c      **** void ADC_Get_Battery_Volts()
  75:.\main.c      **** {
 117              		.loc 1 75 0
 118              		.cfi_startproc
 119 0000 08B5     		push	{r3, lr}
 120              		.cfi_def_cfa_offset 8
 121              		.cfi_offset 3, -8
 122              		.cfi_offset 14, -4
  76:.\main.c      ****     if(ADC_IsEndConversion(ADC_RETURN_STATUS))
 123              		.loc 1 76 0
 124 0002 0120     		mov	r0, #1
 125 0004 FFF7FEFF 		bl	ADC_IsEndConversion
 126              	.LVL10:
 127 0008 0028     		cmp	r0, #0
 128 000a 18D0     		beq	.L8
 129              	.LBB4:
 130              	.LBB5:
  77:.\main.c      ****     {
  78:.\main.c      ****         Battery_Operation_Struct.ADC_Result = ADC_GetResult16(0);
 131              		.loc 1 78 0
 132 000c 0020     		mov	r0, #0
 133 000e FFF7FEFF 		bl	ADC_GetResult16
 134              	.LVL11:
 135 0012 0D4B     		ldr	r3, .L12
 136 0014 1880     		strh	r0, [r3]
  79:.\main.c      ****         Battery_Get_Volts();
 137              		.loc 1 79 0
 138 0016 FFF7FEFF 		bl	Battery_Get_Volts
 139              	.LVL12:
  80:.\main.c      ****         LCD_GotoXY(0,1);
 140              		.loc 1 80 0
 141 001a 0121     		mov	r1, #1
 142 001c 0020     		mov	r0, #0
 143 001e FFF7FEFF 		bl	LCD_GotoXY
 144              	.LVL13:
  81:.\main.c      ****         LCD_FStr("Battery: ");
 145              		.loc 1 81 0
 146 0022 0A48     		ldr	r0, .L12+4
 147 0024 FFF7FEFF 		bl	LCD_FStr
ARM GAS  C:\Users\Vit\AppData\Local\Temp\ccaIXlnT.s 			page 5


 148              	.LVL14:
  82:.\main.c      ****         LCD_GotoXY(9,1);
 149              		.loc 1 82 0
 150 0028 0121     		mov	r1, #1
 151 002a 0920     		mov	r0, #9
 152 002c FFF7FEFF 		bl	LCD_GotoXY
 153              	.LVL15:
  83:.\main.c      ****         LCD_FStr(Battery_Operation_Struct.Display_String);
 154              		.loc 1 83 0
 155 0030 0748     		ldr	r0, .L12+8
 156 0032 FFF7FEFF 		bl	LCD_FStr
 157              	.LVL16:
  84:.\main.c      ****         SetTimerTask(ADC_Start_Convert_Task, 1000);
 158              		.loc 1 84 0
 159 0036 FA21     		mov	r1, #250
 160 0038 0648     		ldr	r0, .L12+12
 161 003a 8900     		lsl	r1, r1, #2
 162 003c 01E0     		b	.L10
 163              	.L8:
 164              	.LBE5:
 165              	.LBE4:
  85:.\main.c      ****     }
  86:.\main.c      ****     else
  87:.\main.c      ****     {
  88:.\main.c      ****         SetTimerTask(ADC_Get_Battery_Volts, 10);
 166              		.loc 1 88 0
 167 003e 0A21     		mov	r1, #10
 168 0040 0548     		ldr	r0, .L12+16
 169              	.L10:
 170 0042 FFF7FEFF 		bl	SetTimerTask
 171              	.LVL17:
  89:.\main.c      ****     }
  90:.\main.c      **** }
 172              		.loc 1 90 0
 173              		@ sp needed
 174 0046 08BD     		pop	{r3, pc}
 175              	.L13:
 176              		.align	2
 177              	.L12:
 178 0048 00000000 		.word	Battery_Operation_Struct
 179 004c 0C000000 		.word	.LC6
 180 0050 04000000 		.word	Battery_Operation_Struct+4
 181 0054 00000000 		.word	ADC_Start_Convert_Task
 182 0058 00000000 		.word	ADC_Get_Battery_Volts
 183              		.cfi_endproc
 184              	.LFE37:
 185              		.size	ADC_Get_Battery_Volts, .-ADC_Get_Battery_Volts
 186              		.section	.text.I2C_SendBuffer,"ax",%progbits
 187              		.align	1
 188              		.global	I2C_SendBuffer
 189              		.code	16
 190              		.thumb_func
 191              		.type	I2C_SendBuffer, %function
 192              	I2C_SendBuffer:
 193              	.LFB33:
  25:.\main.c      ****     volatile uint32 Error;
 194              		.loc 1 25 0
ARM GAS  C:\Users\Vit\AppData\Local\Temp\ccaIXlnT.s 			page 6


 195              		.cfi_startproc
 196              	.LVL18:
 197 0000 73B5     		push	{r0, r1, r4, r5, r6, lr}
 198              		.cfi_def_cfa_offset 24
 199              		.cfi_offset 0, -24
 200              		.cfi_offset 1, -20
 201              		.cfi_offset 4, -16
 202              		.cfi_offset 5, -12
 203              		.cfi_offset 6, -8
 204              		.cfi_offset 14, -4
  25:.\main.c      ****     volatile uint32 Error;
 205              		.loc 1 25 0
 206 0002 061C     		mov	r6, r0
 207 0004 0D1C     		mov	r5, r1
 208 0006 141C     		mov	r4, r2
  27:.\main.c      ****     Error = I2C_I2CMasterWriteBuf(DevAddress, pData, Size, I2C_I2C_MODE_COMPLETE_XFER);
 209              		.loc 1 27 0
 210 0008 FFF7FEFF 		bl	I2C_I2CMasterClearStatus
 211              	.LVL19:
  28:.\main.c      ****     while((I2C_I2CMasterStatus() & I2C_I2C_MSTAT_WR_CMPLT) == 0)
 212              		.loc 1 28 0
 213 000c 301C     		mov	r0, r6
 214 000e 291C     		mov	r1, r5
 215 0010 221C     		mov	r2, r4
 216 0012 0023     		mov	r3, #0
 217 0014 FFF7FEFF 		bl	I2C_I2CMasterWriteBuf
 218              	.LVL20:
 219 0018 0190     		str	r0, [sp, #4]
 220              	.L15:
  29:.\main.c      ****     {
 221              		.loc 1 29 0 discriminator 1
 222 001a FFF7FEFF 		bl	I2C_I2CMasterStatus
 223              	.LVL21:
 224 001e 8307     		lsl	r3, r0, #30
 225 0020 FBD5     		bpl	.L15
  33:.\main.c      **** }
 226              		.loc 1 33 0
 227 0022 0198     		ldr	r0, [sp, #4]
  34:.\main.c      **** 
 228              		.loc 1 34 0
 229              		@ sp needed
 230              	.LVL22:
 231              	.LVL23:
 232 0024 76BD     		pop	{r1, r2, r4, r5, r6, pc}
 233              		.cfi_endproc
 234              	.LFE33:
 235              		.size	I2C_SendBuffer, .-I2C_SendBuffer
 236              		.section	.text.I2C_ReadRegister,"ax",%progbits
 237              		.align	1
 238              		.global	I2C_ReadRegister
 239              		.code	16
 240              		.thumb_func
 241              		.type	I2C_ReadRegister, %function
 242              	I2C_ReadRegister:
 243              	.LFB34:
  37:.\main.c      ****     uint8_t Error;
 244              		.loc 1 37 0
ARM GAS  C:\Users\Vit\AppData\Local\Temp\ccaIXlnT.s 			page 7


 245              		.cfi_startproc
 246              	.LVL24:
 247 0000 F7B5     		push	{r0, r1, r2, r4, r5, r6, r7, lr}
 248              		.cfi_def_cfa_offset 32
 249              		.cfi_offset 0, -32
 250              		.cfi_offset 1, -28
 251              		.cfi_offset 2, -24
 252              		.cfi_offset 4, -20
 253              		.cfi_offset 5, -16
 254              		.cfi_offset 6, -12
 255              		.cfi_offset 7, -8
 256              		.cfi_offset 14, -4
  37:.\main.c      ****     uint8_t Error;
 257              		.loc 1 37 0
 258 0002 051C     		mov	r5, r0
  39:.\main.c      ****     I2C_I2CMasterClearStatus();
 259              		.loc 1 39 0
 260 0004 01AF     		add	r7, sp, #4
  37:.\main.c      ****     uint8_t Error;
 261              		.loc 1 37 0
 262 0006 0E1C     		mov	r6, r1
 263 0008 1C1C     		mov	r4, r3
  39:.\main.c      ****     I2C_I2CMasterClearStatus();
 264              		.loc 1 39 0
 265 000a 3A70     		strb	r2, [r7]
  40:.\main.c      ****     Error = I2C_I2CMasterWriteBuf(Adress, Reg, 1, I2C_I2C_MODE_NO_STOP);
 266              		.loc 1 40 0
 267 000c FFF7FEFF 		bl	I2C_I2CMasterClearStatus
 268              	.LVL25:
  41:.\main.c      ****     while((I2C_I2CMasterStatus() & I2C_I2C_MSTAT_WR_CMPLT) == 0)
 269              		.loc 1 41 0
 270 0010 281C     		mov	r0, r5
 271 0012 391C     		mov	r1, r7
 272 0014 0122     		mov	r2, #1
 273 0016 0223     		mov	r3, #2
 274 0018 FFF7FEFF 		bl	I2C_I2CMasterWriteBuf
 275              	.LVL26:
 276              	.L18:
  42:.\main.c      ****     {
 277              		.loc 1 42 0 discriminator 1
 278 001c FFF7FEFF 		bl	I2C_I2CMasterStatus
 279              	.LVL27:
 280 0020 8307     		lsl	r3, r0, #30
 281 0022 FBD5     		bpl	.L18
  46:.\main.c      ****     Error = I2C_I2CMasterReadBuf(Adress, pData, (Registers_Lenght_Bit/8), I2C_I2C_MODE_REPEAT_START
 282              		.loc 1 46 0
 283 0024 FFF7FEFF 		bl	I2C_I2CMasterClearStatus
 284              	.LVL28:
  47:.\main.c      ****     while((I2C_I2CMasterStatus() & I2C_I2C_MSTAT_RD_CMPLT) == 0)
 285              		.loc 1 47 0
 286 0028 E208     		lsr	r2, r4, #3
 287 002a 281C     		mov	r0, r5
 288 002c 311C     		mov	r1, r6
 289 002e 0123     		mov	r3, #1
 290 0030 FFF7FEFF 		bl	I2C_I2CMasterReadBuf
 291              	.LVL29:
 292 0034 C4B2     		uxtb	r4, r0
ARM GAS  C:\Users\Vit\AppData\Local\Temp\ccaIXlnT.s 			page 8


 293              	.LVL30:
 294              	.L19:
  48:.\main.c      ****     {
 295              		.loc 1 48 0 discriminator 1
 296 0036 FFF7FEFF 		bl	I2C_I2CMasterStatus
 297              	.LVL31:
 298 003a C307     		lsl	r3, r0, #31
 299 003c FBD5     		bpl	.L19
  52:.\main.c      ****     return (uint8)Error;
 300              		.loc 1 52 0
 301 003e FFF7FEFF 		bl	I2C_I2CMasterClearStatus
 302              	.LVL32:
  54:.\main.c      **** 
 303              		.loc 1 54 0
 304              		@ sp needed
 305 0042 201C     		mov	r0, r4
 306              	.LVL33:
 307              	.LVL34:
 308              	.LVL35:
 309 0044 FEBD     		pop	{r1, r2, r3, r4, r5, r6, r7, pc}
 310              		.cfi_endproc
 311              	.LFE34:
 312              		.size	I2C_ReadRegister, .-I2C_ReadRegister
 313              		.section	.text.startup.main,"ax",%progbits
 314              		.align	1
 315              		.global	main
 316              		.code	16
 317              		.thumb_func
 318              		.type	main, %function
 319              	main:
 320              	.LFB38:
  91:.\main.c      **** 
  92:.\main.c      **** 
  93:.\main.c      **** 
  94:.\main.c      **** 
  95:.\main.c      **** 
  96:.\main.c      **** 
  97:.\main.c      **** int main()
  98:.\main.c      **** {
 321              		.loc 1 98 0
 322              		.cfi_startproc
 323 0000 08B5     		push	{r3, lr}
 324              		.cfi_def_cfa_offset 8
 325              		.cfi_offset 3, -8
 326              		.cfi_offset 14, -4
  99:.\main.c      ****     DisplayReset_Write(1);    
 327              		.loc 1 99 0
 328 0002 0120     		mov	r0, #1
 329 0004 FFF7FEFF 		bl	DisplayReset_Write
 330              	.LVL36:
 100:.\main.c      ****     CyGlobalIntEnable;
 331              		.loc 1 100 0
 332              	@ 100 ".\main.c" 1
 333 0008 62B6     		CPSIE   i
 334              	@ 0 "" 2
 101:.\main.c      ****     I2C_Start();
 335              		.loc 1 101 0
ARM GAS  C:\Users\Vit\AppData\Local\Temp\ccaIXlnT.s 			page 9


 336              		.code	16
 337 000a FFF7FEFF 		bl	I2C_Start
 338              	.LVL37:
 102:.\main.c      ****     CyDelay(300);
 339              		.loc 1 102 0
 340 000e 9620     		mov	r0, #150
 341 0010 4000     		lsl	r0, r0, #1
 342 0012 FFF7FEFF 		bl	CyDelay
 343              	.LVL38:
 103:.\main.c      ****     LCD_Init();
 344              		.loc 1 103 0
 345 0016 FFF7FEFF 		bl	LCD_Init
 346              	.LVL39:
 104:.\main.c      ****     LCD_Clear();
 347              		.loc 1 104 0
 348 001a FFF7FEFF 		bl	LCD_Clear
 349              	.LVL40:
 105:.\main.c      ****     LCD_Update();
 350              		.loc 1 105 0
 351 001e FFF7FEFF 		bl	LCD_Update
 352              	.LVL41:
 106:.\main.c      ****     ADC_Start();
 353              		.loc 1 106 0
 354 0022 FFF7FEFF 		bl	ADC_Start
 355              	.LVL42:
 107:.\main.c      ****     Timer_Start();
 356              		.loc 1 107 0
 357 0026 FFF7FEFF 		bl	Timer_Start
 358              	.LVL43:
 108:.\main.c      ****     RTOS_Start();
 359              		.loc 1 108 0
 360 002a FFF7FEFF 		bl	RTOS_Start
 361              	.LVL44:
 109:.\main.c      ****     SetTimerTask(LM92_Action, 500);
 362              		.loc 1 109 0
 363 002e FA21     		mov	r1, #250
 364 0030 0548     		ldr	r0, .L24
 365 0032 4900     		lsl	r1, r1, #1
 366 0034 FFF7FEFF 		bl	SetTimerTask
 367              	.LVL45:
 110:.\main.c      ****     SetTimerTask(ADC_Start_Convert_Task, 600);    
 368              		.loc 1 110 0
 369 0038 9621     		mov	r1, #150
 370 003a 0448     		ldr	r0, .L24+4
 371 003c 8900     		lsl	r1, r1, #2
 372 003e FFF7FEFF 		bl	SetTimerTask
 373              	.LVL46:
 374              	.L23:
 111:.\main.c      ****     for(;;)
 112:.\main.c      ****     {
 113:.\main.c      ****         TaskManager();
 375              		.loc 1 113 0 discriminator 1
 376 0042 FFF7FEFF 		bl	TaskManager
 377              	.LVL47:
 114:.\main.c      ****     }
 378              		.loc 1 114 0 discriminator 1
 379 0046 FCE7     		b	.L23
ARM GAS  C:\Users\Vit\AppData\Local\Temp\ccaIXlnT.s 			page 10


 380              	.L25:
 381              		.align	2
 382              	.L24:
 383 0048 00000000 		.word	LM92_Action
 384 004c 00000000 		.word	ADC_Start_Convert_Task
 385              		.cfi_endproc
 386              	.LFE38:
 387              		.size	main, .-main
 388              		.comm	Battery_Operation_Struct,14,2
 389              		.comm	LM92_Operational_Struct,32,2
 390              		.section	.rodata.str1.1,"aMS",%progbits,1
 391              	.LC0:
 392 0000 4C4D3932 		.ascii	"LM92 Temp: \000"
 392      2054656D 
 392      703A2000 
 393              	.LC6:
 394 000c 42617474 		.ascii	"Battery: \000"
 394      6572793A 
 394      2000
 395              		.bss
 396              		.align	2
 397              		.type	MainTimer, %object
 398              		.size	MainTimer, 168
 399              	MainTimer:
 400 0000 00000000 		.space	168
 400      00000000 
 400      00000000 
 400      00000000 
 400      00000000 
 401              		.type	TaskQueue, %object
 402              		.size	TaskQueue, 44
 403              	TaskQueue:
 404 00a8 00000000 		.space	44
 404      00000000 
 404      00000000 
 404      00000000 
 404      00000000 
 405              		.text
 406              	.Letext0:
 407              		.file 2 "c:\\my programs\\psoc\\psoc creator\\3.3\\psoc creator\\import\\gnu\\arm\\4.9.3\\arm-none
 408              		.file 3 "c:\\my programs\\psoc\\psoc creator\\3.3\\psoc creator\\import\\gnu\\arm\\4.9.3\\arm-none
 409              		.file 4 "Generated_Source\\PSoC4/cytypes.h"
 410              		.file 5 "./LM92.h"
 411              		.file 6 "./TaskDispatcher.h"
 412              		.file 7 "./Battery.h"
 413              		.file 8 "./SSD1306.h"
 414              		.file 9 "Generated_Source\\PSoC4/ADC.h"
 415              		.file 10 "Generated_Source\\PSoC4/I2C_I2C.h"
 416              		.file 11 "Generated_Source\\PSoC4/DisplayReset.h"
 417              		.file 12 "Generated_Source\\PSoC4/I2C.h"
 418              		.file 13 "Generated_Source\\PSoC4/CyLib.h"
 419              		.file 14 "Generated_Source\\PSoC4/Timer.h"