ARM GAS  C:\Users\Vit\AppData\Local\Temp\cc4aOOs2.s 			page 1


   1              		.cpu cortex-m0
   2              		.fpu softvfp
   3              		.eabi_attribute 20, 1
   4              		.eabi_attribute 21, 1
   5              		.eabi_attribute 23, 3
   6              		.eabi_attribute 24, 1
   7              		.eabi_attribute 25, 1
   8              		.eabi_attribute 26, 1
   9              		.eabi_attribute 30, 4
  10              		.eabi_attribute 34, 0
  11              		.eabi_attribute 18, 4
  12              		.code	16
  13              		.file	"SSD1306.c"
  14              		.text
  15              	.Ltext0:
  16              		.cfi_sections	.debug_frame
  17              		.section	.text.I2C_SendCommand,"ax",%progbits
  18              		.align	1
  19              		.global	I2C_SendCommand
  20              		.code	16
  21              		.thumb_func
  22              		.type	I2C_SendCommand, %function
  23              	I2C_SendCommand:
  24              	.LFB33:
  25              		.file 1 ".\\SSD1306.c"
   1:.\SSD1306.c   **** #include "SSD1306.h"
   2:.\SSD1306.c   **** 
   3:.\SSD1306.c   **** extern uint32 I2C_SendBuffer(uint32_t DevAddress, uint8_t *pData, uint16_t Size);
   4:.\SSD1306.c   **** 
   5:.\SSD1306.c   **** volatile uint8_t lcd_buff[1024];
   6:.\SSD1306.c   **** 
   7:.\SSD1306.c   **** volatile int lcd_buff_idx=0;
   8:.\SSD1306.c   **** 
   9:.\SSD1306.c   **** volatile uint8_t x_cur=0, y_cur=0;
  10:.\SSD1306.c   **** 
  11:.\SSD1306.c   **** 
  12:.\SSD1306.c   **** /*
  13:.\SSD1306.c   ****  * Таблица для отображения символов (ASCII[0x20-0x7F] + CP1251[0xC0-0xFF] = всего 160 символов)
  14:.\SSD1306.c   ****  */
  15:.\SSD1306.c   **** const uint8_t font [][5]=
  16:.\SSD1306.c   **** {
  17:.\SSD1306.c   ****    { 0x00, 0x00, 0x00, 0x00, 0x00 },   //   0x20  32
  18:.\SSD1306.c   ****    { 0x00, 0x00, 0x5F, 0x00, 0x00 },   // ! 0x21  33
  19:.\SSD1306.c   ****    { 0x00, 0x07, 0x00, 0x07, 0x00 },   // " 0x22  34
  20:.\SSD1306.c   ****    { 0x14, 0x7F, 0x14, 0x7F, 0x14 },   // # 0x23  35
  21:.\SSD1306.c   ****    { 0x24, 0x2A, 0x7F, 0x2A, 0x12 },   // $ 0x24  36
  22:.\SSD1306.c   ****    { 0x4C, 0x2C, 0x10, 0x68, 0x64 },   // % 0x25  37
  23:.\SSD1306.c   ****    { 0x36, 0x49, 0x55, 0x22, 0x50 },   // & 0x26  38
  24:.\SSD1306.c   ****    { 0x00, 0x05, 0x03, 0x00, 0x00 },   // ' 0x27  39
  25:.\SSD1306.c   ****    { 0x00, 0x1C, 0x22, 0x41, 0x00 },   // ( 0x28  40
  26:.\SSD1306.c   ****    { 0x00, 0x41, 0x22, 0x1C, 0x00 },   // ) 0x29  41
  27:.\SSD1306.c   ****    { 0x14, 0x08, 0x3E, 0x08, 0x14 },   // * 0x2A  42
  28:.\SSD1306.c   ****    { 0x08, 0x08, 0x3E, 0x08, 0x08 },   // + 0x2B  43
  29:.\SSD1306.c   ****    { 0x00, 0x00, 0x50, 0x30, 0x00 },   // , 0x2C  44
  30:.\SSD1306.c   ****    { 0x10, 0x10, 0x10, 0x10, 0x10 },   // - 0x2D  45
  31:.\SSD1306.c   ****    { 0x00, 0x60, 0x60, 0x00, 0x00 },   // . 0x2E  46
  32:.\SSD1306.c   ****    { 0x20, 0x10, 0x08, 0x04, 0x02 },   // / 0x2F  47
ARM GAS  C:\Users\Vit\AppData\Local\Temp\cc4aOOs2.s 			page 2


  33:.\SSD1306.c   ****    { 0x3E, 0x51, 0x49, 0x45, 0x3E },   // 0 0x30  48
  34:.\SSD1306.c   ****    { 0x00, 0x42, 0x7F, 0x40, 0x00 },   // 1 0x31  49
  35:.\SSD1306.c   ****    { 0x42, 0x61, 0x51, 0x49, 0x46 },   // 2 0x32  50
  36:.\SSD1306.c   ****    { 0x21, 0x41, 0x45, 0x4B, 0x31 },   // 3 0x33  51
  37:.\SSD1306.c   ****    { 0x18, 0x14, 0x12, 0x7F, 0x10 },   // 4 0x34  52
  38:.\SSD1306.c   ****    { 0x27, 0x45, 0x45, 0x45, 0x39 },   // 5 0x35  53
  39:.\SSD1306.c   ****    { 0x3C, 0x4A, 0x49, 0x49, 0x30 },   // 6 0x36  54
  40:.\SSD1306.c   ****    { 0x01, 0x71, 0x09, 0x05, 0x03 },   // 7 0x37  55
  41:.\SSD1306.c   ****    { 0x36, 0x49, 0x49, 0x49, 0x36 },   // 8 0x38  56
  42:.\SSD1306.c   ****    { 0x06, 0x49, 0x49, 0x29, 0x1E },   // 9 0x39  57
  43:.\SSD1306.c   ****    { 0x00, 0x36, 0x36, 0x00, 0x00 },   // : 0x3A  58
  44:.\SSD1306.c   ****    { 0x00, 0x56, 0x36, 0x00, 0x00 },   // ; 0x3B  59
  45:.\SSD1306.c   ****    { 0x08, 0x14, 0x22, 0x41, 0x00 },   // < 0x3C  60
  46:.\SSD1306.c   ****    { 0x14, 0x14, 0x14, 0x14, 0x14 },   // = 0x3D  61
  47:.\SSD1306.c   ****    { 0x00, 0x41, 0x22, 0x14, 0x08 },   // > 0x3E  62
  48:.\SSD1306.c   ****    { 0x02, 0x01, 0x51, 0x09, 0x06 },   // ? 0x3F  63
  49:.\SSD1306.c   ****    { 0x32, 0x49, 0x79, 0x41, 0x3E },   // @ 0x40  64
  50:.\SSD1306.c   ****    { 0x7E, 0x11, 0x11, 0x11, 0x7E },   // A 0x41  65
  51:.\SSD1306.c   ****    { 0x7F, 0x49, 0x49, 0x49, 0x36 },   // B 0x42  66
  52:.\SSD1306.c   ****    { 0x3E, 0x41, 0x41, 0x41, 0x22 },   // C 0x43  67
  53:.\SSD1306.c   ****    { 0x7F, 0x41, 0x41, 0x22, 0x1C },   // D 0x44  68
  54:.\SSD1306.c   ****    { 0x7F, 0x49, 0x49, 0x49, 0x41 },   // E 0x45  69
  55:.\SSD1306.c   ****    { 0x7F, 0x09, 0x09, 0x09, 0x01 },   // F 0x46  70
  56:.\SSD1306.c   ****    { 0x3E, 0x41, 0x49, 0x49, 0x7A },   // G 0x47  71
  57:.\SSD1306.c   ****    { 0x7F, 0x08, 0x08, 0x08, 0x7F },   // H 0x48  72
  58:.\SSD1306.c   ****    { 0x00, 0x41, 0x7F, 0x41, 0x00 },   // I 0x49  73
  59:.\SSD1306.c   ****    { 0x20, 0x40, 0x41, 0x3F, 0x01 },   // J 0x4A  74
  60:.\SSD1306.c   ****    { 0x7F, 0x08, 0x14, 0x22, 0x41 },   // K 0x4B  75
  61:.\SSD1306.c   ****    { 0x7F, 0x40, 0x40, 0x40, 0x40 },   // L 0x4C  76
  62:.\SSD1306.c   ****    { 0x7F, 0x02, 0x0C, 0x02, 0x7F },   // M 0x4D  77
  63:.\SSD1306.c   ****    { 0x7F, 0x04, 0x08, 0x10, 0x7F },   // N 0x4E  78
  64:.\SSD1306.c   ****    { 0x3E, 0x41, 0x41, 0x41, 0x3E },   // O 0x4F  79
  65:.\SSD1306.c   ****    { 0x7F, 0x09, 0x09, 0x09, 0x06 },   // P 0x50  80
  66:.\SSD1306.c   ****    { 0x3E, 0x41, 0x51, 0x21, 0x5E },   // Q 0x51  81
  67:.\SSD1306.c   ****    { 0x7F, 0x09, 0x19, 0x29, 0x46 },   // R 0x52  82
  68:.\SSD1306.c   ****    { 0x46, 0x49, 0x49, 0x49, 0x31 },   // S 0x53  83
  69:.\SSD1306.c   ****    { 0x01, 0x01, 0x7F, 0x01, 0x01 },   // T 0x54  84
  70:.\SSD1306.c   ****    { 0x3F, 0x40, 0x40, 0x40, 0x3F },   // U 0x55  85
  71:.\SSD1306.c   ****    { 0x1F, 0x20, 0x40, 0x20, 0x1F },   // V 0x56  86
  72:.\SSD1306.c   ****    { 0x3F, 0x40, 0x38, 0x40, 0x3F },   // W 0x57  87
  73:.\SSD1306.c   ****    { 0x63, 0x14, 0x08, 0x14, 0x63 },   // X 0x58  88
  74:.\SSD1306.c   ****    { 0x07, 0x08, 0x70, 0x08, 0x07 },   // Y 0x59  89
  75:.\SSD1306.c   ****    { 0x61, 0x51, 0x49, 0x45, 0x43 },   // Z 0x5A  90
  76:.\SSD1306.c   ****    { 0x00, 0x7F, 0x41, 0x41, 0x00 },   // [ 0x5B  91
  77:.\SSD1306.c   ****    { 0x02, 0x04, 0x08, 0x10, 0x20 },   // \ 0x5C  92
  78:.\SSD1306.c   ****    { 0x00, 0x41, 0x41, 0x7F, 0x00 },   // ] 0x5D  93
  79:.\SSD1306.c   ****    { 0x04, 0x02, 0x01, 0x02, 0x04 },   // ^ 0x5E  94
  80:.\SSD1306.c   ****    { 0x40, 0x40, 0x40, 0x40, 0x40 },   // _ 0x5F  95
  81:.\SSD1306.c   ****    { 0x00, 0x01, 0x02, 0x04, 0x00 },   // ` 0x60  96
  82:.\SSD1306.c   ****    { 0x20, 0x54, 0x54, 0x54, 0x78 },   // a 0x61  97
  83:.\SSD1306.c   ****    { 0x7F, 0x48, 0x44, 0x44, 0x38 },   // b 0x62  98
  84:.\SSD1306.c   ****    { 0x38, 0x44, 0x44, 0x44, 0x20 },   // c 0x63  99
  85:.\SSD1306.c   ****    { 0x38, 0x44, 0x44, 0x48, 0x7F },   // d 0x64 100
  86:.\SSD1306.c   ****    { 0x38, 0x54, 0x54, 0x54, 0x18 },   // e 0x65 101
  87:.\SSD1306.c   ****    { 0x08, 0x7E, 0x09, 0x01, 0x02 },   // f 0x66 102
  88:.\SSD1306.c   ****    { 0x0C, 0x52, 0x52, 0x52, 0x3E },   // g 0x67 103
  89:.\SSD1306.c   ****    { 0x7F, 0x08, 0x04, 0x04, 0x78 },   // h 0x68 104
ARM GAS  C:\Users\Vit\AppData\Local\Temp\cc4aOOs2.s 			page 3


  90:.\SSD1306.c   ****    { 0x00, 0x44, 0x7D, 0x40, 0x00 },   // i 0x69 105
  91:.\SSD1306.c   ****    { 0x20, 0x40, 0x44, 0x3D, 0x00 },   // j 0x6A 106
  92:.\SSD1306.c   ****    { 0x7F, 0x10, 0x28, 0x44, 0x00 },   // k 0x6B 107
  93:.\SSD1306.c   ****    { 0x00, 0x41, 0x7F, 0x40, 0x00 },   // l 0x6C 108
  94:.\SSD1306.c   ****    { 0x7C, 0x04, 0x18, 0x04, 0x78 },   // m 0x6D 109
  95:.\SSD1306.c   ****    { 0x7C, 0x08, 0x04, 0x04, 0x78 },   // n 0x6E 110
  96:.\SSD1306.c   ****    { 0x38, 0x44, 0x44, 0x44, 0x38 },   // o 0x6F 111
  97:.\SSD1306.c   ****    { 0x7C, 0x14, 0x14, 0x14, 0x08 },   // p 0x70 112
  98:.\SSD1306.c   ****    { 0x08, 0x14, 0x14, 0x18, 0x7C },   // q 0x71 113
  99:.\SSD1306.c   ****    { 0x7C, 0x08, 0x04, 0x04, 0x08 },   // r 0x72 114
 100:.\SSD1306.c   ****    { 0x48, 0x54, 0x54, 0x54, 0x20 },   // s 0x73 115
 101:.\SSD1306.c   ****    { 0x04, 0x3F, 0x44, 0x40, 0x20 },   // t 0x74 116
 102:.\SSD1306.c   ****    { 0x3C, 0x40, 0x40, 0x20, 0x7C },   // u 0x75 117
 103:.\SSD1306.c   ****    { 0x1C, 0x20, 0x40, 0x20, 0x1C },   // v 0x76 118
 104:.\SSD1306.c   ****    { 0x3C, 0x40, 0x30, 0x40, 0x3C },   // w 0x77 119
 105:.\SSD1306.c   ****    { 0x44, 0x28, 0x10, 0x28, 0x44 },   // x 0x78 120
 106:.\SSD1306.c   ****    { 0x0C, 0x50, 0x50, 0x50, 0x3C },   // y 0x79 121
 107:.\SSD1306.c   ****    { 0x44, 0x64, 0x54, 0x4C, 0x44 },   // z 0x7A 122
 108:.\SSD1306.c   ****    { 0x00, 0x08, 0x36, 0x41, 0x00 },   // { 0x7B 123
 109:.\SSD1306.c   ****    { 0x00, 0x00, 0x7F, 0x00, 0x00 },   // | 0x7C 124
 110:.\SSD1306.c   ****    { 0x00, 0x41, 0x36, 0x08, 0x00 },   // } 0x7D 125
 111:.\SSD1306.c   ****    { 0x08, 0x04, 0x08, 0x10, 0x08 },   // ~ 0x7E 126
 112:.\SSD1306.c   ****    { 0xFF, 0xFF, 0xFF, 0xFF, 0xFF },   //  0x7F 127
 113:.\SSD1306.c   ****    { 0x06, 0x09, 0x09, 0x06, 0x00 },   // ° 0xAF 175
 114:.\SSD1306.c   **** 
 115:.\SSD1306.c   ****    { 0x7C, 0x12, 0x11, 0x12, 0x7C },   // А 0xC0 192
 116:.\SSD1306.c   ****    { 0x7F, 0x49, 0x49, 0x49, 0x31 },   // Б 0xC1 193
 117:.\SSD1306.c   ****    { 0x7F, 0x49, 0x49, 0x49, 0x36 },   // В 0xC2 194
 118:.\SSD1306.c   ****    { 0x7F, 0x01, 0x01, 0x01, 0x01 },   // Г 0xC3 195
 119:.\SSD1306.c   ****    { 0x60, 0x3F, 0x21, 0x3F, 0x60 },   // Д 0xC4 196
 120:.\SSD1306.c   ****    { 0x7F, 0x49, 0x49, 0x49, 0x41 },   // Е 0xC5 197
 121:.\SSD1306.c   ****    { 0x77, 0x08, 0x7F, 0x08, 0x77 },   // Ж 0xC6 198
 122:.\SSD1306.c   ****    { 0x22, 0x41, 0x49, 0x49, 0x36 },   // З 0xC7 199
 123:.\SSD1306.c   ****    { 0x7F, 0x10, 0x08, 0x04, 0x7F },   // И 0xC8 200
 124:.\SSD1306.c   ****    { 0x7E, 0x10, 0x09, 0x04, 0x7E },   // Й 0xC9 201
 125:.\SSD1306.c   ****    { 0x7F, 0x08, 0x14, 0x22, 0x41 },   // К 0xCA 202
 126:.\SSD1306.c   ****    { 0x40, 0x3E, 0x01, 0x01, 0x7F },   // Л 0xCB 203
 127:.\SSD1306.c   ****    { 0x7F, 0x02, 0x0C, 0x02, 0x7F },   // М 0xCC 204
 128:.\SSD1306.c   ****    { 0x7F, 0x08, 0x08, 0x08, 0x7F },   // Н 0xCD 205
 129:.\SSD1306.c   ****    { 0x3E, 0x41, 0x41, 0x41, 0x3E },   // О 0xCE 206
 130:.\SSD1306.c   ****    { 0x7F, 0x01, 0x01, 0x01, 0x7F },   // П 0xCF 207
 131:.\SSD1306.c   ****    { 0x7F, 0x09, 0x09, 0x09, 0x06 },   // Р 0xD0 208
 132:.\SSD1306.c   ****    { 0x3E, 0x41, 0x41, 0x41, 0x22 },   // С 0xD1 209
 133:.\SSD1306.c   ****    { 0x01, 0x01, 0x7F, 0x01, 0x01 },   // Т 0xD2 210
 134:.\SSD1306.c   ****    { 0x07, 0x48, 0x48, 0x48, 0x3F },   // У 0xD3 211
 135:.\SSD1306.c   ****    { 0x0E, 0x11, 0x7F, 0x11, 0x0E },   // Ф 0xD4 212
 136:.\SSD1306.c   ****    { 0x63, 0x14, 0x08, 0x14, 0x63 },   // Х 0xD5 213
 137:.\SSD1306.c   ****    { 0x3F, 0x20, 0x20, 0x3F, 0x60 },   // Ц 0xD6 214
 138:.\SSD1306.c   ****    { 0x07, 0x08, 0x08, 0x08, 0x7F },   // Ч 0xD7 215
 139:.\SSD1306.c   ****    { 0x7F, 0x40, 0x7E, 0x40, 0x7F },   // Ш 0xD8 216
 140:.\SSD1306.c   ****    { 0x3F, 0x20, 0x3F, 0x20, 0x7F },   // Щ 0xD9 217
 141:.\SSD1306.c   ****    { 0x01, 0x7F, 0x48, 0x48, 0x30 },   // Ъ 0xDA 218
 142:.\SSD1306.c   ****    { 0x7F, 0x48, 0x30, 0x00, 0x7F },   // Ы 0xDB 219
 143:.\SSD1306.c   ****    { 0x00, 0x7F, 0x48, 0x48, 0x30 },   // Ь 0xDC 220
 144:.\SSD1306.c   ****    { 0x22, 0x41, 0x49, 0x49, 0x3E },   // Э 0xDD 221
 145:.\SSD1306.c   ****    { 0x7F, 0x08, 0x3E, 0x41, 0x3E },   // Ю 0xDE 222
 146:.\SSD1306.c   ****    { 0x46, 0x29, 0x19, 0x09, 0x7F },   // Я 0xDF 223
ARM GAS  C:\Users\Vit\AppData\Local\Temp\cc4aOOs2.s 			page 4


 147:.\SSD1306.c   ****    { 0x20, 0x54, 0x54, 0x54, 0x78 },   // а 0xE0 224
 148:.\SSD1306.c   ****    { 0x3C, 0x4A, 0x4A, 0x4A, 0x31 },   // б 0xE1 225
 149:.\SSD1306.c   ****    { 0x7C, 0x54, 0x54, 0x28, 0x00 },   // в 0xE2 226
 150:.\SSD1306.c   ****    { 0x7C, 0x04, 0x04, 0x0C, 0x00 },   // г 0xE3 227
 151:.\SSD1306.c   ****    { 0x60, 0x3C, 0x24, 0x3C, 0x60 },   // д 0xE4 228
 152:.\SSD1306.c   ****    { 0x38, 0x54, 0x54, 0x54, 0x18 },   // е 0xE5 229
 153:.\SSD1306.c   ****    { 0x6C, 0x10, 0x7C, 0x10, 0x6C },   // ж 0xE6 230
 154:.\SSD1306.c   ****    { 0x00, 0x44, 0x54, 0x54, 0x28 },   // з 0xE7 231
 155:.\SSD1306.c   ****    { 0x7C, 0x20, 0x10, 0x08, 0x7C },   // и 0xE8 232
 156:.\SSD1306.c   ****    { 0x7C, 0x21, 0x12, 0x09, 0x7C },   // й 0xE9 233
 157:.\SSD1306.c   ****    { 0x7C, 0x10, 0x28, 0x44, 0x00 },   // к 0xEA 234
 158:.\SSD1306.c   ****    { 0x40, 0x38, 0x04, 0x04, 0x7C },   // л 0xEB 235
 159:.\SSD1306.c   ****    { 0x7C, 0x08, 0x10, 0x08, 0x7C },   // м 0xEC 236
 160:.\SSD1306.c   ****    { 0x7C, 0x10, 0x10, 0x10, 0x7C },   // н 0xED 237
 161:.\SSD1306.c   ****    { 0x38, 0x44, 0x44, 0x44, 0x38 },   // о 0xEE 238
 162:.\SSD1306.c   ****    { 0x7C, 0x04, 0x04, 0x04, 0x7C },   // п 0xEF 239
 163:.\SSD1306.c   ****    { 0x7C, 0x14, 0x14, 0x14, 0x08 },   // р 0xF0 240
 164:.\SSD1306.c   ****    { 0x38, 0x44, 0x44, 0x44, 0x00 },   // с 0xF1 241
 165:.\SSD1306.c   ****    { 0x04, 0x04, 0x7C, 0x04, 0x04 },   // т 0xF2 242
 166:.\SSD1306.c   ****    { 0x0C, 0x50, 0x50, 0x50, 0x3C },   // у 0xF3 243
 167:.\SSD1306.c   ****    { 0x08, 0x14, 0x7C, 0x14, 0x08 },   // ф 0xF4 244
 168:.\SSD1306.c   ****    { 0x44, 0x28, 0x10, 0x28, 0x44 },   // х 0xF5 245
 169:.\SSD1306.c   ****    { 0x3C, 0x20, 0x20, 0x3C, 0x60 },   // ц 0xF6 246
 170:.\SSD1306.c   ****    { 0x0C, 0x10, 0x10, 0x10, 0x7C },   // ч 0xF7 247
 171:.\SSD1306.c   ****    { 0x7C, 0x40, 0x7C, 0x40, 0x7C },   // ш 0xF8 248
 172:.\SSD1306.c   ****    { 0x3C, 0x20, 0x3C, 0x20, 0x7C },   // щ 0xF9 249
 173:.\SSD1306.c   ****    { 0x04, 0x7C, 0x50, 0x50, 0x20 },   // ъ 0xFA 250
 174:.\SSD1306.c   ****    { 0x7C, 0x50, 0x20, 0x00, 0x7C },   // ы 0xFB 251
 175:.\SSD1306.c   ****    { 0x00, 0x7C, 0x50, 0x50, 0x20 },   // ь 0xFC 252
 176:.\SSD1306.c   ****    { 0x28, 0x44, 0x54, 0x54, 0x38 },   // э 0xFD 253
 177:.\SSD1306.c   ****    { 0x7C, 0x10, 0x38, 0x44, 0x38 },   // ю 0xFE 254
 178:.\SSD1306.c   ****    { 0x48, 0x54, 0x34, 0x14, 0x7C }    // я 0xFF 255
 179:.\SSD1306.c   **** };
 180:.\SSD1306.c   **** 
 181:.\SSD1306.c   **** uint32 I2C_SendCommand(uint8 Controll, uint8 Data)
 182:.\SSD1306.c   **** {
  26              		.loc 1 182 0
  27              		.cfi_startproc
  28              	.LVL0:
  29 0000 07B5     		push	{r0, r1, r2, lr}
  30              		.cfi_def_cfa_offset 16
  31              		.cfi_offset 0, -16
  32              		.cfi_offset 1, -12
  33              		.cfi_offset 2, -8
  34              		.cfi_offset 14, -4
 183:.\SSD1306.c   ****     volatile uint32 Error;
 184:.\SSD1306.c   ****     uint8 buf[2] = {Controll, Data};
  35              		.loc 1 184 0
  36 0002 6B46     		mov	r3, sp
 185:.\SSD1306.c   ****     Error = I2C_SendBuffer(SSD1306_I2C_ADRESS, buf, 2);
  37              		.loc 1 185 0
  38 0004 0222     		mov	r2, #2
 184:.\SSD1306.c   ****     Error = I2C_SendBuffer(SSD1306_I2C_ADRESS, buf, 2);
  39              		.loc 1 184 0
  40 0006 1870     		strb	r0, [r3]
  41 0008 5970     		strb	r1, [r3, #1]
  42              		.loc 1 185 0
ARM GAS  C:\Users\Vit\AppData\Local\Temp\cc4aOOs2.s 			page 5


  43 000a 3C20     		mov	r0, #60
  44              	.LVL1:
  45 000c 6946     		mov	r1, sp
  46              	.LVL2:
  47 000e FFF7FEFF 		bl	I2C_SendBuffer
  48              	.LVL3:
  49 0012 0190     		str	r0, [sp, #4]
 186:.\SSD1306.c   ****     return Error;
  50              		.loc 1 186 0
  51 0014 0198     		ldr	r0, [sp, #4]
 187:.\SSD1306.c   **** }
  52              		.loc 1 187 0
  53              		@ sp needed
  54 0016 0EBD     		pop	{r1, r2, r3, pc}
  55              		.cfi_endproc
  56              	.LFE33:
  57              		.size	I2C_SendCommand, .-I2C_SendCommand
  58              		.section	.text.LCD_Init,"ax",%progbits
  59              		.align	1
  60              		.global	LCD_Init
  61              		.code	16
  62              		.thumb_func
  63              		.type	LCD_Init, %function
  64              	LCD_Init:
  65              	.LFB34:
 188:.\SSD1306.c   **** 
 189:.\SSD1306.c   **** void LCD_Init(void)
 190:.\SSD1306.c   **** {
  66              		.loc 1 190 0
  67              		.cfi_startproc
  68 0000 08B5     		push	{r3, lr}
  69              		.cfi_def_cfa_offset 8
  70              		.cfi_offset 3, -8
  71              		.cfi_offset 14, -4
 191:.\SSD1306.c   **** 
 192:.\SSD1306.c   **** 	I2C_SendCommand(SSD1306_CONTROL_COMMAND, SSD1306_CMD_DISPLAYOFF);
  72              		.loc 1 192 0
  73 0002 AE21     		mov	r1, #174
  74 0004 0020     		mov	r0, #0
  75 0006 FFF7FEFF 		bl	I2C_SendCommand
  76              	.LVL4:
 193:.\SSD1306.c   ****     I2C_SendCommand(SSD1306_CONTROL_COMMAND, SSD1306_CMD_SETDISPLAYCLOCKDIV);
  77              		.loc 1 193 0
  78 000a D521     		mov	r1, #213
  79 000c 0020     		mov	r0, #0
  80 000e FFF7FEFF 		bl	I2C_SendCommand
  81              	.LVL5:
 194:.\SSD1306.c   ****     I2C_SendCommand(SSD1306_CONTROL_COMMAND, 0x80);
  82              		.loc 1 194 0
  83 0012 8021     		mov	r1, #128
  84 0014 0020     		mov	r0, #0
  85 0016 FFF7FEFF 		bl	I2C_SendCommand
  86              	.LVL6:
 195:.\SSD1306.c   ****     I2C_SendCommand(SSD1306_CONTROL_COMMAND, SSD1306_CMD_SETMULTIPLEX);
  87              		.loc 1 195 0
  88 001a A821     		mov	r1, #168
  89 001c 0020     		mov	r0, #0
ARM GAS  C:\Users\Vit\AppData\Local\Temp\cc4aOOs2.s 			page 6


  90 001e FFF7FEFF 		bl	I2C_SendCommand
  91              	.LVL7:
 196:.\SSD1306.c   ****     I2C_SendCommand(SSD1306_CONTROL_COMMAND, 0x3F);
  92              		.loc 1 196 0
  93 0022 3F21     		mov	r1, #63
  94 0024 0020     		mov	r0, #0
  95 0026 FFF7FEFF 		bl	I2C_SendCommand
  96              	.LVL8:
 197:.\SSD1306.c   ****     I2C_SendCommand(SSD1306_CONTROL_COMMAND, SSD1306_CMD_SETDISPLAYOFFSET);
  97              		.loc 1 197 0
  98 002a D321     		mov	r1, #211
  99 002c 0020     		mov	r0, #0
 100 002e FFF7FEFF 		bl	I2C_SendCommand
 101              	.LVL9:
 198:.\SSD1306.c   ****     I2C_SendCommand(SSD1306_CONTROL_COMMAND, 0x00);
 102              		.loc 1 198 0
 103 0032 0020     		mov	r0, #0
 104 0034 011C     		mov	r1, r0
 105 0036 FFF7FEFF 		bl	I2C_SendCommand
 106              	.LVL10:
 199:.\SSD1306.c   ****     I2C_SendCommand(SSD1306_CONTROL_COMMAND, SSD1306_CMD_SETSTARTLINE | 0x0);
 107              		.loc 1 199 0
 108 003a 4021     		mov	r1, #64
 109 003c 0020     		mov	r0, #0
 110 003e FFF7FEFF 		bl	I2C_SendCommand
 111              	.LVL11:
 200:.\SSD1306.c   ****     I2C_SendCommand(SSD1306_CONTROL_COMMAND, SSD1306_CMD_CHARGEPUMP);
 112              		.loc 1 200 0
 113 0042 8D21     		mov	r1, #141
 114 0044 0020     		mov	r0, #0
 115 0046 FFF7FEFF 		bl	I2C_SendCommand
 116              	.LVL12:
 201:.\SSD1306.c   ****     I2C_SendCommand(SSD1306_CONTROL_COMMAND, SSD1306_CMD_CHARGEPUMPON);
 117              		.loc 1 201 0
 118 004a 1421     		mov	r1, #20
 119 004c 0020     		mov	r0, #0
 120 004e FFF7FEFF 		bl	I2C_SendCommand
 121              	.LVL13:
 202:.\SSD1306.c   ****     I2C_SendCommand(SSD1306_CONTROL_COMMAND, SSD1306_CMD_MEMORYMODE);
 122              		.loc 1 202 0
 123 0052 2021     		mov	r1, #32
 124 0054 0020     		mov	r0, #0
 125 0056 FFF7FEFF 		bl	I2C_SendCommand
 126              	.LVL14:
 203:.\SSD1306.c   ****     I2C_SendCommand(SSD1306_CONTROL_COMMAND, 0x00);
 127              		.loc 1 203 0
 128 005a 0020     		mov	r0, #0
 129 005c 011C     		mov	r1, r0
 130 005e FFF7FEFF 		bl	I2C_SendCommand
 131              	.LVL15:
 204:.\SSD1306.c   ****     I2C_SendCommand(SSD1306_CONTROL_COMMAND, SSD1306_CMD_SEGREMAP | 0x1);
 132              		.loc 1 204 0
 133 0062 A121     		mov	r1, #161
 134 0064 0020     		mov	r0, #0
 135 0066 FFF7FEFF 		bl	I2C_SendCommand
 136              	.LVL16:
 205:.\SSD1306.c   ****     I2C_SendCommand(SSD1306_CONTROL_COMMAND, SSD1306_CMD_COMSCANDEC);
ARM GAS  C:\Users\Vit\AppData\Local\Temp\cc4aOOs2.s 			page 7


 137              		.loc 1 205 0
 138 006a C821     		mov	r1, #200
 139 006c 0020     		mov	r0, #0
 140 006e FFF7FEFF 		bl	I2C_SendCommand
 141              	.LVL17:
 206:.\SSD1306.c   ****     I2C_SendCommand(SSD1306_CONTROL_COMMAND, SSD1306_CMD_SETCOMPINS);
 142              		.loc 1 206 0
 143 0072 DA21     		mov	r1, #218
 144 0074 0020     		mov	r0, #0
 145 0076 FFF7FEFF 		bl	I2C_SendCommand
 146              	.LVL18:
 207:.\SSD1306.c   ****     I2C_SendCommand(SSD1306_CONTROL_COMMAND, 0x12);
 147              		.loc 1 207 0
 148 007a 1221     		mov	r1, #18
 149 007c 0020     		mov	r0, #0
 150 007e FFF7FEFF 		bl	I2C_SendCommand
 151              	.LVL19:
 208:.\SSD1306.c   ****     I2C_SendCommand(SSD1306_CONTROL_COMMAND, SSD1306_CMD_SETCONTRAST);
 152              		.loc 1 208 0
 153 0082 8121     		mov	r1, #129
 154 0084 0020     		mov	r0, #0
 155 0086 FFF7FEFF 		bl	I2C_SendCommand
 156              	.LVL20:
 209:.\SSD1306.c   ****     I2C_SendCommand(SSD1306_CONTROL_COMMAND, 0x4F);
 157              		.loc 1 209 0
 158 008a 4F21     		mov	r1, #79
 159 008c 0020     		mov	r0, #0
 160 008e FFF7FEFF 		bl	I2C_SendCommand
 161              	.LVL21:
 210:.\SSD1306.c   ****     I2C_SendCommand(SSD1306_CONTROL_COMMAND, SSD1306_CMD_SETPRECHARGE);
 162              		.loc 1 210 0
 163 0092 D921     		mov	r1, #217
 164 0094 0020     		mov	r0, #0
 165 0096 FFF7FEFF 		bl	I2C_SendCommand
 166              	.LVL22:
 211:.\SSD1306.c   ****     I2C_SendCommand(SSD1306_CONTROL_COMMAND, 0xF1);
 167              		.loc 1 211 0
 168 009a F121     		mov	r1, #241
 169 009c 0020     		mov	r0, #0
 170 009e FFF7FEFF 		bl	I2C_SendCommand
 171              	.LVL23:
 212:.\SSD1306.c   ****     I2C_SendCommand(SSD1306_CONTROL_COMMAND, SSD1306_CMD_SETVCOMDETECT);
 172              		.loc 1 212 0
 173 00a2 DB21     		mov	r1, #219
 174 00a4 0020     		mov	r0, #0
 175 00a6 FFF7FEFF 		bl	I2C_SendCommand
 176              	.LVL24:
 213:.\SSD1306.c   ****     I2C_SendCommand(SSD1306_CONTROL_COMMAND, 0x40);
 177              		.loc 1 213 0
 178 00aa 4021     		mov	r1, #64
 179 00ac 0020     		mov	r0, #0
 180 00ae FFF7FEFF 		bl	I2C_SendCommand
 181              	.LVL25:
 214:.\SSD1306.c   ****     I2C_SendCommand(SSD1306_CONTROL_COMMAND, SSD1306_CMD_DISPLAYALLON_RESUME);
 182              		.loc 1 214 0
 183 00b2 A421     		mov	r1, #164
 184 00b4 0020     		mov	r0, #0
ARM GAS  C:\Users\Vit\AppData\Local\Temp\cc4aOOs2.s 			page 8


 185 00b6 FFF7FEFF 		bl	I2C_SendCommand
 186              	.LVL26:
 215:.\SSD1306.c   ****     I2C_SendCommand(SSD1306_CONTROL_COMMAND, SSD1306_CMD_NORMALDISPLAY);
 187              		.loc 1 215 0
 188 00ba A621     		mov	r1, #166
 189 00bc 0020     		mov	r0, #0
 190 00be FFF7FEFF 		bl	I2C_SendCommand
 191              	.LVL27:
 216:.\SSD1306.c   ****     I2C_SendCommand(SSD1306_CONTROL_COMMAND, SSD1306_CMD_DISPLAYON);
 192              		.loc 1 216 0
 193 00c2 0020     		mov	r0, #0
 194 00c4 AF21     		mov	r1, #175
 195 00c6 FFF7FEFF 		bl	I2C_SendCommand
 196              	.LVL28:
 217:.\SSD1306.c   **** }
 197              		.loc 1 217 0
 198              		@ sp needed
 199 00ca 08BD     		pop	{r3, pc}
 200              		.cfi_endproc
 201              	.LFE34:
 202              		.size	LCD_Init, .-LCD_Init
 203              		.section	.text.LCD_Clear,"ax",%progbits
 204              		.align	1
 205              		.global	LCD_Clear
 206              		.code	16
 207              		.thumb_func
 208              		.type	LCD_Clear, %function
 209              	LCD_Clear:
 210              	.LFB35:
 218:.\SSD1306.c   **** 
 219:.\SSD1306.c   **** void LCD_Clear(void)
 220:.\SSD1306.c   **** {
 211              		.loc 1 220 0
 212              		.cfi_startproc
 213              	.LVL29:
 221:.\SSD1306.c   ****   int ix;
 222:.\SSD1306.c   ****   for(ix=0;ix<1024;ix++){lcd_buff[ix]=0x00;}
 214              		.loc 1 222 0
 215 0000 0023     		mov	r3, #0
 216              	.LVL30:
 217              	.L4:
 218              		.loc 1 222 0 is_stmt 0 discriminator 3
 219 0002 0022     		mov	r2, #0
 220 0004 0549     		ldr	r1, .L6
 221 0006 CA54     		strb	r2, [r1, r3]
 222 0008 8021     		mov	r1, #128
 223 000a 0133     		add	r3, r3, #1
 224              	.LVL31:
 225 000c C900     		lsl	r1, r1, #3
 226 000e 8B42     		cmp	r3, r1
 227 0010 F7D1     		bne	.L4
 223:.\SSD1306.c   ****   x_cur=0;
 228              		.loc 1 223 0 is_stmt 1
 229 0012 034B     		ldr	r3, .L6+4
 230              	.LVL32:
 224:.\SSD1306.c   ****   y_cur=0;
 225:.\SSD1306.c   **** }
ARM GAS  C:\Users\Vit\AppData\Local\Temp\cc4aOOs2.s 			page 9


 231              		.loc 1 225 0
 232              		@ sp needed
 223:.\SSD1306.c   ****   x_cur=0;
 233              		.loc 1 223 0
 234 0014 1A70     		strb	r2, [r3]
 224:.\SSD1306.c   ****   y_cur=0;
 235              		.loc 1 224 0
 236 0016 5A70     		strb	r2, [r3, #1]
 237              		.loc 1 225 0
 238 0018 7047     		bx	lr
 239              	.L7:
 240 001a C046     		.align	2
 241              	.L6:
 242 001c 00000000 		.word	lcd_buff
 243 0020 00000000 		.word	.LANCHOR0
 244              		.cfi_endproc
 245              	.LFE35:
 246              		.size	LCD_Clear, .-LCD_Clear
 247              		.section	.text.LCD_Update,"ax",%progbits
 248              		.align	1
 249              		.global	LCD_Update
 250              		.code	16
 251              		.thumb_func
 252              		.type	LCD_Update, %function
 253              	LCD_Update:
 254              	.LFB36:
 226:.\SSD1306.c   **** 
 227:.\SSD1306.c   **** void LCD_Update(void)
 228:.\SSD1306.c   **** {
 255              		.loc 1 228 0
 256              		.cfi_startproc
 257 0000 13B5     		push	{r0, r1, r4, lr}
 258              		.cfi_def_cfa_offset 16
 259              		.cfi_offset 0, -16
 260              		.cfi_offset 1, -12
 261              		.cfi_offset 4, -8
 262              		.cfi_offset 14, -4
 229:.\SSD1306.c   ****     volatile uint32 Error = 0;
 263              		.loc 1 229 0
 264 0002 0023     		mov	r3, #0
 230:.\SSD1306.c   ****     volatile uint16 Index;
 231:.\SSD1306.c   ****     for(Index = 0; Index < 1024; Index++)
 265              		.loc 1 231 0
 266 0004 6A46     		mov	r2, sp
 229:.\SSD1306.c   ****     volatile uint32 Error = 0;
 267              		.loc 1 229 0
 268 0006 0193     		str	r3, [sp, #4]
 269              		.loc 1 231 0
 270 0008 941C     		add	r4, r2, #2
 271              	.L11:
 272              		.loc 1 231 0 is_stmt 0 discriminator 3
 273 000a 2380     		strh	r3, [r4]
 274 000c 2288     		ldrh	r2, [r4]
 275 000e 084B     		ldr	r3, .L13
 276 0010 9A42     		cmp	r2, r3
 277 0012 0CD8     		bhi	.L12
 232:.\SSD1306.c   ****     {
ARM GAS  C:\Users\Vit\AppData\Local\Temp\cc4aOOs2.s 			page 10


 233:.\SSD1306.c   ****         Error = I2C_SendCommand(SSD1306_CONTROL_DATA, lcd_buff[Index]);
 278              		.loc 1 233 0 is_stmt 1 discriminator 3
 279 0014 2388     		ldrh	r3, [r4]
 280 0016 074A     		ldr	r2, .L13+4
 281 0018 9BB2     		uxth	r3, r3
 282 001a D15C     		ldrb	r1, [r2, r3]
 283 001c 4020     		mov	r0, #64
 284 001e C9B2     		uxtb	r1, r1
 285 0020 FFF7FEFF 		bl	I2C_SendCommand
 286              	.LVL33:
 287 0024 0190     		str	r0, [sp, #4]
 231:.\SSD1306.c   ****     {
 288              		.loc 1 231 0 discriminator 3
 289 0026 2388     		ldrh	r3, [r4]
 290 0028 0133     		add	r3, r3, #1
 291 002a 9BB2     		uxth	r3, r3
 292 002c EDE7     		b	.L11
 293              	.L12:
 234:.\SSD1306.c   ****     }
 235:.\SSD1306.c   **** }
 294              		.loc 1 235 0
 295              		@ sp needed
 296 002e 13BD     		pop	{r0, r1, r4, pc}
 297              	.L14:
 298              		.align	2
 299              	.L13:
 300 0030 FF030000 		.word	1023
 301 0034 00000000 		.word	lcd_buff
 302              		.cfi_endproc
 303              	.LFE36:
 304              		.size	LCD_Update, .-LCD_Update
 305              		.section	.text.LCD_Chr,"ax",%progbits
 306              		.align	1
 307              		.global	LCD_Chr
 308              		.code	16
 309              		.thumb_func
 310              		.type	LCD_Chr, %function
 311              	LCD_Chr:
 312              	.LFB37:
 236:.\SSD1306.c   **** 
 237:.\SSD1306.c   **** void LCD_Chr(uint8_t ch)
 238:.\SSD1306.c   **** {
 313              		.loc 1 238 0
 314              		.cfi_startproc
 315              	.LVL34:
 239:.\SSD1306.c   ****     uint8_t i;
 240:.\SSD1306.c   ****     
 241:.\SSD1306.c   ****     lcd_buff_idx=y_cur*128+x_cur*6;    
 316              		.loc 1 241 0
 317 0000 0621     		mov	r1, #6
 238:.\SSD1306.c   ****     uint8_t i;
 318              		.loc 1 238 0
 319 0002 30B5     		push	{r4, r5, lr}
 320              		.cfi_def_cfa_offset 12
 321              		.cfi_offset 4, -12
 322              		.cfi_offset 5, -8
 323              		.cfi_offset 14, -4
ARM GAS  C:\Users\Vit\AppData\Local\Temp\cc4aOOs2.s 			page 11


 324              		.loc 1 241 0
 325 0004 1A4B     		ldr	r3, .L22
 326 0006 5C78     		ldrb	r4, [r3, #1]
 327 0008 1A78     		ldrb	r2, [r3]
 328 000a E401     		lsl	r4, r4, #7
 329 000c 4A43     		mul	r2, r1
 330 000e A218     		add	r2, r4, r2
 331 0010 5A60     		str	r2, [r3, #4]
 242:.\SSD1306.c   ****     if ((ch>=0x20)&&(ch<=0x80)) ch-=32;
 332              		.loc 1 242 0
 333 0012 021C     		mov	r2, r0
 334 0014 203A     		sub	r2, r2, #32
 335 0016 D2B2     		uxtb	r2, r2
 336 0018 602A     		cmp	r2, #96
 337 001a 04D9     		bls	.L16
 243:.\SSD1306.c   ****     else if (ch>=0xC0) ch-=96;
 244:.\SSD1306.c   ****     else ch = 95;
 338              		.loc 1 244 0
 339 001c 5F22     		mov	r2, #95
 243:.\SSD1306.c   ****     else if (ch>=0xC0) ch-=96;
 340              		.loc 1 243 0
 341 001e BF28     		cmp	r0, #191
 342 0020 01D9     		bls	.L16
 243:.\SSD1306.c   ****     else if (ch>=0xC0) ch-=96;
 343              		.loc 1 243 0 is_stmt 0 discriminator 1
 344 0022 6038     		sub	r0, r0, #96
 345              	.LVL35:
 346 0024 C2B2     		uxtb	r2, r0
 347              	.LVL36:
 348              	.L16:
 349 0026 0520     		mov	r0, #5
 350              		.loc 1 244 0 is_stmt 1
 351 0028 0021     		mov	r1, #0
 352 002a 4243     		mul	r2, r0
 353              	.LVL37:
 354 002c 1148     		ldr	r0, .L22+4
 355 002e 8218     		add	r2, r0, r2
 356              	.LVL38:
 357              	.L17:
 245:.\SSD1306.c   ****     
 246:.\SSD1306.c   ****     for (i=0;i<5;i++)
 247:.\SSD1306.c   ****         {
 248:.\SSD1306.c   ****             lcd_buff[lcd_buff_idx++] = font[ch][i];
 358              		.loc 1 248 0 discriminator 3
 359 0030 5C68     		ldr	r4, [r3, #4]
 360 0032 555C     		ldrb	r5, [r2, r1]
 361 0034 601C     		add	r0, r4, #1
 362 0036 5860     		str	r0, [r3, #4]
 363 0038 0F48     		ldr	r0, .L22+8
 364 003a 0131     		add	r1, r1, #1
 365              	.LVL39:
 366 003c 0555     		strb	r5, [r0, r4]
 246:.\SSD1306.c   ****         {
 367              		.loc 1 246 0 discriminator 3
 368 003e 0529     		cmp	r1, #5
 369 0040 F6D1     		bne	.L17
 249:.\SSD1306.c   ****         }
ARM GAS  C:\Users\Vit\AppData\Local\Temp\cc4aOOs2.s 			page 12


 250:.\SSD1306.c   ****     lcd_buff[lcd_buff_idx++] = 0x00;
 370              		.loc 1 250 0
 371 0042 5A68     		ldr	r2, [r3, #4]
 372 0044 511C     		add	r1, r2, #1
 373 0046 5960     		str	r1, [r3, #4]
 374 0048 0021     		mov	r1, #0
 375 004a 8154     		strb	r1, [r0, r2]
 251:.\SSD1306.c   ****     
 252:.\SSD1306.c   ****     x_cur++;
 376              		.loc 1 252 0
 377 004c 1A78     		ldrb	r2, [r3]
 378 004e 0132     		add	r2, r2, #1
 379 0050 D2B2     		uxtb	r2, r2
 380 0052 1A70     		strb	r2, [r3]
 253:.\SSD1306.c   ****     if (x_cur>20)
 381              		.loc 1 253 0
 382 0054 1A78     		ldrb	r2, [r3]
 383 0056 142A     		cmp	r2, #20
 384 0058 08D9     		bls	.L15
 385              	.LVL40:
 386              	.LBB4:
 387              	.LBB5:
 254:.\SSD1306.c   ****     {
 255:.\SSD1306.c   ****       x_cur=0;
 388              		.loc 1 255 0
 389 005a 1970     		strb	r1, [r3]
 256:.\SSD1306.c   ****       y_cur++;
 390              		.loc 1 256 0
 391 005c 5A78     		ldrb	r2, [r3, #1]
 392 005e 0132     		add	r2, r2, #1
 393 0060 D2B2     		uxtb	r2, r2
 394 0062 5A70     		strb	r2, [r3, #1]
 257:.\SSD1306.c   ****       if (y_cur>7)
 395              		.loc 1 257 0
 396 0064 5A78     		ldrb	r2, [r3, #1]
 397 0066 072A     		cmp	r2, #7
 398 0068 00D9     		bls	.L15
 258:.\SSD1306.c   ****       {
 259:.\SSD1306.c   ****         y_cur=0;
 399              		.loc 1 259 0
 400 006a 5970     		strb	r1, [r3, #1]
 401              	.L15:
 402              	.LBE5:
 403              	.LBE4:
 260:.\SSD1306.c   ****       }
 261:.\SSD1306.c   ****     }
 262:.\SSD1306.c   **** }
 404              		.loc 1 262 0
 405              		@ sp needed
 406 006c 30BD     		pop	{r4, r5, pc}
 407              	.L23:
 408 006e C046     		.align	2
 409              	.L22:
 410 0070 00000000 		.word	.LANCHOR0
 411 0074 00000000 		.word	.LANCHOR1
 412 0078 00000000 		.word	lcd_buff
 413              		.cfi_endproc
ARM GAS  C:\Users\Vit\AppData\Local\Temp\cc4aOOs2.s 			page 13


 414              	.LFE37:
 415              		.size	LCD_Chr, .-LCD_Chr
 416              		.section	.text.LCD_2xChr,"ax",%progbits
 417              		.align	1
 418              		.global	LCD_2xChr
 419              		.code	16
 420              		.thumb_func
 421              		.type	LCD_2xChr, %function
 422              	LCD_2xChr:
 423              	.LFB38:
 263:.\SSD1306.c   **** 
 264:.\SSD1306.c   **** void LCD_2xChr(uint8_t ch)
 265:.\SSD1306.c   **** {
 424              		.loc 1 265 0
 425              		.cfi_startproc
 426              	.LVL41:
 427 0000 F7B5     		push	{r0, r1, r2, r4, r5, r6, r7, lr}
 428              		.cfi_def_cfa_offset 32
 429              		.cfi_offset 0, -32
 430              		.cfi_offset 1, -28
 431              		.cfi_offset 2, -24
 432              		.cfi_offset 4, -20
 433              		.cfi_offset 5, -16
 434              		.cfi_offset 6, -12
 435              		.cfi_offset 7, -8
 436              		.cfi_offset 14, -4
 266:.\SSD1306.c   ****     uint8_t i, c;
 267:.\SSD1306.c   ****     uint8_t b1, b2;  
 268:.\SSD1306.c   ****     uint16_t  tmpIdx;
 269:.\SSD1306.c   **** 
 270:.\SSD1306.c   ****     lcd_buff_idx=y_cur*128+x_cur*6;
 437              		.loc 1 270 0
 438 0002 0622     		mov	r2, #6
 439 0004 3D49     		ldr	r1, .L35
 440 0006 4C78     		ldrb	r4, [r1, #1]
 441 0008 0B78     		ldrb	r3, [r1]
 442 000a E401     		lsl	r4, r4, #7
 443 000c 5343     		mul	r3, r2
 444 000e E318     		add	r3, r4, r3
 445 0010 4B60     		str	r3, [r1, #4]
 271:.\SSD1306.c   ****     tmpIdx=lcd_buff_idx-128;
 272:.\SSD1306.c   ****     if ((ch>=0x20)&&(ch<=0x7F)) ch-=32;
 446              		.loc 1 272 0
 447 0012 031C     		mov	r3, r0
 271:.\SSD1306.c   ****     tmpIdx=lcd_buff_idx-128;
 448              		.loc 1 271 0
 449 0014 4A68     		ldr	r2, [r1, #4]
 450              		.loc 1 272 0
 451 0016 203B     		sub	r3, r3, #32
 271:.\SSD1306.c   ****     tmpIdx=lcd_buff_idx-128;
 452              		.loc 1 271 0
 453 0018 803A     		sub	r2, r2, #128
 454              		.loc 1 272 0
 455 001a DBB2     		uxtb	r3, r3
 271:.\SSD1306.c   ****     tmpIdx=lcd_buff_idx-128;
 456              		.loc 1 271 0
 457 001c 92B2     		uxth	r2, r2
ARM GAS  C:\Users\Vit\AppData\Local\Temp\cc4aOOs2.s 			page 14


 458              	.LVL42:
 459              		.loc 1 272 0
 460 001e 5F2B     		cmp	r3, #95
 461 0020 04D9     		bls	.L25
 273:.\SSD1306.c   ****     else if (ch>=0xC0) ch-=96;
 274:.\SSD1306.c   ****     else ch = 95;
 462              		.loc 1 274 0
 463 0022 5F23     		mov	r3, #95
 273:.\SSD1306.c   ****     else if (ch>=0xC0) ch-=96;
 464              		.loc 1 273 0
 465 0024 BF28     		cmp	r0, #191
 466 0026 01D9     		bls	.L25
 273:.\SSD1306.c   ****     else if (ch>=0xC0) ch-=96;
 467              		.loc 1 273 0 is_stmt 0 discriminator 1
 468 0028 6038     		sub	r0, r0, #96
 469              	.LVL43:
 470 002a C3B2     		uxtb	r3, r0
 471              	.LVL44:
 472              	.L25:
 473 002c 0520     		mov	r0, #5
 474              		.loc 1 274 0 is_stmt 1
 475 002e 0025     		mov	r5, #0
 476 0030 4343     		mul	r3, r0
 477              	.LVL45:
 478 0032 3348     		ldr	r0, .L35+4
 479 0034 C318     		add	r3, r0, r3
 480 0036 0193     		str	r3, [sp, #4]
 481              	.LVL46:
 482              	.L26:
 275:.\SSD1306.c   ****     
 276:.\SSD1306.c   ****     for ( i = 0; i < 5; i++ )
 277:.\SSD1306.c   ****       {
 278:.\SSD1306.c   ****         c = font[ch][i]<<1;
 279:.\SSD1306.c   ****         b1=(c&0x01)*3;
 280:.\SSD1306.c   ****         b1|=(c&0x02)*6;
 281:.\SSD1306.c   ****         b1|=(c&0x04)*12;
 483              		.loc 1 281 0 discriminator 3
 484 0038 0420     		mov	r0, #4
 485 003a 0C21     		mov	r1, #12
 278:.\SSD1306.c   ****         b1=(c&0x01)*3;
 486              		.loc 1 278 0 discriminator 3
 487 003c 019B     		ldr	r3, [sp, #4]
 280:.\SSD1306.c   ****         b1|=(c&0x04)*12;
 488              		.loc 1 280 0 discriminator 3
 489 003e 0224     		mov	r4, #2
 278:.\SSD1306.c   ****         b1=(c&0x01)*3;
 490              		.loc 1 278 0 discriminator 3
 491 0040 5B5D     		ldrb	r3, [r3, r5]
 280:.\SSD1306.c   ****         b1|=(c&0x04)*12;
 492              		.loc 1 280 0 discriminator 3
 493 0042 0627     		mov	r7, #6
 278:.\SSD1306.c   ****         b1=(c&0x01)*3;
 494              		.loc 1 278 0 discriminator 3
 495 0044 5B00     		lsl	r3, r3, #1
 496 0046 DBB2     		uxtb	r3, r3
 497              	.LVL47:
 498              		.loc 1 281 0 discriminator 3
ARM GAS  C:\Users\Vit\AppData\Local\Temp\cc4aOOs2.s 			page 15


 499 0048 1840     		and	r0, r3
 500 004a 4843     		mul	r0, r1
 280:.\SSD1306.c   ****         b1|=(c&0x04)*12;
 501              		.loc 1 280 0 discriminator 3
 502 004c 191C     		mov	r1, r3
 503 004e 2140     		and	r1, r4
 504 0050 7943     		mul	r1, r7
 505              		.loc 1 281 0 discriminator 3
 506 0052 0843     		orr	r0, r1
 507 0054 8446     		mov	ip, r0
 282:.\SSD1306.c   ****         b1|=(c&0x08)*24;
 508              		.loc 1 282 0 discriminator 3
 509 0056 0826     		mov	r6, #8
 510 0058 181C     		mov	r0, r3
 511 005a 1821     		mov	r1, #24
 283:.\SSD1306.c   **** 
 284:.\SSD1306.c   ****         c>>=4;
 512              		.loc 1 284 0 discriminator 3
 513 005c 1B09     		lsr	r3, r3, #4
 514              	.LVL48:
 285:.\SSD1306.c   ****         b2=(c&0x01)*3;
 286:.\SSD1306.c   ****         b2|=(c&0x02)*6;
 515              		.loc 1 286 0 discriminator 3
 516 005e 1C40     		and	r4, r3
 517 0060 7C43     		mul	r4, r7
 285:.\SSD1306.c   ****         b2=(c&0x01)*3;
 518              		.loc 1 285 0 discriminator 3
 519 0062 053F     		sub	r7, r7, #5
 520 0064 1F40     		and	r7, r3
 282:.\SSD1306.c   **** 
 521              		.loc 1 282 0 discriminator 3
 522 0066 3040     		and	r0, r6
 523              	.LVL49:
 524 0068 4843     		mul	r0, r1
 525 006a 6146     		mov	r1, ip
 285:.\SSD1306.c   ****         b2=(c&0x01)*3;
 526              		.loc 1 285 0 discriminator 3
 527 006c BC46     		mov	ip, r7
 282:.\SSD1306.c   **** 
 528              		.loc 1 282 0 discriminator 3
 529 006e 0843     		orr	r0, r1
 285:.\SSD1306.c   ****         b2=(c&0x01)*3;
 530              		.loc 1 285 0 discriminator 3
 531 0070 0327     		mov	r7, #3
 532 0072 6146     		mov	r1, ip
 533 0074 4F43     		mul	r7, r1
 534              		.loc 1 286 0 discriminator 3
 535 0076 2743     		orr	r7, r4
 287:.\SSD1306.c   ****         b2|=(c&0x04)*12;
 536              		.loc 1 287 0 discriminator 3
 537 0078 0424     		mov	r4, #4
 538 007a 0C21     		mov	r1, #12
 539 007c 1C40     		and	r4, r3
 540 007e 4C43     		mul	r4, r1
 288:.\SSD1306.c   ****         b2|=(c&0x08)*24;
 541              		.loc 1 288 0 discriminator 3
 542 0080 3340     		and	r3, r6
ARM GAS  C:\Users\Vit\AppData\Local\Temp\cc4aOOs2.s 			page 16


 543 0082 4918     		add	r1, r1, r1
 544 0084 5943     		mul	r1, r3
 289:.\SSD1306.c   **** 
 290:.\SSD1306.c   ****         lcd_buff[tmpIdx++]=b1;
 545              		.loc 1 290 0 discriminator 3
 546 0086 1F4B     		ldr	r3, .L35+8
 282:.\SSD1306.c   **** 
 547              		.loc 1 282 0 discriminator 3
 548 0088 C0B2     		uxtb	r0, r0
 549              	.LVL50:
 287:.\SSD1306.c   ****         b2|=(c&0x08)*24;
 550              		.loc 1 287 0 discriminator 3
 551 008a 2743     		orr	r7, r4
 552              		.loc 1 290 0 discriminator 3
 553 008c 9854     		strb	r0, [r3, r2]
 288:.\SSD1306.c   **** 
 554              		.loc 1 288 0 discriminator 3
 555 008e 0F43     		orr	r7, r1
 556              		.loc 1 290 0 discriminator 3
 557 0090 511C     		add	r1, r2, #1
 291:.\SSD1306.c   ****         lcd_buff[tmpIdx++]=b1;
 558              		.loc 1 291 0 discriminator 3
 559 0092 0232     		add	r2, r2, #2
 560              	.LVL51:
 290:.\SSD1306.c   ****         lcd_buff[tmpIdx++]=b1;
 561              		.loc 1 290 0 discriminator 3
 562 0094 89B2     		uxth	r1, r1
 563              		.loc 1 291 0 discriminator 3
 564 0096 92B2     		uxth	r2, r2
 565 0098 5854     		strb	r0, [r3, r1]
 292:.\SSD1306.c   ****         lcd_buff[tmpIdx+126]=b2;
 566              		.loc 1 292 0 discriminator 3
 567 009a 111C     		mov	r1, r2
 288:.\SSD1306.c   **** 
 568              		.loc 1 288 0 discriminator 3
 569 009c FFB2     		uxtb	r7, r7
 570              	.LVL52:
 571              		.loc 1 292 0 discriminator 3
 572 009e 7E31     		add	r1, r1, #126
 573 00a0 5F54     		strb	r7, [r3, r1]
 574 00a2 0135     		add	r5, r5, #1
 575              	.LVL53:
 293:.\SSD1306.c   ****         lcd_buff[tmpIdx+127]=b2;
 576              		.loc 1 293 0 discriminator 3
 577 00a4 0131     		add	r1, r1, #1
 578 00a6 5F54     		strb	r7, [r3, r1]
 579 00a8 181C     		mov	r0, r3
 580              	.LVL54:
 276:.\SSD1306.c   ****       {
 581              		.loc 1 276 0 discriminator 3
 582 00aa 052D     		cmp	r5, #5
 583 00ac C4D1     		bne	.L26
 294:.\SSD1306.c   ****       }
 295:.\SSD1306.c   ****     lcd_buff_idx=(lcd_buff_idx+11)%1024;
 584              		.loc 1 295 0
 585 00ae 134B     		ldr	r3, .L35
 586 00b0 1549     		ldr	r1, .L35+12
ARM GAS  C:\Users\Vit\AppData\Local\Temp\cc4aOOs2.s 			page 17


 587 00b2 5A68     		ldr	r2, [r3, #4]
 588              	.LVL55:
 589 00b4 0B32     		add	r2, r2, #11
 590 00b6 0A40     		and	r2, r1
 591 00b8 03D5     		bpl	.L27
 592 00ba 1449     		ldr	r1, .L35+16
 593 00bc 013A     		sub	r2, r2, #1
 594 00be 0A43     		orr	r2, r1
 595 00c0 0132     		add	r2, r2, #1
 596              	.L27:
 597 00c2 5A60     		str	r2, [r3, #4]
 296:.\SSD1306.c   ****     lcd_buff[lcd_buff_idx]=0x00;    
 598              		.loc 1 296 0
 599 00c4 0022     		mov	r2, #0
 600 00c6 5968     		ldr	r1, [r3, #4]
 601 00c8 4254     		strb	r2, [r0, r1]
 297:.\SSD1306.c   ****     if(lcd_buff_idx==1023) lcd_buff_idx=0;
 602              		.loc 1 297 0
 603 00ca 5868     		ldr	r0, [r3, #4]
 604 00cc 1049     		ldr	r1, .L35+20
 605 00ce 8842     		cmp	r0, r1
 606 00d0 01D0     		beq	.L34
 298:.\SSD1306.c   ****     else lcd_buff_idx++;
 607              		.loc 1 298 0
 608 00d2 5A68     		ldr	r2, [r3, #4]
 609 00d4 0132     		add	r2, r2, #1
 610              	.L34:
 611 00d6 5A60     		str	r2, [r3, #4]
 299:.\SSD1306.c   ****     x_cur=x_cur+2;
 612              		.loc 1 299 0
 613 00d8 1A78     		ldrb	r2, [r3]
 614 00da 0232     		add	r2, r2, #2
 615 00dc D2B2     		uxtb	r2, r2
 616 00de 1A70     		strb	r2, [r3]
 300:.\SSD1306.c   ****     if (x_cur>19)
 617              		.loc 1 300 0
 618 00e0 1A78     		ldrb	r2, [r3]
 619 00e2 132A     		cmp	r2, #19
 620 00e4 09D9     		bls	.L24
 301:.\SSD1306.c   ****     {
 302:.\SSD1306.c   ****       x_cur=0;
 621              		.loc 1 302 0
 622 00e6 0021     		mov	r1, #0
 623 00e8 1970     		strb	r1, [r3]
 303:.\SSD1306.c   ****       y_cur=y_cur+2;
 624              		.loc 1 303 0
 625 00ea 5A78     		ldrb	r2, [r3, #1]
 626 00ec 0232     		add	r2, r2, #2
 627 00ee D2B2     		uxtb	r2, r2
 628 00f0 5A70     		strb	r2, [r3, #1]
 304:.\SSD1306.c   ****       if (y_cur>7)
 629              		.loc 1 304 0
 630 00f2 5A78     		ldrb	r2, [r3, #1]
 631 00f4 072A     		cmp	r2, #7
 632 00f6 00D9     		bls	.L24
 305:.\SSD1306.c   ****       {
 306:.\SSD1306.c   ****         y_cur=0;
ARM GAS  C:\Users\Vit\AppData\Local\Temp\cc4aOOs2.s 			page 18


 633              		.loc 1 306 0
 634 00f8 5970     		strb	r1, [r3, #1]
 635              	.L24:
 307:.\SSD1306.c   ****       }
 308:.\SSD1306.c   ****     }
 309:.\SSD1306.c   **** }
 636              		.loc 1 309 0
 637              		@ sp needed
 638              	.LVL56:
 639              	.LVL57:
 640 00fa F7BD     		pop	{r0, r1, r2, r4, r5, r6, r7, pc}
 641              	.L36:
 642              		.align	2
 643              	.L35:
 644 00fc 00000000 		.word	.LANCHOR0
 645 0100 00000000 		.word	.LANCHOR1
 646 0104 00000000 		.word	lcd_buff
 647 0108 FF030080 		.word	-2147482625
 648 010c 00FCFFFF 		.word	-1024
 649 0110 FF030000 		.word	1023
 650              		.cfi_endproc
 651              	.LFE38:
 652              		.size	LCD_2xChr, .-LCD_2xChr
 653              		.section	.text.LCD_FStr,"ax",%progbits
 654              		.align	1
 655              		.global	LCD_FStr
 656              		.code	16
 657              		.thumb_func
 658              		.type	LCD_FStr, %function
 659              	LCD_FStr:
 660              	.LFB39:
 310:.\SSD1306.c   **** 
 311:.\SSD1306.c   **** void LCD_FStr(char *dataPtr)
 312:.\SSD1306.c   **** {
 661              		.loc 1 312 0
 662              		.cfi_startproc
 663              	.LVL58:
 664 0000 38B5     		push	{r3, r4, r5, lr}
 665              		.cfi_def_cfa_offset 16
 666              		.cfi_offset 3, -16
 667              		.cfi_offset 4, -12
 668              		.cfi_offset 5, -8
 669              		.cfi_offset 14, -4
 670              		.loc 1 312 0
 671 0002 051C     		mov	r5, r0
 313:.\SSD1306.c   ****     uint8_t ix=0;
 672              		.loc 1 313 0
 673 0004 0024     		mov	r4, #0
 674              	.LVL59:
 675              	.L38:
 314:.\SSD1306.c   ****     while(dataPtr[ix]!=0)
 676              		.loc 1 314 0
 677 0006 285D     		ldrb	r0, [r5, r4]
 678 0008 0028     		cmp	r0, #0
 679 000a 04D0     		beq	.L40
 315:.\SSD1306.c   ****     {
 316:.\SSD1306.c   ****         LCD_Chr(dataPtr[ix]);
ARM GAS  C:\Users\Vit\AppData\Local\Temp\cc4aOOs2.s 			page 19


 317:.\SSD1306.c   ****         ix++;
 680              		.loc 1 317 0
 681 000c 0134     		add	r4, r4, #1
 682              	.LVL60:
 316:.\SSD1306.c   ****         ix++;
 683              		.loc 1 316 0
 684 000e FFF7FEFF 		bl	LCD_Chr
 685              	.LVL61:
 686              		.loc 1 317 0
 687 0012 E4B2     		uxtb	r4, r4
 688              	.LVL62:
 689 0014 F7E7     		b	.L38
 690              	.L40:
 318:.\SSD1306.c   ****     }
 319:.\SSD1306.c   **** }
 691              		.loc 1 319 0
 692              		@ sp needed
 693              	.LVL63:
 694              	.LVL64:
 695 0016 38BD     		pop	{r3, r4, r5, pc}
 696              		.cfi_endproc
 697              	.LFE39:
 698              		.size	LCD_FStr, .-LCD_FStr
 699              		.section	.text.LCD_2xFStr,"ax",%progbits
 700              		.align	1
 701              		.global	LCD_2xFStr
 702              		.code	16
 703              		.thumb_func
 704              		.type	LCD_2xFStr, %function
 705              	LCD_2xFStr:
 706              	.LFB40:
 320:.\SSD1306.c   **** 
 321:.\SSD1306.c   **** void LCD_2xFStr(char *dataPtr)
 322:.\SSD1306.c   **** {
 707              		.loc 1 322 0
 708              		.cfi_startproc
 709              	.LVL65:
 710 0000 38B5     		push	{r3, r4, r5, lr}
 711              		.cfi_def_cfa_offset 16
 712              		.cfi_offset 3, -16
 713              		.cfi_offset 4, -12
 714              		.cfi_offset 5, -8
 715              		.cfi_offset 14, -4
 716              		.loc 1 322 0
 717 0002 051C     		mov	r5, r0
 323:.\SSD1306.c   ****     uint8_t ix=0;
 718              		.loc 1 323 0
 719 0004 0024     		mov	r4, #0
 720              	.LVL66:
 721              	.L42:
 324:.\SSD1306.c   ****     while(dataPtr[ix]!=0)
 722              		.loc 1 324 0
 723 0006 285D     		ldrb	r0, [r5, r4]
 724 0008 0028     		cmp	r0, #0
 725 000a 04D0     		beq	.L44
 325:.\SSD1306.c   ****     {
 326:.\SSD1306.c   ****         LCD_2xChr(dataPtr[ix]);
ARM GAS  C:\Users\Vit\AppData\Local\Temp\cc4aOOs2.s 			page 20


 327:.\SSD1306.c   ****         ix++;
 726              		.loc 1 327 0
 727 000c 0134     		add	r4, r4, #1
 728              	.LVL67:
 326:.\SSD1306.c   ****         ix++;
 729              		.loc 1 326 0
 730 000e FFF7FEFF 		bl	LCD_2xChr
 731              	.LVL68:
 732              		.loc 1 327 0
 733 0012 E4B2     		uxtb	r4, r4
 734              	.LVL69:
 735 0014 F7E7     		b	.L42
 736              	.L44:
 328:.\SSD1306.c   ****     }
 329:.\SSD1306.c   **** }
 737              		.loc 1 329 0
 738              		@ sp needed
 739              	.LVL70:
 740              	.LVL71:
 741 0016 38BD     		pop	{r3, r4, r5, pc}
 742              		.cfi_endproc
 743              	.LFE40:
 744              		.size	LCD_2xFStr, .-LCD_2xFStr
 745              		.section	.text.LCD_GotoXY,"ax",%progbits
 746              		.align	1
 747              		.global	LCD_GotoXY
 748              		.code	16
 749              		.thumb_func
 750              		.type	LCD_GotoXY, %function
 751              	LCD_GotoXY:
 752              	.LFB41:
 330:.\SSD1306.c   **** 
 331:.\SSD1306.c   **** void LCD_GotoXY(uint8_t x,uint8_t y)
 332:.\SSD1306.c   **** {
 753              		.loc 1 332 0
 754              		.cfi_startproc
 755              	.LVL72:
 333:.\SSD1306.c   ****     if((x<21)&&(y<8))
 756              		.loc 1 333 0
 757 0000 1428     		cmp	r0, #20
 758 0002 04D8     		bhi	.L45
 759              		.loc 1 333 0 is_stmt 0 discriminator 1
 760 0004 0729     		cmp	r1, #7
 761 0006 02D8     		bhi	.L45
 334:.\SSD1306.c   ****     {
 335:.\SSD1306.c   ****       x_cur=x;
 762              		.loc 1 335 0 is_stmt 1
 763 0008 014B     		ldr	r3, .L47
 764 000a 1870     		strb	r0, [r3]
 336:.\SSD1306.c   ****       y_cur=y;
 765              		.loc 1 336 0
 766 000c 5970     		strb	r1, [r3, #1]
 767              	.L45:
 337:.\SSD1306.c   ****     }
 338:.\SSD1306.c   **** }
 768              		.loc 1 338 0
 769              		@ sp needed
ARM GAS  C:\Users\Vit\AppData\Local\Temp\cc4aOOs2.s 			page 21


 770 000e 7047     		bx	lr
 771              	.L48:
 772              		.align	2
 773              	.L47:
 774 0010 00000000 		.word	.LANCHOR0
 775              		.cfi_endproc
 776              	.LFE41:
 777              		.size	LCD_GotoXY, .-LCD_GotoXY
 778              		.section	.text.LCD_Picture,"ax",%progbits
 779              		.align	1
 780              		.global	LCD_Picture
 781              		.code	16
 782              		.thumb_func
 783              		.type	LCD_Picture, %function
 784              	LCD_Picture:
 785              	.LFB42:
 339:.\SSD1306.c   **** 
 340:.\SSD1306.c   **** void LCD_Picture(unsigned char const *data)
 341:.\SSD1306.c   **** {
 786              		.loc 1 341 0
 787              		.cfi_startproc
 788              	.LVL73:
 342:.\SSD1306.c   ****     for (lcd_buff_idx=0;lcd_buff_idx<1024;lcd_buff_idx++)
 789              		.loc 1 342 0
 790 0000 0022     		mov	r2, #0
 341:.\SSD1306.c   ****     for (lcd_buff_idx=0;lcd_buff_idx<1024;lcd_buff_idx++)
 791              		.loc 1 341 0
 792 0002 10B5     		push	{r4, lr}
 793              		.cfi_def_cfa_offset 8
 794              		.cfi_offset 4, -8
 795              		.cfi_offset 14, -4
 796              		.loc 1 342 0
 797 0004 074B     		ldr	r3, .L54
 798              	.L52:
 799              		.loc 1 342 0 is_stmt 0 discriminator 3
 800 0006 5A60     		str	r2, [r3, #4]
 801 0008 5968     		ldr	r1, [r3, #4]
 802 000a 074A     		ldr	r2, .L54+4
 803 000c 9142     		cmp	r1, r2
 804 000e 07DC     		bgt	.L53
 343:.\SSD1306.c   ****     {
 344:.\SSD1306.c   ****         lcd_buff[lcd_buff_idx] = data[lcd_buff_idx];
 805              		.loc 1 344 0 is_stmt 1 discriminator 3
 806 0010 5A68     		ldr	r2, [r3, #4]
 807 0012 5968     		ldr	r1, [r3, #4]
 808 0014 445C     		ldrb	r4, [r0, r1]
 809 0016 0549     		ldr	r1, .L54+8
 810 0018 8C54     		strb	r4, [r1, r2]
 342:.\SSD1306.c   ****     {
 811              		.loc 1 342 0 discriminator 3
 812 001a 5A68     		ldr	r2, [r3, #4]
 813 001c 0132     		add	r2, r2, #1
 814 001e F2E7     		b	.L52
 815              	.L53:
 345:.\SSD1306.c   ****     } 
 346:.\SSD1306.c   **** }
 816              		.loc 1 346 0
ARM GAS  C:\Users\Vit\AppData\Local\Temp\cc4aOOs2.s 			page 22


 817              		@ sp needed
 818 0020 10BD     		pop	{r4, pc}
 819              	.L55:
 820 0022 C046     		.align	2
 821              	.L54:
 822 0024 00000000 		.word	.LANCHOR0
 823 0028 FF030000 		.word	1023
 824 002c 00000000 		.word	lcd_buff
 825              		.cfi_endproc
 826              	.LFE42:
 827              		.size	LCD_Picture, .-LCD_Picture
 828              		.section	.text.LCD_User,"ax",%progbits
 829              		.align	1
 830              		.global	LCD_User
 831              		.code	16
 832              		.thumb_func
 833              		.type	LCD_User, %function
 834              	LCD_User:
 835              	.LFB43:
 347:.\SSD1306.c   **** 
 348:.\SSD1306.c   **** void LCD_User(char *udg)
 349:.\SSD1306.c   **** {
 836              		.loc 1 349 0
 837              		.cfi_startproc
 838              	.LVL74:
 350:.\SSD1306.c   ****     uint8_t i;
 351:.\SSD1306.c   ****     
 352:.\SSD1306.c   ****     lcd_buff_idx=y_cur*128+x_cur*6;    
 839              		.loc 1 352 0
 840 0000 0621     		mov	r1, #6
 349:.\SSD1306.c   ****     uint8_t i;
 841              		.loc 1 349 0
 842 0002 30B5     		push	{r4, r5, lr}
 843              		.cfi_def_cfa_offset 12
 844              		.cfi_offset 4, -12
 845              		.cfi_offset 5, -8
 846              		.cfi_offset 14, -4
 847              		.loc 1 352 0
 848 0004 114B     		ldr	r3, .L61
 849 0006 5C78     		ldrb	r4, [r3, #1]
 850 0008 1A78     		ldrb	r2, [r3]
 851 000a E401     		lsl	r4, r4, #7
 852 000c 4A43     		mul	r2, r1
 853 000e A218     		add	r2, r4, r2
 854 0010 5A60     		str	r2, [r3, #4]
 855              	.LVL75:
 856 0012 4118     		add	r1, r0, r1
 857              	.LVL76:
 858              	.L57:
 353:.\SSD1306.c   ****     
 354:.\SSD1306.c   ****     for (i=0;i<6;i++)
 355:.\SSD1306.c   ****         {
 356:.\SSD1306.c   ****             lcd_buff[lcd_buff_idx++] = udg[i];
 859              		.loc 1 356 0 discriminator 3
 860 0014 5A68     		ldr	r2, [r3, #4]
 861 0016 541C     		add	r4, r2, #1
 862 0018 5C60     		str	r4, [r3, #4]
ARM GAS  C:\Users\Vit\AppData\Local\Temp\cc4aOOs2.s 			page 23


 863 001a 0578     		ldrb	r5, [r0]
 864 001c 0C4C     		ldr	r4, .L61+4
 865 001e 0130     		add	r0, r0, #1
 866              	.LVL77:
 867 0020 A554     		strb	r5, [r4, r2]
 354:.\SSD1306.c   ****         {
 868              		.loc 1 354 0 discriminator 3
 869 0022 8842     		cmp	r0, r1
 870 0024 F6D1     		bne	.L57
 357:.\SSD1306.c   ****         }
 358:.\SSD1306.c   ****     
 359:.\SSD1306.c   ****     x_cur++;
 871              		.loc 1 359 0
 872 0026 1A78     		ldrb	r2, [r3]
 873 0028 0132     		add	r2, r2, #1
 874 002a D2B2     		uxtb	r2, r2
 875 002c 1A70     		strb	r2, [r3]
 360:.\SSD1306.c   ****     if (x_cur>20)
 876              		.loc 1 360 0
 877 002e 1A78     		ldrb	r2, [r3]
 878 0030 142A     		cmp	r2, #20
 879 0032 09D9     		bls	.L56
 361:.\SSD1306.c   ****     {
 362:.\SSD1306.c   ****       x_cur=0;
 880              		.loc 1 362 0
 881 0034 0021     		mov	r1, #0
 882              	.LVL78:
 883 0036 1970     		strb	r1, [r3]
 363:.\SSD1306.c   ****       y_cur++;
 884              		.loc 1 363 0
 885 0038 5A78     		ldrb	r2, [r3, #1]
 886 003a 0132     		add	r2, r2, #1
 887 003c D2B2     		uxtb	r2, r2
 888 003e 5A70     		strb	r2, [r3, #1]
 364:.\SSD1306.c   ****       if (y_cur>7)
 889              		.loc 1 364 0
 890 0040 5A78     		ldrb	r2, [r3, #1]
 891 0042 072A     		cmp	r2, #7
 892 0044 00D9     		bls	.L56
 365:.\SSD1306.c   ****       {
 366:.\SSD1306.c   ****         y_cur=0;
 893              		.loc 1 366 0
 894 0046 5970     		strb	r1, [r3, #1]
 895              	.L56:
 367:.\SSD1306.c   ****       }
 368:.\SSD1306.c   ****     }
 369:.\SSD1306.c   **** }...
 896              		.loc 1 369 0
 897              		@ sp needed
 898 0048 30BD     		pop	{r4, r5, pc}
 899              	.L62:
 900 004a C046     		.align	2
 901              	.L61:
 902 004c 00000000 		.word	.LANCHOR0
 903 0050 00000000 		.word	lcd_buff
 904              		.cfi_endproc
 905              	.LFE43:
ARM GAS  C:\Users\Vit\AppData\Local\Temp\cc4aOOs2.s 			page 24


 906              		.size	LCD_User, .-LCD_User
 907              		.global	font
 908              		.global	y_cur
 909              		.global	x_cur
 910              		.global	lcd_buff_idx
 911              		.comm	lcd_buff,1024,1
 912              		.section	.rodata
 913              		.set	.LANCHOR1,. + 0
 914              		.type	font, %object
 915              		.size	font, 805
 916              	font:
 917 0000 00       		.byte	0
 918 0001 00       		.byte	0
 919 0002 00       		.byte	0
 920 0003 00       		.byte	0
 921 0004 00       		.byte	0
 922 0005 00       		.byte	0
 923 0006 00       		.byte	0
 924 0007 5F       		.byte	95
 925 0008 00       		.byte	0
 926 0009 00       		.byte	0
 927 000a 00       		.byte	0
 928 000b 07       		.byte	7
 929 000c 00       		.byte	0
 930 000d 07       		.byte	7
 931 000e 00       		.byte	0
 932 000f 14       		.byte	20
 933 0010 7F       		.byte	127
 934 0011 14       		.byte	20
 935 0012 7F       		.byte	127
 936 0013 14       		.byte	20
 937 0014 24       		.byte	36
 938 0015 2A       		.byte	42
 939 0016 7F       		.byte	127
 940 0017 2A       		.byte	42
 941 0018 12       		.byte	18
 942 0019 4C       		.byte	76
 943 001a 2C       		.byte	44
 944 001b 10       		.byte	16
 945 001c 68       		.byte	104
 946 001d 64       		.byte	100
 947 001e 36       		.byte	54
 948 001f 49       		.byte	73
 949 0020 55       		.byte	85
 950 0021 22       		.byte	34
 951 0022 50       		.byte	80
 952 0023 00       		.byte	0
 953 0024 05       		.byte	5
 954 0025 03       		.byte	3
 955 0026 00       		.byte	0
 956 0027 00       		.byte	0
 957 0028 00       		.byte	0
 958 0029 1C       		.byte	28
 959 002a 22       		.byte	34
 960 002b 41       		.byte	65
 961 002c 00       		.byte	0
 962 002d 00       		.byte	0
ARM GAS  C:\Users\Vit\AppData\Local\Temp\cc4aOOs2.s 			page 25


 963 002e 41       		.byte	65
 964 002f 22       		.byte	34
 965 0030 1C       		.byte	28
 966 0031 00       		.byte	0
 967 0032 14       		.byte	20
 968 0033 08       		.byte	8
 969 0034 3E       		.byte	62
 970 0035 08       		.byte	8
 971 0036 14       		.byte	20
 972 0037 08       		.byte	8
 973 0038 08       		.byte	8
 974 0039 3E       		.byte	62
 975 003a 08       		.byte	8
 976 003b 08       		.byte	8
 977 003c 00       		.byte	0
 978 003d 00       		.byte	0
 979 003e 50       		.byte	80
 980 003f 30       		.byte	48
 981 0040 00       		.byte	0
 982 0041 10       		.byte	16
 983 0042 10       		.byte	16
 984 0043 10       		.byte	16
 985 0044 10       		.byte	16
 986 0045 10       		.byte	16
 987 0046 00       		.byte	0
 988 0047 60       		.byte	96
 989 0048 60       		.byte	96
 990 0049 00       		.byte	0
 991 004a 00       		.byte	0
 992 004b 20       		.byte	32
 993 004c 10       		.byte	16
 994 004d 08       		.byte	8
 995 004e 04       		.byte	4
 996 004f 02       		.byte	2
 997 0050 3E       		.byte	62
 998 0051 51       		.byte	81
 999 0052 49       		.byte	73
 1000 0053 45       		.byte	69
 1001 0054 3E       		.byte	62
 1002 0055 00       		.byte	0
 1003 0056 42       		.byte	66
 1004 0057 7F       		.byte	127
 1005 0058 40       		.byte	64
 1006 0059 00       		.byte	0
 1007 005a 42       		.byte	66
 1008 005b 61       		.byte	97
 1009 005c 51       		.byte	81
 1010 005d 49       		.byte	73
 1011 005e 46       		.byte	70
 1012 005f 21       		.byte	33
 1013 0060 41       		.byte	65
 1014 0061 45       		.byte	69
 1015 0062 4B       		.byte	75
 1016 0063 31       		.byte	49
 1017 0064 18       		.byte	24
 1018 0065 14       		.byte	20
 1019 0066 12       		.byte	18
ARM GAS  C:\Users\Vit\AppData\Local\Temp\cc4aOOs2.s 			page 26


 1020 0067 7F       		.byte	127
 1021 0068 10       		.byte	16
 1022 0069 27       		.byte	39
 1023 006a 45       		.byte	69
 1024 006b 45       		.byte	69
 1025 006c 45       		.byte	69
 1026 006d 39       		.byte	57
 1027 006e 3C       		.byte	60
 1028 006f 4A       		.byte	74
 1029 0070 49       		.byte	73
 1030 0071 49       		.byte	73
 1031 0072 30       		.byte	48
 1032 0073 01       		.byte	1
 1033 0074 71       		.byte	113
 1034 0075 09       		.byte	9
 1035 0076 05       		.byte	5
 1036 0077 03       		.byte	3
 1037 0078 36       		.byte	54
 1038 0079 49       		.byte	73
 1039 007a 49       		.byte	73
 1040 007b 49       		.byte	73
 1041 007c 36       		.byte	54
 1042 007d 06       		.byte	6
 1043 007e 49       		.byte	73
 1044 007f 49       		.byte	73
 1045 0080 29       		.byte	41
 1046 0081 1E       		.byte	30
 1047 0082 00       		.byte	0
 1048 0083 36       		.byte	54
 1049 0084 36       		.byte	54
 1050 0085 00       		.byte	0
 1051 0086 00       		.byte	0
 1052 0087 00       		.byte	0
 1053 0088 56       		.byte	86
 1054 0089 36       		.byte	54
 1055 008a 00       		.byte	0
 1056 008b 00       		.byte	0
 1057 008c 08       		.byte	8
 1058 008d 14       		.byte	20
 1059 008e 22       		.byte	34
 1060 008f 41       		.byte	65
 1061 0090 00       		.byte	0
 1062 0091 14       		.byte	20
 1063 0092 14       		.byte	20
 1064 0093 14       		.byte	20
 1065 0094 14       		.byte	20
 1066 0095 14       		.byte	20
 1067 0096 00       		.byte	0
 1068 0097 41       		.byte	65
 1069 0098 22       		.byte	34
 1070 0099 14       		.byte	20
 1071 009a 08       		.byte	8
 1072 009b 02       		.byte	2
 1073 009c 01       		.byte	1
 1074 009d 51       		.byte	81
 1075 009e 09       		.byte	9
 1076 009f 06       		.byte	6
ARM GAS  C:\Users\Vit\AppData\Local\Temp\cc4aOOs2.s 			page 27


 1077 00a0 32       		.byte	50
 1078 00a1 49       		.byte	73
 1079 00a2 79       		.byte	121
 1080 00a3 41       		.byte	65
 1081 00a4 3E       		.byte	62
 1082 00a5 7E       		.byte	126
 1083 00a6 11       		.byte	17
 1084 00a7 11       		.byte	17
 1085 00a8 11       		.byte	17
 1086 00a9 7E       		.byte	126
 1087 00aa 7F       		.byte	127
 1088 00ab 49       		.byte	73
 1089 00ac 49       		.byte	73
 1090 00ad 49       		.byte	73
 1091 00ae 36       		.byte	54
 1092 00af 3E       		.byte	62
 1093 00b0 41       		.byte	65
 1094 00b1 41       		.byte	65
 1095 00b2 41       		.byte	65
 1096 00b3 22       		.byte	34
 1097 00b4 7F       		.byte	127
 1098 00b5 41       		.byte	65
 1099 00b6 41       		.byte	65
 1100 00b7 22       		.byte	34
 1101 00b8 1C       		.byte	28
 1102 00b9 7F       		.byte	127
 1103 00ba 49       		.byte	73
 1104 00bb 49       		.byte	73
 1105 00bc 49       		.byte	73
 1106 00bd 41       		.byte	65
 1107 00be 7F       		.byte	127
 1108 00bf 09       		.byte	9
 1109 00c0 09       		.byte	9
 1110 00c1 09       		.byte	9
 1111 00c2 01       		.byte	1
 1112 00c3 3E       		.byte	62
 1113 00c4 41       		.byte	65
 1114 00c5 49       		.byte	73
 1115 00c6 49       		.byte	73
 1116 00c7 7A       		.byte	122
 1117 00c8 7F       		.byte	127
 1118 00c9 08       		.byte	8
 1119 00ca 08       		.byte	8
 1120 00cb 08       		.byte	8
 1121 00cc 7F       		.byte	127
 1122 00cd 00       		.byte	0
 1123 00ce 41       		.byte	65
 1124 00cf 7F       		.byte	127
 1125 00d0 41       		.byte	65
 1126 00d1 00       		.byte	0
 1127 00d2 20       		.byte	32
 1128 00d3 40       		.byte	64
 1129 00d4 41       		.byte	65
 1130 00d5 3F       		.byte	63
 1131 00d6 01       		.byte	1
 1132 00d7 7F       		.byte	127
 1133 00d8 08       		.byte	8
ARM GAS  C:\Users\Vit\AppData\Local\Temp\cc4aOOs2.s 			page 28


 1134 00d9 14       		.byte	20
 1135 00da 22       		.byte	34
 1136 00db 41       		.byte	65
 1137 00dc 7F       		.byte	127
 1138 00dd 40       		.byte	64
 1139 00de 40       		.byte	64
 1140 00df 40       		.byte	64
 1141 00e0 40       		.byte	64
 1142 00e1 7F       		.byte	127
 1143 00e2 02       		.byte	2
 1144 00e3 0C       		.byte	12
 1145 00e4 02       		.byte	2
 1146 00e5 7F       		.byte	127
 1147 00e6 7F       		.byte	127
 1148 00e7 04       		.byte	4
 1149 00e8 08       		.byte	8
 1150 00e9 10       		.byte	16
 1151 00ea 7F       		.byte	127
 1152 00eb 3E       		.byte	62
 1153 00ec 41       		.byte	65
 1154 00ed 41       		.byte	65
 1155 00ee 41       		.byte	65
 1156 00ef 3E       		.byte	62
 1157 00f0 7F       		.byte	127
 1158 00f1 09       		.byte	9
 1159 00f2 09       		.byte	9
 1160 00f3 09       		.byte	9
 1161 00f4 06       		.byte	6
 1162 00f5 3E       		.byte	62
 1163 00f6 41       		.byte	65
 1164 00f7 51       		.byte	81
 1165 00f8 21       		.byte	33
 1166 00f9 5E       		.byte	94
 1167 00fa 7F       		.byte	127
 1168 00fb 09       		.byte	9
 1169 00fc 19       		.byte	25
 1170 00fd 29       		.byte	41
 1171 00fe 46       		.byte	70
 1172 00ff 46       		.byte	70
 1173 0100 49       		.byte	73
 1174 0101 49       		.byte	73
 1175 0102 49       		.byte	73
 1176 0103 31       		.byte	49
 1177 0104 01       		.byte	1
 1178 0105 01       		.byte	1
 1179 0106 7F       		.byte	127
 1180 0107 01       		.byte	1
 1181 0108 01       		.byte	1
 1182 0109 3F       		.byte	63
 1183 010a 40       		.byte	64
 1184 010b 40       		.byte	64
 1185 010c 40       		.byte	64
 1186 010d 3F       		.byte	63
 1187 010e 1F       		.byte	31
 1188 010f 20       		.byte	32
 1189 0110 40       		.byte	64
 1190 0111 20       		.byte	32
ARM GAS  C:\Users\Vit\AppData\Local\Temp\cc4aOOs2.s 			page 29


 1191 0112 1F       		.byte	31
 1192 0113 3F       		.byte	63
 1193 0114 40       		.byte	64
 1194 0115 38       		.byte	56
 1195 0116 40       		.byte	64
 1196 0117 3F       		.byte	63
 1197 0118 63       		.byte	99
 1198 0119 14       		.byte	20
 1199 011a 08       		.byte	8
 1200 011b 14       		.byte	20
 1201 011c 63       		.byte	99
 1202 011d 07       		.byte	7
 1203 011e 08       		.byte	8
 1204 011f 70       		.byte	112
 1205 0120 08       		.byte	8
 1206 0121 07       		.byte	7
 1207 0122 61       		.byte	97
 1208 0123 51       		.byte	81
 1209 0124 49       		.byte	73
 1210 0125 45       		.byte	69
 1211 0126 43       		.byte	67
 1212 0127 00       		.byte	0
 1213 0128 7F       		.byte	127
 1214 0129 41       		.byte	65
 1215 012a 41       		.byte	65
 1216 012b 00       		.byte	0
 1217 012c 02       		.byte	2
 1218 012d 04       		.byte	4
 1219 012e 08       		.byte	8
 1220 012f 10       		.byte	16
 1221 0130 20       		.byte	32
 1222 0131 00       		.byte	0
 1223 0132 41       		.byte	65
 1224 0133 41       		.byte	65
 1225 0134 7F       		.byte	127
 1226 0135 00       		.byte	0
 1227 0136 04       		.byte	4
 1228 0137 02       		.byte	2
 1229 0138 01       		.byte	1
 1230 0139 02       		.byte	2
 1231 013a 04       		.byte	4
 1232 013b 40       		.byte	64
 1233 013c 40       		.byte	64
 1234 013d 40       		.byte	64
 1235 013e 40       		.byte	64
 1236 013f 40       		.byte	64
 1237 0140 00       		.byte	0
 1238 0141 01       		.byte	1
 1239 0142 02       		.byte	2
 1240 0143 04       		.byte	4
 1241 0144 00       		.byte	0
 1242 0145 20       		.byte	32
 1243 0146 54       		.byte	84
 1244 0147 54       		.byte	84
 1245 0148 54       		.byte	84
 1246 0149 78       		.byte	120
 1247 014a 7F       		.byte	127
ARM GAS  C:\Users\Vit\AppData\Local\Temp\cc4aOOs2.s 			page 30


 1248 014b 48       		.byte	72
 1249 014c 44       		.byte	68
 1250 014d 44       		.byte	68
 1251 014e 38       		.byte	56
 1252 014f 38       		.byte	56
 1253 0150 44       		.byte	68
 1254 0151 44       		.byte	68
 1255 0152 44       		.byte	68
 1256 0153 20       		.byte	32
 1257 0154 38       		.byte	56
 1258 0155 44       		.byte	68
 1259 0156 44       		.byte	68
 1260 0157 48       		.byte	72
 1261 0158 7F       		.byte	127
 1262 0159 38       		.byte	56
 1263 015a 54       		.byte	84
 1264 015b 54       		.byte	84
 1265 015c 54       		.byte	84
 1266 015d 18       		.byte	24
 1267 015e 08       		.byte	8
 1268 015f 7E       		.byte	126
 1269 0160 09       		.byte	9
 1270 0161 01       		.byte	1
 1271 0162 02       		.byte	2
 1272 0163 0C       		.byte	12
 1273 0164 52       		.byte	82
 1274 0165 52       		.byte	82
 1275 0166 52       		.byte	82
 1276 0167 3E       		.byte	62
 1277 0168 7F       		.byte	127
 1278 0169 08       		.byte	8
 1279 016a 04       		.byte	4
 1280 016b 04       		.byte	4
 1281 016c 78       		.byte	120
 1282 016d 00       		.byte	0
 1283 016e 44       		.byte	68
 1284 016f 7D       		.byte	125
 1285 0170 40       		.byte	64
 1286 0171 00       		.byte	0
 1287 0172 20       		.byte	32
 1288 0173 40       		.byte	64
 1289 0174 44       		.byte	68
 1290 0175 3D       		.byte	61
 1291 0176 00       		.byte	0
 1292 0177 7F       		.byte	127
 1293 0178 10       		.byte	16
 1294 0179 28       		.byte	40
 1295 017a 44       		.byte	68
 1296 017b 00       		.byte	0
 1297 017c 00       		.byte	0
 1298 017d 41       		.byte	65
 1299 017e 7F       		.byte	127
 1300 017f 40       		.byte	64
 1301 0180 00       		.byte	0
 1302 0181 7C       		.byte	124
 1303 0182 04       		.byte	4
 1304 0183 18       		.byte	24
ARM GAS  C:\Users\Vit\AppData\Local\Temp\cc4aOOs2.s 			page 31


 1305 0184 04       		.byte	4
 1306 0185 78       		.byte	120
 1307 0186 7C       		.byte	124
 1308 0187 08       		.byte	8
 1309 0188 04       		.byte	4
 1310 0189 04       		.byte	4
 1311 018a 78       		.byte	120
 1312 018b 38       		.byte	56
 1313 018c 44       		.byte	68
 1314 018d 44       		.byte	68
 1315 018e 44       		.byte	68
 1316 018f 38       		.byte	56
 1317 0190 7C       		.byte	124
 1318 0191 14       		.byte	20
 1319 0192 14       		.byte	20
 1320 0193 14       		.byte	20
 1321 0194 08       		.byte	8
 1322 0195 08       		.byte	8
 1323 0196 14       		.byte	20
 1324 0197 14       		.byte	20
 1325 0198 18       		.byte	24
 1326 0199 7C       		.byte	124
 1327 019a 7C       		.byte	124
 1328 019b 08       		.byte	8
 1329 019c 04       		.byte	4
 1330 019d 04       		.byte	4
 1331 019e 08       		.byte	8
 1332 019f 48       		.byte	72
 1333 01a0 54       		.byte	84
 1334 01a1 54       		.byte	84
 1335 01a2 54       		.byte	84
 1336 01a3 20       		.byte	32
 1337 01a4 04       		.byte	4
 1338 01a5 3F       		.byte	63
 1339 01a6 44       		.byte	68
 1340 01a7 40       		.byte	64
 1341 01a8 20       		.byte	32
 1342 01a9 3C       		.byte	60
 1343 01aa 40       		.byte	64
 1344 01ab 40       		.byte	64
 1345 01ac 20       		.byte	32
 1346 01ad 7C       		.byte	124
 1347 01ae 1C       		.byte	28
 1348 01af 20       		.byte	32
 1349 01b0 40       		.byte	64
 1350 01b1 20       		.byte	32
 1351 01b2 1C       		.byte	28
 1352 01b3 3C       		.byte	60
 1353 01b4 40       		.byte	64
 1354 01b5 30       		.byte	48
 1355 01b6 40       		.byte	64
 1356 01b7 3C       		.byte	60
 1357 01b8 44       		.byte	68
 1358 01b9 28       		.byte	40
 1359 01ba 10       		.byte	16
 1360 01bb 28       		.byte	40
 1361 01bc 44       		.byte	68
ARM GAS  C:\Users\Vit\AppData\Local\Temp\cc4aOOs2.s 			page 32


 1362 01bd 0C       		.byte	12
 1363 01be 50       		.byte	80
 1364 01bf 50       		.byte	80
 1365 01c0 50       		.byte	80
 1366 01c1 3C       		.byte	60
 1367 01c2 44       		.byte	68
 1368 01c3 64       		.byte	100
 1369 01c4 54       		.byte	84
 1370 01c5 4C       		.byte	76
 1371 01c6 44       		.byte	68
 1372 01c7 00       		.byte	0
 1373 01c8 08       		.byte	8
 1374 01c9 36       		.byte	54
 1375 01ca 41       		.byte	65
 1376 01cb 00       		.byte	0
 1377 01cc 00       		.byte	0
 1378 01cd 00       		.byte	0
 1379 01ce 7F       		.byte	127
 1380 01cf 00       		.byte	0
 1381 01d0 00       		.byte	0
 1382 01d1 00       		.byte	0
 1383 01d2 41       		.byte	65
 1384 01d3 36       		.byte	54
 1385 01d4 08       		.byte	8
 1386 01d5 00       		.byte	0
 1387 01d6 08       		.byte	8
 1388 01d7 04       		.byte	4
 1389 01d8 08       		.byte	8
 1390 01d9 10       		.byte	16
 1391 01da 08       		.byte	8
 1392 01db FF       		.byte	-1
 1393 01dc FF       		.byte	-1
 1394 01dd FF       		.byte	-1
 1395 01de FF       		.byte	-1
 1396 01df FF       		.byte	-1
 1397 01e0 06       		.byte	6
 1398 01e1 09       		.byte	9
 1399 01e2 09       		.byte	9
 1400 01e3 06       		.byte	6
 1401 01e4 00       		.byte	0
 1402 01e5 7C       		.byte	124
 1403 01e6 12       		.byte	18
 1404 01e7 11       		.byte	17
 1405 01e8 12       		.byte	18
 1406 01e9 7C       		.byte	124
 1407 01ea 7F       		.byte	127
 1408 01eb 49       		.byte	73
 1409 01ec 49       		.byte	73
 1410 01ed 49       		.byte	73
 1411 01ee 31       		.byte	49
 1412 01ef 7F       		.byte	127
 1413 01f0 49       		.byte	73
 1414 01f1 49       		.byte	73
 1415 01f2 49       		.byte	73
 1416 01f3 36       		.byte	54
 1417 01f4 7F       		.byte	127
 1418 01f5 01       		.byte	1
ARM GAS  C:\Users\Vit\AppData\Local\Temp\cc4aOOs2.s 			page 33


 1419 01f6 01       		.byte	1
 1420 01f7 01       		.byte	1
 1421 01f8 01       		.byte	1
 1422 01f9 60       		.byte	96
 1423 01fa 3F       		.byte	63
 1424 01fb 21       		.byte	33
 1425 01fc 3F       		.byte	63
 1426 01fd 60       		.byte	96
 1427 01fe 7F       		.byte	127
 1428 01ff 49       		.byte	73
 1429 0200 49       		.byte	73
 1430 0201 49       		.byte	73
 1431 0202 41       		.byte	65
 1432 0203 77       		.byte	119
 1433 0204 08       		.byte	8
 1434 0205 7F       		.byte	127
 1435 0206 08       		.byte	8
 1436 0207 77       		.byte	119
 1437 0208 22       		.byte	34
 1438 0209 41       		.byte	65
 1439 020a 49       		.byte	73
 1440 020b 49       		.byte	73
 1441 020c 36       		.byte	54
 1442 020d 7F       		.byte	127
 1443 020e 10       		.byte	16
 1444 020f 08       		.byte	8
 1445 0210 04       		.byte	4
 1446 0211 7F       		.byte	127
 1447 0212 7E       		.byte	126
 1448 0213 10       		.byte	16
 1449 0214 09       		.byte	9
 1450 0215 04       		.byte	4
 1451 0216 7E       		.byte	126
 1452 0217 7F       		.byte	127
 1453 0218 08       		.byte	8
 1454 0219 14       		.byte	20
 1455 021a 22       		.byte	34
 1456 021b 41       		.byte	65
 1457 021c 40       		.byte	64
 1458 021d 3E       		.byte	62
 1459 021e 01       		.byte	1
 1460 021f 01       		.byte	1
 1461 0220 7F       		.byte	127
 1462 0221 7F       		.byte	127
 1463 0222 02       		.byte	2
 1464 0223 0C       		.byte	12
 1465 0224 02       		.byte	2
 1466 0225 7F       		.byte	127
 1467 0226 7F       		.byte	127
 1468 0227 08       		.byte	8
 1469 0228 08       		.byte	8
 1470 0229 08       		.byte	8
 1471 022a 7F       		.byte	127
 1472 022b 3E       		.byte	62
 1473 022c 41       		.byte	65
 1474 022d 41       		.byte	65
 1475 022e 41       		.byte	65
ARM GAS  C:\Users\Vit\AppData\Local\Temp\cc4aOOs2.s 			page 34


 1476 022f 3E       		.byte	62
 1477 0230 7F       		.byte	127
 1478 0231 01       		.byte	1
 1479 0232 01       		.byte	1
 1480 0233 01       		.byte	1
 1481 0234 7F       		.byte	127
 1482 0235 7F       		.byte	127
 1483 0236 09       		.byte	9
 1484 0237 09       		.byte	9
 1485 0238 09       		.byte	9
 1486 0239 06       		.byte	6
 1487 023a 3E       		.byte	62
 1488 023b 41       		.byte	65
 1489 023c 41       		.byte	65
 1490 023d 41       		.byte	65
 1491 023e 22       		.byte	34
 1492 023f 01       		.byte	1
 1493 0240 01       		.byte	1
 1494 0241 7F       		.byte	127
 1495 0242 01       		.byte	1
 1496 0243 01       		.byte	1
 1497 0244 07       		.byte	7
 1498 0245 48       		.byte	72
 1499 0246 48       		.byte	72
 1500 0247 48       		.byte	72
 1501 0248 3F       		.byte	63
 1502 0249 0E       		.byte	14
 1503 024a 11       		.byte	17
 1504 024b 7F       		.byte	127
 1505 024c 11       		.byte	17
 1506 024d 0E       		.byte	14
 1507 024e 63       		.byte	99
 1508 024f 14       		.byte	20
 1509 0250 08       		.byte	8
 1510 0251 14       		.byte	20
 1511 0252 63       		.byte	99
 1512 0253 3F       		.byte	63
 1513 0254 20       		.byte	32
 1514 0255 20       		.byte	32
 1515 0256 3F       		.byte	63
 1516 0257 60       		.byte	96
 1517 0258 07       		.byte	7
 1518 0259 08       		.byte	8
 1519 025a 08       		.byte	8
 1520 025b 08       		.byte	8
 1521 025c 7F       		.byte	127
 1522 025d 7F       		.byte	127
 1523 025e 40       		.byte	64
 1524 025f 7E       		.byte	126
 1525 0260 40       		.byte	64
 1526 0261 7F       		.byte	127
 1527 0262 3F       		.byte	63
 1528 0263 20       		.byte	32
 1529 0264 3F       		.byte	63
 1530 0265 20       		.byte	32
 1531 0266 7F       		.byte	127
 1532 0267 01       		.byte	1
ARM GAS  C:\Users\Vit\AppData\Local\Temp\cc4aOOs2.s 			page 35


 1533 0268 7F       		.byte	127
 1534 0269 48       		.byte	72
 1535 026a 48       		.byte	72
 1536 026b 30       		.byte	48
 1537 026c 7F       		.byte	127
 1538 026d 48       		.byte	72
 1539 026e 30       		.byte	48
 1540 026f 00       		.byte	0
 1541 0270 7F       		.byte	127
 1542 0271 00       		.byte	0
 1543 0272 7F       		.byte	127
 1544 0273 48       		.byte	72
 1545 0274 48       		.byte	72
 1546 0275 30       		.byte	48
 1547 0276 22       		.byte	34
 1548 0277 41       		.byte	65
 1549 0278 49       		.byte	73
 1550 0279 49       		.byte	73
 1551 027a 3E       		.byte	62
 1552 027b 7F       		.byte	127
 1553 027c 08       		.byte	8
 1554 027d 3E       		.byte	62
 1555 027e 41       		.byte	65
 1556 027f 3E       		.byte	62
 1557 0280 46       		.byte	70
 1558 0281 29       		.byte	41
 1559 0282 19       		.byte	25
 1560 0283 09       		.byte	9
 1561 0284 7F       		.byte	127
 1562 0285 20       		.byte	32
 1563 0286 54       		.byte	84
 1564 0287 54       		.byte	84
 1565 0288 54       		.byte	84
 1566 0289 78       		.byte	120
 1567 028a 3C       		.byte	60
 1568 028b 4A       		.byte	74
 1569 028c 4A       		.byte	74
 1570 028d 4A       		.byte	74
 1571 028e 31       		.byte	49
 1572 028f 7C       		.byte	124
 1573 0290 54       		.byte	84
 1574 0291 54       		.byte	84
 1575 0292 28       		.byte	40
 1576 0293 00       		.byte	0
 1577 0294 7C       		.byte	124
 1578 0295 04       		.byte	4
 1579 0296 04       		.byte	4
 1580 0297 0C       		.byte	12
 1581 0298 00       		.byte	0
 1582 0299 60       		.byte	96
 1583 029a 3C       		.byte	60
 1584 029b 24       		.byte	36
 1585 029c 3C       		.byte	60
 1586 029d 60       		.byte	96
 1587 029e 38       		.byte	56
 1588 029f 54       		.byte	84
 1589 02a0 54       		.byte	84
ARM GAS  C:\Users\Vit\AppData\Local\Temp\cc4aOOs2.s 			page 36


 1590 02a1 54       		.byte	84
 1591 02a2 18       		.byte	24
 1592 02a3 6C       		.byte	108
 1593 02a4 10       		.byte	16
 1594 02a5 7C       		.byte	124
 1595 02a6 10       		.byte	16
 1596 02a7 6C       		.byte	108
 1597 02a8 00       		.byte	0
 1598 02a9 44       		.byte	68
 1599 02aa 54       		.byte	84
 1600 02ab 54       		.byte	84
 1601 02ac 28       		.byte	40
 1602 02ad 7C       		.byte	124
 1603 02ae 20       		.byte	32
 1604 02af 10       		.byte	16
 1605 02b0 08       		.byte	8
 1606 02b1 7C       		.byte	124
 1607 02b2 7C       		.byte	124
 1608 02b3 21       		.byte	33
 1609 02b4 12       		.byte	18
 1610 02b5 09       		.byte	9
 1611 02b6 7C       		.byte	124
 1612 02b7 7C       		.byte	124
 1613 02b8 10       		.byte	16
 1614 02b9 28       		.byte	40
 1615 02ba 44       		.byte	68
 1616 02bb 00       		.byte	0
 1617 02bc 40       		.byte	64
 1618 02bd 38       		.byte	56
 1619 02be 04       		.byte	4
 1620 02bf 04       		.byte	4
 1621 02c0 7C       		.byte	124
 1622 02c1 7C       		.byte	124
 1623 02c2 08       		.byte	8
 1624 02c3 10       		.byte	16
 1625 02c4 08       		.byte	8
 1626 02c5 7C       		.byte	124
 1627 02c6 7C       		.byte	124
 1628 02c7 10       		.byte	16
 1629 02c8 10       		.byte	16
 1630 02c9 10       		.byte	16
 1631 02ca 7C       		.byte	124
 1632 02cb 38       		.byte	56
 1633 02cc 44       		.byte	68
 1634 02cd 44       		.byte	68
 1635 02ce 44       		.byte	68
 1636 02cf 38       		.byte	56
 1637 02d0 7C       		.byte	124
 1638 02d1 04       		.byte	4
 1639 02d2 04       		.byte	4
 1640 02d3 04       		.byte	4
 1641 02d4 7C       		.byte	124
 1642 02d5 7C       		.byte	124
 1643 02d6 14       		.byte	20
 1644 02d7 14       		.byte	20
 1645 02d8 14       		.byte	20
 1646 02d9 08       		.byte	8
ARM GAS  C:\Users\Vit\AppData\Local\Temp\cc4aOOs2.s 			page 37


 1647 02da 38       		.byte	56
 1648 02db 44       		.byte	68
 1649 02dc 44       		.byte	68
 1650 02dd 44       		.byte	68
 1651 02de 00       		.byte	0
 1652 02df 04       		.byte	4
 1653 02e0 04       		.byte	4
 1654 02e1 7C       		.byte	124
 1655 02e2 04       		.byte	4
 1656 02e3 04       		.byte	4
 1657 02e4 0C       		.byte	12
 1658 02e5 50       		.byte	80
 1659 02e6 50       		.byte	80
 1660 02e7 50       		.byte	80
 1661 02e8 3C       		.byte	60
 1662 02e9 08       		.byte	8
 1663 02ea 14       		.byte	20
 1664 02eb 7C       		.byte	124
 1665 02ec 14       		.byte	20
 1666 02ed 08       		.byte	8
 1667 02ee 44       		.byte	68
 1668 02ef 28       		.byte	40
 1669 02f0 10       		.byte	16
 1670 02f1 28       		.byte	40
 1671 02f2 44       		.byte	68
 1672 02f3 3C       		.byte	60
 1673 02f4 20       		.byte	32
 1674 02f5 20       		.byte	32
 1675 02f6 3C       		.byte	60
 1676 02f7 60       		.byte	96
 1677 02f8 0C       		.byte	12
 1678 02f9 10       		.byte	16
 1679 02fa 10       		.byte	16
 1680 02fb 10       		.byte	16
 1681 02fc 7C       		.byte	124
 1682 02fd 7C       		.byte	124
 1683 02fe 40       		.byte	64
 1684 02ff 7C       		.byte	124
 1685 0300 40       		.byte	64
 1686 0301 7C       		.byte	124
 1687 0302 3C       		.byte	60
 1688 0303 20       		.byte	32
 1689 0304 3C       		.byte	60
 1690 0305 20       		.byte	32
 1691 0306 7C       		.byte	124
 1692 0307 04       		.byte	4
 1693 0308 7C       		.byte	124
 1694 0309 50       		.byte	80
 1695 030a 50       		.byte	80
 1696 030b 20       		.byte	32
 1697 030c 7C       		.byte	124
 1698 030d 50       		.byte	80
 1699 030e 20       		.byte	32
 1700 030f 00       		.byte	0
 1701 0310 7C       		.byte	124
 1702 0311 00       		.byte	0
 1703 0312 7C       		.byte	124
ARM GAS  C:\Users\Vit\AppData\Local\Temp\cc4aOOs2.s 			page 38


 1704 0313 50       		.byte	80
 1705 0314 50       		.byte	80
 1706 0315 20       		.byte	32
 1707 0316 28       		.byte	40
 1708 0317 44       		.byte	68
 1709 0318 54       		.byte	84
 1710 0319 54       		.byte	84
 1711 031a 38       		.byte	56
 1712 031b 7C       		.byte	124
 1713 031c 10       		.byte	16
 1714 031d 38       		.byte	56
 1715 031e 44       		.byte	68
 1716 031f 38       		.byte	56
 1717 0320 48       		.byte	72
 1718 0321 54       		.byte	84
 1719 0322 34       		.byte	52
 1720 0323 14       		.byte	20
 1721 0324 7C       		.byte	124
 1722              		.bss
 1723              		.align	2
 1724              		.set	.LANCHOR0,. + 0
 1725              		.type	x_cur, %object
 1726              		.size	x_cur, 1
 1727              	x_cur:
 1728 0000 00       		.space	1
 1729              		.type	y_cur, %object
 1730              		.size	y_cur, 1
 1731              	y_cur:
 1732 0001 00       		.space	1
 1733 0002 0000     		.space	2
 1734              		.type	lcd_buff_idx, %object
 1735              		.size	lcd_buff_idx, 4
 1736              	lcd_buff_idx:
 1737 0004 00000000 		.space	4
 1738              		.text
 1739              	.Letext0:
 1740              		.file 2 "c:\\my programs\\psoc\\psoc creator\\3.3\\psoc creator\\import\\gnu\\arm\\4.9.3\\arm-none
 1741              		.file 3 "c:\\my programs\\psoc\\psoc creator\\3.3\\psoc creator\\import\\gnu\\arm\\4.9.3\\arm-none
 1742              		.file 4 "Generated_Source\\PSoC4/cytypes.h"